; ModuleID = 'llvm-link'
source_filename = "llvm-link"
target datalayout = "e-m:e-i64:64-f80:128-n8:16:32:64-S128"
target triple = "x86_64-pc-linux-gnu"

%struct.option = type { i8*, i32, i32*, i32 }
%struct._IO_FILE = type { i32, i8*, i8*, i8*, i8*, i8*, i8*, i8*, i8*, i8*, i8*, i8*, %struct._IO_marker*, %struct._IO_FILE*, i32, i32, i64, i16, i8, [1 x i8], i8*, i64, %struct._IO_codecvt*, %struct._IO_wide_data*, %struct._IO_FILE*, i8*, i64, i32, [20 x i8] }
%struct._IO_marker = type opaque
%struct._IO_codecvt = type opaque
%struct._IO_wide_data = type opaque
%struct.quoting_options = type { i32, i32, [8 x i32], i8*, i8* }
%struct.slotvec = type { i64, i8* }
%struct.infomap = type { i8*, i8* }
%struct.utsname = type { [65 x i8], [65 x i8], [65 x i8], [65 x i8], [65 x i8], [65 x i8] }
%struct.__va_list_tag = type { i32, i32, i8*, i8* }
%struct.__mbstate_t = type { i32, %union.anon }
%union.anon = type { i32 }
%"class.CryptoPP::SHA256" = type { %"class.CryptoPP::IteratedHashWithStaticTransform" }
%"class.CryptoPP::IteratedHashWithStaticTransform" = type { %"class.CryptoPP::ClonableImpl", %"class.CryptoPP::FixedSizeAlignedSecBlock" }
%"class.CryptoPP::ClonableImpl" = type { %"class.CryptoPP::AlgorithmImpl" }
%"class.CryptoPP::AlgorithmImpl" = type { %"class.CryptoPP::IteratedHash" }
%"class.CryptoPP::IteratedHash" = type { %"class.CryptoPP::IteratedHashBase", %"class.CryptoPP::FixedSizeSecBlock" }
%"class.CryptoPP::IteratedHashBase" = type { %"class.CryptoPP::HashTransformation", i32, i32 }
%"class.CryptoPP::HashTransformation" = type { %"class.CryptoPP::Algorithm" }
%"class.CryptoPP::Algorithm" = type { %"class.CryptoPP::Clonable" }
%"class.CryptoPP::Clonable" = type { i32 (...)** }
%"class.CryptoPP::FixedSizeSecBlock" = type { %"class.CryptoPP::SecBlock" }
%"class.CryptoPP::SecBlock" = type { %"class.CryptoPP::FixedSizeAllocatorWithCleanup", i64, i32* }
%"class.CryptoPP::FixedSizeAllocatorWithCleanup" = type <{ [16 x i32], %"class.CryptoPP::NullAllocator", i8, [6 x i8] }>
%"class.CryptoPP::NullAllocator" = type { i8 }
%"class.CryptoPP::FixedSizeAlignedSecBlock" = type { %"class.CryptoPP::FixedSizeSecBlock.0" }
%"class.CryptoPP::FixedSizeSecBlock.0" = type { %"class.CryptoPP::SecBlock.1" }
%"class.CryptoPP::SecBlock.1" = type { %"class.CryptoPP::FixedSizeAllocatorWithCleanup.2", i64, i32* }
%"class.CryptoPP::FixedSizeAllocatorWithCleanup.2" = type <{ [18 x i32], %"class.CryptoPP::NullAllocator", i8, [6 x i8] }>
%"class.std::__cxx11::basic_string" = type { %"struct.std::__cxx11::basic_string<char, std::char_traits<char>, std::allocator<char> >::_Alloc_hider", i64, %union.anon.0 }
%"struct.std::__cxx11::basic_string<char, std::char_traits<char>, std::allocator<char> >::_Alloc_hider" = type { i8* }
%union.anon.0 = type { i64, [8 x i8] }
%"class.CryptoPP::Exception" = type { %"class.CryptoPP::Clonable", i32, %"class.std::__cxx11::basic_string" }
%"class.CryptoPP::NotImplemented" = type { %"class.CryptoPP::Exception" }

$_ZN8CryptoPP31IteratedHashWithStaticTransformIjNS_10EnumToTypeINS_9ByteOrderELi1EEELj64ELj32ENS_6SHA256ELj32ELb1EEC2Ev = comdat any

$_ZN9__gnu_cxx12__to_xstringINSt7__cxx1112basic_stringIcSt11char_traitsIcESaIcEEEcEET_PFiPT0_mPKS8_P13__va_list_tagEmSB_z = comdat any

$_ZN8CryptoPP31IteratedHashWithStaticTransformIjNS_10EnumToTypeINS_9ByteOrderELi1EEELj64ELj32ENS_6SHA256ELj32ELb1EED2Ev = comdat any

$_ZN8CryptoPP12IteratedHashIjNS_10EnumToTypeINS_9ByteOrderELi1EEELj64ENS_18HashTransformationEED2Ev = comdat any

$_ZN8CryptoPP12IteratedHashIjNS_10EnumToTypeINS_9ByteOrderELi1EEELj64ENS_18HashTransformationEED0Ev = comdat any

$_ZNK8CryptoPP8Clonable5CloneEv = comdat any

$_ZNK8CryptoPP9Algorithm13AlgorithmNameB5cxx11Ev = comdat any

$_ZN8CryptoPP18HashTransformation5FinalEPh = comdat any

$_ZNK8CryptoPP12IteratedHashIjNS_10EnumToTypeINS_9ByteOrderELi1EEELj64ENS_18HashTransformationEE9BlockSizeEv = comdat any

$_ZNK8CryptoPP16IteratedHashBaseIjNS_18HashTransformationEE16OptimalBlockSizeEv = comdat any

$_ZNK8CryptoPP16IteratedHashBaseIjNS_18HashTransformationEE20OptimalDataAlignmentEv = comdat any

$_ZN8CryptoPP18HashTransformation15CalculateDigestEPhPKhm = comdat any

$_ZN8CryptoPP18HashTransformation6VerifyEPKh = comdat any

$_ZN8CryptoPP18HashTransformation12VerifyDigestEPKhS2_m = comdat any

$_ZN8CryptoPP18HashTransformation24CalculateTruncatedDigestEPhmPKhm = comdat any

$_ZN8CryptoPP18HashTransformation21VerifyTruncatedDigestEPKhmS2_m = comdat any

$_ZNK8CryptoPP12IteratedHashIjNS_10EnumToTypeINS_9ByteOrderELi1EEELj64ENS_18HashTransformationEE12GetByteOrderEv = comdat any

$_ZN8CryptoPP12IteratedHashIjNS_10EnumToTypeINS_9ByteOrderELi1EEELj64ENS_18HashTransformationEE7DataBufEv = comdat any

$_ZN8CryptoPP9ExceptionD2Ev = comdat any

$_ZN8CryptoPP14NotImplementedD0Ev = comdat any

$_ZNK8CryptoPP9Exception4whatEv = comdat any

$_ZN8CryptoPP9ExceptionD0Ev = comdat any

$_ZN8CryptoPP31IteratedHashWithStaticTransformIjNS_10EnumToTypeINS_9ByteOrderELi1EEELj64ELj32ENS_6SHA256ELj32ELb1EED0Ev = comdat any

$_ZNK8CryptoPP12ClonableImplINS_6SHA256ENS_13AlgorithmImplINS_12IteratedHashIjNS_10EnumToTypeINS_9ByteOrderELi1EEELj64ENS_18HashTransformationEEES1_EEE5CloneEv = comdat any

$_ZNK8CryptoPP13AlgorithmImplINS_12IteratedHashIjNS_10EnumToTypeINS_9ByteOrderELi1EEELj64ENS_18HashTransformationEEENS_6SHA256EE13AlgorithmNameB5cxx11Ev = comdat any

$_ZNK8CryptoPP31IteratedHashWithStaticTransformIjNS_10EnumToTypeINS_9ByteOrderELi1EEELj64ELj32ENS_6SHA256ELj32ELb1EE10DigestSizeEv = comdat any

$_ZN8CryptoPP31IteratedHashWithStaticTransformIjNS_10EnumToTypeINS_9ByteOrderELi1EEELj64ELj32ENS_6SHA256ELj32ELb1EE4InitEv = comdat any

$_ZN8CryptoPP31IteratedHashWithStaticTransformIjNS_10EnumToTypeINS_9ByteOrderELi1EEELj64ELj32ENS_6SHA256ELj32ELb1EE24HashEndianCorrectedBlockEPKj = comdat any

$_ZN8CryptoPP31IteratedHashWithStaticTransformIjNS_10EnumToTypeINS_9ByteOrderELi1EEELj64ELj32ENS_6SHA256ELj32ELb1EE8StateBufEv = comdat any

$_ZN8CryptoPP31IteratedHashWithStaticTransformIjNS_10EnumToTypeINS_9ByteOrderELi1EEELj64ELj32ENS_6SHA256ELj32ELb1EEC2ERKS5_ = comdat any

$_ZN8CryptoPP8SecBlockIjNS_29FixedSizeAllocatorWithCleanupIjLm16ENS_13NullAllocatorIjEELb1EEEEC2ERKS5_ = comdat any

$_ZN8CryptoPP8ClonableD2Ev = comdat any

$_ZN8CryptoPP16IteratedHashBaseIjNS_18HashTransformationEED0Ev = comdat any

$_ZNK8CryptoPP18HashTransformation9BlockSizeEv = comdat any

$_ZTVN8CryptoPP31IteratedHashWithStaticTransformIjNS_10EnumToTypeINS_9ByteOrderELi1EEELj64ELj32ENS_6SHA256ELj32ELb1EEE = comdat any

$_ZTVN8CryptoPP12IteratedHashIjNS_10EnumToTypeINS_9ByteOrderELi1EEELj64ENS_18HashTransformationEEE = comdat any

$_ZTIN8CryptoPP12IteratedHashIjNS_10EnumToTypeINS_9ByteOrderELi1EEELj64ENS_18HashTransformationEEE = comdat any

$_ZTVN8CryptoPP9ExceptionE = comdat any

$_ZTVN8CryptoPP14NotImplementedE = comdat any

$_ZTIN8CryptoPP14NotImplementedE = comdat any

$_ZTSN8CryptoPP14NotImplementedE = comdat any

$_ZTIN8CryptoPP9ExceptionE = comdat any

$_ZTSN8CryptoPP9ExceptionE = comdat any

$_ZTSN8CryptoPP12IteratedHashIjNS_10EnumToTypeINS_9ByteOrderELi1EEELj64ENS_18HashTransformationEEE = comdat any

$_ZTIN8CryptoPP16IteratedHashBaseIjNS_18HashTransformationEEE = comdat any

$_ZTSN8CryptoPP16IteratedHashBaseIjNS_18HashTransformationEEE = comdat any

$_ZTIN8CryptoPP31IteratedHashWithStaticTransformIjNS_10EnumToTypeINS_9ByteOrderELi1EEELj64ELj32ENS_6SHA256ELj32ELb1EEE = comdat any

$_ZTVN8CryptoPP16IteratedHashBaseIjNS_18HashTransformationEEE = comdat any

$_ZTSN8CryptoPP31IteratedHashWithStaticTransformIjNS_10EnumToTypeINS_9ByteOrderELi1EEELj64ELj32ENS_6SHA256ELj32ELb1EEE = comdat any

$_ZTIN8CryptoPP12ClonableImplINS_6SHA256ENS_13AlgorithmImplINS_12IteratedHashIjNS_10EnumToTypeINS_9ByteOrderELi1EEELj64ENS_18HashTransformationEEES1_EEEE = comdat any

$_ZTSN8CryptoPP12ClonableImplINS_6SHA256ENS_13AlgorithmImplINS_12IteratedHashIjNS_10EnumToTypeINS_9ByteOrderELi1EEELj64ENS_18HashTransformationEEES1_EEEE = comdat any

$_ZTIN8CryptoPP13AlgorithmImplINS_12IteratedHashIjNS_10EnumToTypeINS_9ByteOrderELi1EEELj64ENS_18HashTransformationEEENS_6SHA256EEE = comdat any

$_ZTSN8CryptoPP13AlgorithmImplINS_12IteratedHashIjNS_10EnumToTypeINS_9ByteOrderELi1EEELj64ENS_18HashTransformationEEENS_6SHA256EEE = comdat any

@.str.9 = private unnamed_addr constant [1 x i8] zeroinitializer, align 1
@.str.10 = private unnamed_addr constant [10 x i8] c"coreutils\00", align 1
@.str.11 = private unnamed_addr constant [24 x i8] c"/usr/local/share/locale\00", align 1
@uname_mode = internal global i32 1, align 4
@arch_long_options = internal constant [3 x %struct.option] [%struct.option { i8* getelementptr inbounds ([5 x i8], [5 x i8]* @.str.34, i32 0, i32 0), i32 0, i32* null, i32 -130 }, %struct.option { i8* getelementptr inbounds ([8 x i8], [8 x i8]* @.str.35, i32 0, i32 0), i32 0, i32* null, i32 -131 }, %struct.option zeroinitializer], align 16
@stdout = external dso_local local_unnamed_addr global %struct._IO_FILE*, align 8
@.str.7 = private unnamed_addr constant [6 x i8] c"uname\00", align 1
@.str.8 = private unnamed_addr constant [5 x i8] c"arch\00", align 1
@Version = internal global i8* getelementptr inbounds ([5 x i8], [5 x i8]* @.str.47, i64 0, i64 0), align 8
@.str.23 = private unnamed_addr constant [14 x i8] c"GNU coreutils\00", align 1
@.str.30 = private unnamed_addr constant [16 x i8] c"David MacKenzie\00", align 1
@.str.31 = private unnamed_addr constant [10 x i8] c"Karel Zak\00", align 1
@.str.32 = private unnamed_addr constant [10 x i8] c"asnrvmpio\00", align 1
@uname_long_options = internal constant [14 x %struct.option] [%struct.option { i8* getelementptr inbounds ([4 x i8], [4 x i8]* @.str.36, i32 0, i32 0), i32 0, i32* null, i32 97 }, %struct.option { i8* getelementptr inbounds ([12 x i8], [12 x i8]* @.str.37, i32 0, i32 0), i32 0, i32* null, i32 115 }, %struct.option { i8* getelementptr inbounds ([8 x i8], [8 x i8]* @.str.38, i32 0, i32 0), i32 0, i32* null, i32 115 }, %struct.option { i8* getelementptr inbounds ([9 x i8], [9 x i8]* @.str.39, i32 0, i32 0), i32 0, i32* null, i32 110 }, %struct.option { i8* getelementptr inbounds ([15 x i8], [15 x i8]* @.str.40, i32 0, i32 0), i32 0, i32* null, i32 114 }, %struct.option { i8* getelementptr inbounds ([8 x i8], [8 x i8]* @.str.41, i32 0, i32 0), i32 0, i32* null, i32 114 }, %struct.option { i8* getelementptr inbounds ([15 x i8], [15 x i8]* @.str.42, i32 0, i32 0), i32 0, i32* null, i32 118 }, %struct.option { i8* getelementptr inbounds ([8 x i8], [8 x i8]* @.str.43, i32 0, i32 0), i32 0, i32* null, i32 109 }, %struct.option { i8* getelementptr inbounds ([10 x i8], [10 x i8]* @.str.44, i32 0, i32 0), i32 0, i32* null, i32 112 }, %struct.option { i8* getelementptr inbounds ([18 x i8], [18 x i8]* @.str.45, i32 0, i32 0), i32 0, i32* null, i32 105 }, %struct.option { i8* getelementptr inbounds ([17 x i8], [17 x i8]* @.str.46, i32 0, i32 0), i32 0, i32* null, i32 111 }, %struct.option { i8* getelementptr inbounds ([5 x i8], [5 x i8]* @.str.34, i32 0, i32 0), i32 0, i32* null, i32 -130 }, %struct.option { i8* getelementptr inbounds ([8 x i8], [8 x i8]* @.str.35, i32 0, i32 0), i32 0, i32* null, i32 -131 }, %struct.option zeroinitializer], align 16
@optind = external dso_local local_unnamed_addr global i32, align 4
@.str.33 = private unnamed_addr constant [17 x i8] c"extra operand %s\00", align 1
@.str.12 = private unnamed_addr constant [23 x i8] c"cannot get system name\00", align 1
@print_element.printed = internal unnamed_addr global i1 false, align 1
@main.unknown = internal constant [8 x i8] c"unknown\00", align 1
@.str.13 = private unnamed_addr constant [10 x i8] c"GNU/Linux\00", align 1
@quote_quoting_options = internal global %struct.quoting_options { i32 8, i32 0, [8 x i32] zeroinitializer, i8* null, i8* null }, align 8
@slotvec = internal unnamed_addr global %struct.slotvec* @slotvec0, align 8
@nslots = internal unnamed_addr global i32 1, align 4
@slotvec0 = internal global %struct.slotvec { i64 256, i8* getelementptr inbounds ([256 x i8], [256 x i8]* @slot0, i32 0, i32 0) }, align 8
@slot0 = internal global [256 x i8] zeroinitializer, align 16
@.str.11.64 = private unnamed_addr constant [2 x i8] c"`\00", align 1
@.str.12.65 = private unnamed_addr constant [2 x i8] c"'\00", align 1
@.str.10.66 = private unnamed_addr constant [2 x i8] c"\22\00", align 1
@.str.1.107 = private unnamed_addr constant [6 x i8] c"POSIX\00", align 1
@.str.14.67 = private unnamed_addr constant [4 x i8] c"\E2\80\98\00", align 1
@.str.15.68 = private unnamed_addr constant [4 x i8] c"\E2\80\99\00", align 1
@.str.17.69 = private unnamed_addr constant [4 x i8] c"\A1\07e\00", align 1
@.str.18.70 = private unnamed_addr constant [3 x i8] c"\A1\AF\00", align 1
@.str.110 = private unnamed_addr constant [1 x i8] zeroinitializer, align 1
@.str.1.111 = private unnamed_addr constant [6 x i8] c"ASCII\00", align 1
@exit_failure = internal global i32 1, align 4
@.str.1.99 = private unnamed_addr constant [17 x i8] c"memory exhausted\00", align 1
@.str.100 = private unnamed_addr constant [3 x i8] c"%s\00", align 1
@.str.36 = private unnamed_addr constant [4 x i8] c"all\00", align 1
@.str.37 = private unnamed_addr constant [12 x i8] c"kernel-name\00", align 1
@.str.38 = private unnamed_addr constant [8 x i8] c"sysname\00", align 1
@.str.39 = private unnamed_addr constant [9 x i8] c"nodename\00", align 1
@.str.40 = private unnamed_addr constant [15 x i8] c"kernel-release\00", align 1
@.str.41 = private unnamed_addr constant [8 x i8] c"release\00", align 1
@.str.42 = private unnamed_addr constant [15 x i8] c"kernel-version\00", align 1
@.str.43 = private unnamed_addr constant [8 x i8] c"machine\00", align 1
@.str.44 = private unnamed_addr constant [10 x i8] c"processor\00", align 1
@.str.45 = private unnamed_addr constant [18 x i8] c"hardware-platform\00", align 1
@.str.46 = private unnamed_addr constant [17 x i8] c"operating-system\00", align 1
@.str.34 = private unnamed_addr constant [5 x i8] c"help\00", align 1
@.str.35 = private unnamed_addr constant [8 x i8] c"version\00", align 1
@.str.73 = private unnamed_addr constant [12 x i8] c"%s (%s) %s\0A\00", align 1
@.str.1.74 = private unnamed_addr constant [7 x i8] c"%s %s\0A\00", align 1
@.str.2.75 = private unnamed_addr constant [4 x i8] c"(C)\00", align 1
@version_etc_copyright = internal constant [47 x i8] c"Copyright %s %d Free Software Foundation, Inc.\00", align 16
@.str.3.76 = private unnamed_addr constant [2 x i8] c"\0A\00", align 1
@.str.4.77 = private unnamed_addr constant [171 x i8] c"License GPLv3+: GNU GPL version 3 or later <%s>.\0AThis is free software: you are free to change and redistribute it.\0AThere is NO WARRANTY, to the extent permitted by law.\0A\00", align 1
@.str.5.78 = private unnamed_addr constant [34 x i8] c"https://gnu.org/licenses/gpl.html\00", align 1
@.str.6.79 = private unnamed_addr constant [16 x i8] c"Written by %s.\0A\00", align 1
@.str.7.80 = private unnamed_addr constant [23 x i8] c"Written by %s and %s.\0A\00", align 1
@.str.8.81 = private unnamed_addr constant [28 x i8] c"Written by %s, %s, and %s.\0A\00", align 1
@.str.9.82 = private unnamed_addr constant [32 x i8] c"Written by %s, %s, %s,\0Aand %s.\0A\00", align 1
@.str.10.83 = private unnamed_addr constant [36 x i8] c"Written by %s, %s, %s,\0A%s, and %s.\0A\00", align 1
@.str.11.84 = private unnamed_addr constant [40 x i8] c"Written by %s, %s, %s,\0A%s, %s, and %s.\0A\00", align 1
@.str.12.85 = private unnamed_addr constant [44 x i8] c"Written by %s, %s, %s,\0A%s, %s, %s, and %s.\0A\00", align 1
@.str.13.86 = private unnamed_addr constant [48 x i8] c"Written by %s, %s, %s,\0A%s, %s, %s, %s,\0Aand %s.\0A\00", align 1
@.str.14.87 = private unnamed_addr constant [52 x i8] c"Written by %s, %s, %s,\0A%s, %s, %s, %s,\0A%s, and %s.\0A\00", align 1
@.str.15.88 = private unnamed_addr constant [60 x i8] c"Written by %s, %s, %s,\0A%s, %s, %s, %s,\0A%s, %s, and others.\0A\00", align 1
@.str.47 = private unnamed_addr constant [5 x i8] c"8.32\00", align 1
@stderr = external dso_local local_unnamed_addr global %struct._IO_FILE*, align 8
@.str = private unnamed_addr constant [39 x i8] c"Try '%s --help' for more information.\0A\00", align 1
@program_name = internal global i8* null, align 8
@.str.1 = private unnamed_addr constant [23 x i8] c"Usage: %s [OPTION]...\0A\00", align 1
@.str.2 = private unnamed_addr constant [362 x i8] c"Print certain system information.  With no OPTION, same as -s.\0A\0A  -a, --all                print all information, in the following order,\0A                             except omit -p and -i if unknown:\0A  -s, --kernel-name        print the kernel name\0A  -n, --nodename           print the network node hostname\0A  -r, --kernel-release     print the kernel release\0A\00", align 1
@.str.3 = private unnamed_addr constant [303 x i8] c"  -v, --kernel-version     print the kernel version\0A  -m, --machine            print the machine hardware name\0A  -p, --processor          print the processor type (non-portable)\0A  -i, --hardware-platform  print the hardware platform (non-portable)\0A  -o, --operating-system   print the operating system\0A\00", align 1
@.str.4 = private unnamed_addr constant [30 x i8] c"Print machine architecture.\0A\0A\00", align 1
@.str.5 = private unnamed_addr constant [45 x i8] c"      --help     display this help and exit\0A\00", align 1
@.str.6 = private unnamed_addr constant [54 x i8] c"      --version  output version information and exit\0A\00", align 1
@__const.emit_ancillary_info.infomap = private unnamed_addr constant [7 x %struct.infomap] [%struct.infomap { i8* getelementptr inbounds ([2 x i8], [2 x i8]* @.str.14, i32 0, i32 0), i8* getelementptr inbounds ([16 x i8], [16 x i8]* @.str.15, i32 0, i32 0) }, %struct.infomap { i8* getelementptr inbounds ([10 x i8], [10 x i8]* @.str.10, i32 0, i32 0), i8* getelementptr inbounds ([22 x i8], [22 x i8]* @.str.16, i32 0, i32 0) }, %struct.infomap { i8* getelementptr inbounds ([10 x i8], [10 x i8]* @.str.17, i32 0, i32 0), i8* getelementptr inbounds ([15 x i8], [15 x i8]* @.str.18, i32 0, i32 0) }, %struct.infomap { i8* getelementptr inbounds ([10 x i8], [10 x i8]* @.str.19, i32 0, i32 0), i8* getelementptr inbounds ([15 x i8], [15 x i8]* @.str.18, i32 0, i32 0) }, %struct.infomap { i8* getelementptr inbounds ([10 x i8], [10 x i8]* @.str.20, i32 0, i32 0), i8* getelementptr inbounds ([15 x i8], [15 x i8]* @.str.18, i32 0, i32 0) }, %struct.infomap { i8* getelementptr inbounds ([10 x i8], [10 x i8]* @.str.21, i32 0, i32 0), i8* getelementptr inbounds ([15 x i8], [15 x i8]* @.str.18, i32 0, i32 0) }, %struct.infomap zeroinitializer], align 16
@.str.14 = private unnamed_addr constant [2 x i8] c"[\00", align 1
@.str.22 = private unnamed_addr constant [23 x i8] c"\0A%s online help: <%s>\0A\00", align 1
@.str.24 = private unnamed_addr constant [40 x i8] c"https://www.gnu.org/software/coreutils/\00", align 1
@.str.25 = private unnamed_addr constant [4 x i8] c"en_\00", align 1
@.str.26 = private unnamed_addr constant [71 x i8] c"Report any translation bugs to <https://translationproject.org/team/>\0A\00", align 1
@.str.27 = private unnamed_addr constant [27 x i8] c"Full documentation <%s%s>\0A\00", align 1
@.str.28 = private unnamed_addr constant [51 x i8] c"or available locally via: info '(coreutils) %s%s'\0A\00", align 1
@.str.29 = private unnamed_addr constant [12 x i8] c" invocation\00", align 1
@.str.15 = private unnamed_addr constant [16 x i8] c"test invocation\00", align 1
@.str.16 = private unnamed_addr constant [22 x i8] c"Multi-call invocation\00", align 1
@.str.17 = private unnamed_addr constant [10 x i8] c"sha224sum\00", align 1
@.str.18 = private unnamed_addr constant [15 x i8] c"sha2 utilities\00", align 1
@.str.19 = private unnamed_addr constant [10 x i8] c"sha256sum\00", align 1
@.str.20 = private unnamed_addr constant [10 x i8] c"sha384sum\00", align 1
@.str.21 = private unnamed_addr constant [10 x i8] c"sha512sum\00", align 1
@ignore_EPIPE = internal unnamed_addr global i8 0, align 1
@.str.50 = private unnamed_addr constant [12 x i8] c"write error\00", align 1
@file_name = internal unnamed_addr global i8* null, align 8
@.str.1.51 = private unnamed_addr constant [7 x i8] c"%s: %s\00", align 1
@.str.2.52 = private unnamed_addr constant [3 x i8] c"%s\00", align 1
@default_quoting_options = internal global %struct.quoting_options zeroinitializer, align 8
@.str.57 = private unnamed_addr constant [56 x i8] c"A NULL argv[0] was passed through an exec system call.\0A\00", align 1
@.str.1.58 = private unnamed_addr constant [8 x i8] c"/.libs/\00", align 1
@.str.2.59 = private unnamed_addr constant [4 x i8] c"lt-\00", align 1
@program_invocation_short_name = external dso_local local_unnamed_addr global i8*, align 8
@program_invocation_name = external dso_local local_unnamed_addr global i8*, align 8
@_ZTVN8CryptoPP6SHA256E = external dso_local unnamed_addr constant { [27 x i8*] }, align 8
@.str.14.3 = private unnamed_addr constant [3 x i8] c"%d\00", align 1
@_ZTVN8CryptoPP31IteratedHashWithStaticTransformIjNS_10EnumToTypeINS_9ByteOrderELi1EEELj64ELj32ENS_6SHA256ELj32ELb1EEE = linkonce_odr dso_local unnamed_addr constant { [27 x i8*] } { [27 x i8*] [i8* null, i8* bitcast ({ i8*, i8*, i8* }* @_ZTIN8CryptoPP31IteratedHashWithStaticTransformIjNS_10EnumToTypeINS_9ByteOrderELi1EEELj64ELj32ENS_6SHA256ELj32ELb1EEE to i8*), i8* bitcast (void (%"class.CryptoPP::IteratedHashWithStaticTransform"*)* @_ZN8CryptoPP31IteratedHashWithStaticTransformIjNS_10EnumToTypeINS_9ByteOrderELi1EEELj64ELj32ENS_6SHA256ELj32ELb1EED2Ev to i8*), i8* bitcast (void (%"class.CryptoPP::IteratedHashWithStaticTransform"*)* @_ZN8CryptoPP31IteratedHashWithStaticTransformIjNS_10EnumToTypeINS_9ByteOrderELi1EEELj64ELj32ENS_6SHA256ELj32ELb1EED0Ev to i8*), i8* bitcast (%"class.CryptoPP::Clonable"* (%"class.CryptoPP::ClonableImpl"*)* @_ZNK8CryptoPP12ClonableImplINS_6SHA256ENS_13AlgorithmImplINS_12IteratedHashIjNS_10EnumToTypeINS_9ByteOrderELi1EEELj64ENS_18HashTransformationEEES1_EEE5CloneEv to i8*), i8* bitcast (void (%"class.std::__cxx11::basic_string"*, %"class.CryptoPP::AlgorithmImpl"*)* @_ZNK8CryptoPP13AlgorithmImplINS_12IteratedHashIjNS_10EnumToTypeINS_9ByteOrderELi1EEELj64ENS_18HashTransformationEEENS_6SHA256EE13AlgorithmNameB5cxx11Ev to i8*), i8* bitcast (void (%"class.CryptoPP::IteratedHashBase"*, i8*, i64)* @_ZN8CryptoPP16IteratedHashBaseIjNS_18HashTransformationEE6UpdateEPKhm to i8*), i8* bitcast (i8* (%"class.CryptoPP::IteratedHashBase"*, i64*)* @_ZN8CryptoPP16IteratedHashBaseIjNS_18HashTransformationEE17CreateUpdateSpaceERm to i8*), i8* bitcast (void (%"class.CryptoPP::HashTransformation"*, i8*)* @_ZN8CryptoPP18HashTransformation5FinalEPh to i8*), i8* bitcast (void (%"class.CryptoPP::IteratedHashBase"*)* @_ZN8CryptoPP16IteratedHashBaseIjNS_18HashTransformationEE7RestartEv to i8*), i8* bitcast (i32 (%"class.CryptoPP::IteratedHashWithStaticTransform"*)* @_ZNK8CryptoPP31IteratedHashWithStaticTransformIjNS_10EnumToTypeINS_9ByteOrderELi1EEELj64ELj32ENS_6SHA256ELj32ELb1EE10DigestSizeEv to i8*), i8* bitcast (i32 (%"class.CryptoPP::IteratedHash"*)* @_ZNK8CryptoPP12IteratedHashIjNS_10EnumToTypeINS_9ByteOrderELi1EEELj64ENS_18HashTransformationEE9BlockSizeEv to i8*), i8* bitcast (i32 (%"class.CryptoPP::IteratedHashBase"*)* @_ZNK8CryptoPP16IteratedHashBaseIjNS_18HashTransformationEE16OptimalBlockSizeEv to i8*), i8* bitcast (i32 (%"class.CryptoPP::IteratedHashBase"*)* @_ZNK8CryptoPP16IteratedHashBaseIjNS_18HashTransformationEE20OptimalDataAlignmentEv to i8*), i8* bitcast (void (%"class.CryptoPP::HashTransformation"*, i8*, i8*, i64)* @_ZN8CryptoPP18HashTransformation15CalculateDigestEPhPKhm to i8*), i8* bitcast (i1 (%"class.CryptoPP::HashTransformation"*, i8*)* @_ZN8CryptoPP18HashTransformation6VerifyEPKh to i8*), i8* bitcast (i1 (%"class.CryptoPP::HashTransformation"*, i8*, i8*, i64)* @_ZN8CryptoPP18HashTransformation12VerifyDigestEPKhS2_m to i8*), i8* bitcast (void (%"class.CryptoPP::IteratedHashBase"*, i8*, i64)* @_ZN8CryptoPP16IteratedHashBaseIjNS_18HashTransformationEE14TruncatedFinalEPhm to i8*), i8* bitcast (void (%"class.CryptoPP::HashTransformation"*, i8*, i64, i8*, i64)* @_ZN8CryptoPP18HashTransformation24CalculateTruncatedDigestEPhmPKhm to i8*), i8* bitcast (i1 (%"class.CryptoPP::HashTransformation"*, i8*, i64)* @_ZN8CryptoPP18HashTransformation15TruncatedVerifyEPKhm to i8*), i8* bitcast (i1 (%"class.CryptoPP::HashTransformation"*, i8*, i64, i8*, i64)* @_ZN8CryptoPP18HashTransformation21VerifyTruncatedDigestEPKhmS2_m to i8*), i8* bitcast (void (%"class.CryptoPP::IteratedHashWithStaticTransform"*)* @_ZN8CryptoPP31IteratedHashWithStaticTransformIjNS_10EnumToTypeINS_9ByteOrderELi1EEELj64ELj32ENS_6SHA256ELj32ELb1EE4InitEv to i8*), i8* bitcast (i32 (%"class.CryptoPP::IteratedHash"*)* @_ZNK8CryptoPP12IteratedHashIjNS_10EnumToTypeINS_9ByteOrderELi1EEELj64ENS_18HashTransformationEE12GetByteOrderEv to i8*), i8* bitcast (void (%"class.CryptoPP::IteratedHashWithStaticTransform"*, i32*)* @_ZN8CryptoPP31IteratedHashWithStaticTransformIjNS_10EnumToTypeINS_9ByteOrderELi1EEELj64ELj32ENS_6SHA256ELj32ELb1EE24HashEndianCorrectedBlockEPKj to i8*), i8* bitcast (i64 (%"class.CryptoPP::IteratedHashBase"*, i32*, i64)* @_ZN8CryptoPP16IteratedHashBaseIjNS_18HashTransformationEE18HashMultipleBlocksEPKjm to i8*), i8* bitcast (i32* (%"class.CryptoPP::IteratedHash"*)* @_ZN8CryptoPP12IteratedHashIjNS_10EnumToTypeINS_9ByteOrderELi1EEELj64ENS_18HashTransformationEE7DataBufEv to i8*), i8* bitcast (i32* (%"class.CryptoPP::IteratedHashWithStaticTransform"*)* @_ZN8CryptoPP31IteratedHashWithStaticTransformIjNS_10EnumToTypeINS_9ByteOrderELi1EEELj64ELj32ENS_6SHA256ELj32ELb1EE8StateBufEv to i8*)] }, comdat, align 8
@.str.2.4 = private unnamed_addr constant [10 x i8] c"size <= S\00", align 1
@.str.1.5 = private unnamed_addr constant [33 x i8] c"/usr/include/cryptopp/secblock.h\00", align 1
@__PRETTY_FUNCTION__._ZN8CryptoPP29FixedSizeAllocatorWithCleanupIjLm16ENS_13NullAllocatorIjEELb1EE10deallocateEPvm = private unnamed_addr constant [268 x i8] c"void CryptoPP::FixedSizeAllocatorWithCleanup<unsigned int, 16, CryptoPP::NullAllocator<unsigned int>, true>::deallocate(void *, CryptoPP::FixedSizeAllocatorWithCleanup::size_type) [T = unsigned int, S = 16, A = CryptoPP::NullAllocator<unsigned int>, T_Align16 = true]\00", align 1
@.str.3.6 = private unnamed_addr constant [12 x i8] c"m_allocated\00", align 1
@.str.48 = private unnamed_addr constant [6 x i8] c"false\00", align 1
@__PRETTY_FUNCTION__._ZN8CryptoPP13NullAllocatorIjE10deallocateEPvm = private unnamed_addr constant [118 x i8] c"void CryptoPP::NullAllocator<unsigned int>::deallocate(void *, CryptoPP::NullAllocator::size_type) [T = unsigned int]\00", align 1
@_ZTVN8CryptoPP12IteratedHashIjNS_10EnumToTypeINS_9ByteOrderELi1EEELj64ENS_18HashTransformationEEE = linkonce_odr dso_local unnamed_addr constant { [27 x i8*] } { [27 x i8*] [i8* null, i8* bitcast ({ i8*, i8*, i8* }* @_ZTIN8CryptoPP12IteratedHashIjNS_10EnumToTypeINS_9ByteOrderELi1EEELj64ENS_18HashTransformationEEE to i8*), i8* bitcast (void (%"class.CryptoPP::IteratedHash"*)* @_ZN8CryptoPP12IteratedHashIjNS_10EnumToTypeINS_9ByteOrderELi1EEELj64ENS_18HashTransformationEED2Ev to i8*), i8* bitcast (void (%"class.CryptoPP::IteratedHash"*)* @_ZN8CryptoPP12IteratedHashIjNS_10EnumToTypeINS_9ByteOrderELi1EEELj64ENS_18HashTransformationEED0Ev to i8*), i8* bitcast (%"class.CryptoPP::Clonable"* (%"class.CryptoPP::Clonable"*)* @_ZNK8CryptoPP8Clonable5CloneEv to i8*), i8* bitcast (void (%"class.std::__cxx11::basic_string"*, %"class.CryptoPP::Algorithm"*)* @_ZNK8CryptoPP9Algorithm13AlgorithmNameB5cxx11Ev to i8*), i8* bitcast (void (%"class.CryptoPP::IteratedHashBase"*, i8*, i64)* @_ZN8CryptoPP16IteratedHashBaseIjNS_18HashTransformationEE6UpdateEPKhm to i8*), i8* bitcast (i8* (%"class.CryptoPP::IteratedHashBase"*, i64*)* @_ZN8CryptoPP16IteratedHashBaseIjNS_18HashTransformationEE17CreateUpdateSpaceERm to i8*), i8* bitcast (void (%"class.CryptoPP::HashTransformation"*, i8*)* @_ZN8CryptoPP18HashTransformation5FinalEPh to i8*), i8* bitcast (void (%"class.CryptoPP::IteratedHashBase"*)* @_ZN8CryptoPP16IteratedHashBaseIjNS_18HashTransformationEE7RestartEv to i8*), i8* bitcast (void ()* @__cxa_pure_virtual to i8*), i8* bitcast (i32 (%"class.CryptoPP::IteratedHash"*)* @_ZNK8CryptoPP12IteratedHashIjNS_10EnumToTypeINS_9ByteOrderELi1EEELj64ENS_18HashTransformationEE9BlockSizeEv to i8*), i8* bitcast (i32 (%"class.CryptoPP::IteratedHashBase"*)* @_ZNK8CryptoPP16IteratedHashBaseIjNS_18HashTransformationEE16OptimalBlockSizeEv to i8*), i8* bitcast (i32 (%"class.CryptoPP::IteratedHashBase"*)* @_ZNK8CryptoPP16IteratedHashBaseIjNS_18HashTransformationEE20OptimalDataAlignmentEv to i8*), i8* bitcast (void (%"class.CryptoPP::HashTransformation"*, i8*, i8*, i64)* @_ZN8CryptoPP18HashTransformation15CalculateDigestEPhPKhm to i8*), i8* bitcast (i1 (%"class.CryptoPP::HashTransformation"*, i8*)* @_ZN8CryptoPP18HashTransformation6VerifyEPKh to i8*), i8* bitcast (i1 (%"class.CryptoPP::HashTransformation"*, i8*, i8*, i64)* @_ZN8CryptoPP18HashTransformation12VerifyDigestEPKhS2_m to i8*), i8* bitcast (void (%"class.CryptoPP::IteratedHashBase"*, i8*, i64)* @_ZN8CryptoPP16IteratedHashBaseIjNS_18HashTransformationEE14TruncatedFinalEPhm to i8*), i8* bitcast (void (%"class.CryptoPP::HashTransformation"*, i8*, i64, i8*, i64)* @_ZN8CryptoPP18HashTransformation24CalculateTruncatedDigestEPhmPKhm to i8*), i8* bitcast (i1 (%"class.CryptoPP::HashTransformation"*, i8*, i64)* @_ZN8CryptoPP18HashTransformation15TruncatedVerifyEPKhm to i8*), i8* bitcast (i1 (%"class.CryptoPP::HashTransformation"*, i8*, i64, i8*, i64)* @_ZN8CryptoPP18HashTransformation21VerifyTruncatedDigestEPKhmS2_m to i8*), i8* bitcast (void ()* @__cxa_pure_virtual to i8*), i8* bitcast (i32 (%"class.CryptoPP::IteratedHash"*)* @_ZNK8CryptoPP12IteratedHashIjNS_10EnumToTypeINS_9ByteOrderELi1EEELj64ENS_18HashTransformationEE12GetByteOrderEv to i8*), i8* bitcast (void ()* @__cxa_pure_virtual to i8*), i8* bitcast (i64 (%"class.CryptoPP::IteratedHashBase"*, i32*, i64)* @_ZN8CryptoPP16IteratedHashBaseIjNS_18HashTransformationEE18HashMultipleBlocksEPKjm to i8*), i8* bitcast (i32* (%"class.CryptoPP::IteratedHash"*)* @_ZN8CryptoPP12IteratedHashIjNS_10EnumToTypeINS_9ByteOrderELi1EEELj64ENS_18HashTransformationEE7DataBufEv to i8*), i8* bitcast (void ()* @__cxa_pure_virtual to i8*)] }, comdat, align 8
@__PRETTY_FUNCTION__._ZN8CryptoPP29FixedSizeAllocatorWithCleanupIjLm16ENS_13NullAllocatorIjEELb0EE10deallocateEPvm = private unnamed_addr constant [270 x i8] c"void CryptoPP::FixedSizeAllocatorWithCleanup<unsigned int, 16, CryptoPP::NullAllocator<unsigned int>, false>::deallocate(void *, CryptoPP::FixedSizeAllocatorWithCleanup::size_type) [T = unsigned int, S = 16, A = CryptoPP::NullAllocator<unsigned int>, T_Align16 = false]\00", align 1
@_ZTIN8CryptoPP12IteratedHashIjNS_10EnumToTypeINS_9ByteOrderELi1EEELj64ENS_18HashTransformationEEE = linkonce_odr dso_local constant { i8*, i8*, i8* } { i8* bitcast (i8** getelementptr inbounds (i8*, i8** @_ZTVN10__cxxabiv120__si_class_type_infoE, i64 2) to i8*), i8* getelementptr inbounds ([94 x i8], [94 x i8]* @_ZTSN8CryptoPP12IteratedHashIjNS_10EnumToTypeINS_9ByteOrderELi1EEELj64ENS_18HashTransformationEEE, i32 0, i32 0), i8* bitcast ({ i8*, i8*, i8* }* @_ZTIN8CryptoPP16IteratedHashBaseIjNS_18HashTransformationEEE to i8*) }, comdat, align 8
@.str.4.49 = private unnamed_addr constant [8 x i8] c"unknown\00", align 1
@.str.6.50 = private unnamed_addr constant [32 x i8] c"Clone() is not implemented yet.\00", align 1
@_ZTVN8CryptoPP9ExceptionE = linkonce_odr dso_local unnamed_addr constant { [5 x i8*] } { [5 x i8*] [i8* null, i8* bitcast ({ i8*, i8*, i8* }* @_ZTIN8CryptoPP9ExceptionE to i8*), i8* bitcast (void (%"class.CryptoPP::Exception"*)* @_ZN8CryptoPP9ExceptionD2Ev to i8*), i8* bitcast (void (%"class.CryptoPP::Exception"*)* @_ZN8CryptoPP9ExceptionD0Ev to i8*), i8* bitcast (i8* (%"class.CryptoPP::Exception"*)* @_ZNK8CryptoPP9Exception4whatEv to i8*)] }, comdat, align 8
@.str.5.51 = private unnamed_addr constant [42 x i8] c"basic_string::_M_construct null not valid\00", align 1
@_ZTVN8CryptoPP14NotImplementedE = linkonce_odr dso_local unnamed_addr constant { [5 x i8*] } { [5 x i8*] [i8* null, i8* bitcast ({ i8*, i8*, i8* }* @_ZTIN8CryptoPP14NotImplementedE to i8*), i8* bitcast (void (%"class.CryptoPP::Exception"*)* @_ZN8CryptoPP9ExceptionD2Ev to i8*), i8* bitcast (void (%"class.CryptoPP::NotImplemented"*)* @_ZN8CryptoPP14NotImplementedD0Ev to i8*), i8* bitcast (i8* (%"class.CryptoPP::Exception"*)* @_ZNK8CryptoPP9Exception4whatEv to i8*)] }, comdat, align 8
@_ZTIN8CryptoPP14NotImplementedE = linkonce_odr dso_local constant { i8*, i8*, i8* } { i8* bitcast (i8** getelementptr inbounds (i8*, i8** @_ZTVN10__cxxabiv120__si_class_type_infoE, i64 2) to i8*), i8* getelementptr inbounds ([28 x i8], [28 x i8]* @_ZTSN8CryptoPP14NotImplementedE, i32 0, i32 0), i8* bitcast ({ i8*, i8*, i8* }* @_ZTIN8CryptoPP9ExceptionE to i8*) }, comdat, align 8
@_ZTVN10__cxxabiv120__si_class_type_infoE = external dso_local global i8*
@_ZTSN8CryptoPP14NotImplementedE = linkonce_odr dso_local constant [28 x i8] c"N8CryptoPP14NotImplementedE\00", comdat, align 1
@_ZTIN8CryptoPP9ExceptionE = linkonce_odr dso_local constant { i8*, i8*, i8* } { i8* bitcast (i8** getelementptr inbounds (i8*, i8** @_ZTVN10__cxxabiv120__si_class_type_infoE, i64 2) to i8*), i8* getelementptr inbounds ([22 x i8], [22 x i8]* @_ZTSN8CryptoPP9ExceptionE, i32 0, i32 0), i8* bitcast (i8** @_ZTISt9exception to i8*) }, comdat, align 8
@_ZTSN8CryptoPP9ExceptionE = linkonce_odr dso_local constant [22 x i8] c"N8CryptoPP9ExceptionE\00", comdat, align 1
@_ZTISt9exception = external dso_local constant i8*
@_ZTSN8CryptoPP12IteratedHashIjNS_10EnumToTypeINS_9ByteOrderELi1EEELj64ENS_18HashTransformationEEE = linkonce_odr dso_local constant [94 x i8] c"N8CryptoPP12IteratedHashIjNS_10EnumToTypeINS_9ByteOrderELi1EEELj64ENS_18HashTransformationEEE\00", comdat, align 1
@_ZTIN8CryptoPP16IteratedHashBaseIjNS_18HashTransformationEEE = linkonce_odr dso_local constant { i8*, i8*, i8* } { i8* bitcast (i8** getelementptr inbounds (i8*, i8** @_ZTVN10__cxxabiv120__si_class_type_infoE, i64 2) to i8*), i8* getelementptr inbounds ([57 x i8], [57 x i8]* @_ZTSN8CryptoPP16IteratedHashBaseIjNS_18HashTransformationEEE, i32 0, i32 0), i8* bitcast (i8** @_ZTIN8CryptoPP18HashTransformationE to i8*) }, comdat, align 8
@_ZTSN8CryptoPP16IteratedHashBaseIjNS_18HashTransformationEEE = linkonce_odr dso_local constant [57 x i8] c"N8CryptoPP16IteratedHashBaseIjNS_18HashTransformationEEE\00", comdat, align 1
@_ZTIN8CryptoPP18HashTransformationE = external dso_local constant i8*
@_ZTIN8CryptoPP31IteratedHashWithStaticTransformIjNS_10EnumToTypeINS_9ByteOrderELi1EEELj64ELj32ENS_6SHA256ELj32ELb1EEE = linkonce_odr dso_local constant { i8*, i8*, i8* } { i8* bitcast (i8** getelementptr inbounds (i8*, i8** @_ZTVN10__cxxabiv120__si_class_type_infoE, i64 2) to i8*), i8* getelementptr inbounds ([114 x i8], [114 x i8]* @_ZTSN8CryptoPP31IteratedHashWithStaticTransformIjNS_10EnumToTypeINS_9ByteOrderELi1EEELj64ELj32ENS_6SHA256ELj32ELb1EEE, i32 0, i32 0), i8* bitcast ({ i8*, i8*, i8* }* @_ZTIN8CryptoPP12ClonableImplINS_6SHA256ENS_13AlgorithmImplINS_12IteratedHashIjNS_10EnumToTypeINS_9ByteOrderELi1EEELj64ENS_18HashTransformationEEES1_EEEE to i8*) }, comdat, align 8
@.str.13.52 = private unnamed_addr constant [8 x i8] c"SHA-256\00", align 1
@_ZTVN8CryptoPP16IteratedHashBaseIjNS_18HashTransformationEEE = linkonce_odr dso_local unnamed_addr constant { [27 x i8*] } { [27 x i8*] [i8* null, i8* bitcast ({ i8*, i8*, i8* }* @_ZTIN8CryptoPP16IteratedHashBaseIjNS_18HashTransformationEEE to i8*), i8* bitcast (void (%"class.CryptoPP::Clonable"*)* @_ZN8CryptoPP8ClonableD2Ev to i8*), i8* bitcast (void (%"class.CryptoPP::IteratedHashBase"*)* @_ZN8CryptoPP16IteratedHashBaseIjNS_18HashTransformationEED0Ev to i8*), i8* bitcast (%"class.CryptoPP::Clonable"* (%"class.CryptoPP::Clonable"*)* @_ZNK8CryptoPP8Clonable5CloneEv to i8*), i8* bitcast (void (%"class.std::__cxx11::basic_string"*, %"class.CryptoPP::Algorithm"*)* @_ZNK8CryptoPP9Algorithm13AlgorithmNameB5cxx11Ev to i8*), i8* bitcast (void (%"class.CryptoPP::IteratedHashBase"*, i8*, i64)* @_ZN8CryptoPP16IteratedHashBaseIjNS_18HashTransformationEE6UpdateEPKhm to i8*), i8* bitcast (i8* (%"class.CryptoPP::IteratedHashBase"*, i64*)* @_ZN8CryptoPP16IteratedHashBaseIjNS_18HashTransformationEE17CreateUpdateSpaceERm to i8*), i8* bitcast (void (%"class.CryptoPP::HashTransformation"*, i8*)* @_ZN8CryptoPP18HashTransformation5FinalEPh to i8*), i8* bitcast (void (%"class.CryptoPP::IteratedHashBase"*)* @_ZN8CryptoPP16IteratedHashBaseIjNS_18HashTransformationEE7RestartEv to i8*), i8* bitcast (void ()* @__cxa_pure_virtual to i8*), i8* bitcast (i32 (%"class.CryptoPP::HashTransformation"*)* @_ZNK8CryptoPP18HashTransformation9BlockSizeEv to i8*), i8* bitcast (i32 (%"class.CryptoPP::IteratedHashBase"*)* @_ZNK8CryptoPP16IteratedHashBaseIjNS_18HashTransformationEE16OptimalBlockSizeEv to i8*), i8* bitcast (i32 (%"class.CryptoPP::IteratedHashBase"*)* @_ZNK8CryptoPP16IteratedHashBaseIjNS_18HashTransformationEE20OptimalDataAlignmentEv to i8*), i8* bitcast (void (%"class.CryptoPP::HashTransformation"*, i8*, i8*, i64)* @_ZN8CryptoPP18HashTransformation15CalculateDigestEPhPKhm to i8*), i8* bitcast (i1 (%"class.CryptoPP::HashTransformation"*, i8*)* @_ZN8CryptoPP18HashTransformation6VerifyEPKh to i8*), i8* bitcast (i1 (%"class.CryptoPP::HashTransformation"*, i8*, i8*, i64)* @_ZN8CryptoPP18HashTransformation12VerifyDigestEPKhS2_m to i8*), i8* bitcast (void (%"class.CryptoPP::IteratedHashBase"*, i8*, i64)* @_ZN8CryptoPP16IteratedHashBaseIjNS_18HashTransformationEE14TruncatedFinalEPhm to i8*), i8* bitcast (void (%"class.CryptoPP::HashTransformation"*, i8*, i64, i8*, i64)* @_ZN8CryptoPP18HashTransformation24CalculateTruncatedDigestEPhmPKhm to i8*), i8* bitcast (i1 (%"class.CryptoPP::HashTransformation"*, i8*, i64)* @_ZN8CryptoPP18HashTransformation15TruncatedVerifyEPKhm to i8*), i8* bitcast (i1 (%"class.CryptoPP::HashTransformation"*, i8*, i64, i8*, i64)* @_ZN8CryptoPP18HashTransformation21VerifyTruncatedDigestEPKhmS2_m to i8*), i8* bitcast (void ()* @__cxa_pure_virtual to i8*), i8* bitcast (void ()* @__cxa_pure_virtual to i8*), i8* bitcast (void ()* @__cxa_pure_virtual to i8*), i8* bitcast (i64 (%"class.CryptoPP::IteratedHashBase"*, i32*, i64)* @_ZN8CryptoPP16IteratedHashBaseIjNS_18HashTransformationEE18HashMultipleBlocksEPKjm to i8*), i8* bitcast (void ()* @__cxa_pure_virtual to i8*), i8* bitcast (void ()* @__cxa_pure_virtual to i8*)] }, comdat, align 8
@__PRETTY_FUNCTION__._ZN8CryptoPP13NullAllocatorIjE8allocateEmPKv = private unnamed_addr constant [150 x i8] c"CryptoPP::NullAllocator::pointer CryptoPP::NullAllocator<unsigned int>::allocate(CryptoPP::NullAllocator::size_type, const void *) [T = unsigned int]\00", align 1
@.str.7.53 = private unnamed_addr constant [45 x i8] c"(!t.m_ptr && !m_size) || (t.m_ptr && m_size)\00", align 1
@__PRETTY_FUNCTION__._ZN8CryptoPP8SecBlockIjNS_29FixedSizeAllocatorWithCleanupIjLm16ENS_13NullAllocatorIjEELb0EEEEC2ERKS5_ = private unnamed_addr constant [301 x i8] c"CryptoPP::SecBlock<unsigned int, CryptoPP::FixedSizeAllocatorWithCleanup<unsigned int, 16, CryptoPP::NullAllocator<unsigned int>, false> >::SecBlock(const SecBlock<T, A> &) [T = unsigned int, A = CryptoPP::FixedSizeAllocatorWithCleanup<unsigned int, 16, CryptoPP::NullAllocator<unsigned int>, false>]\00", align 1
@.str.11.54 = private unnamed_addr constant [21 x i8] c"sizeInBytes >= count\00", align 1
@.str.9.55 = private unnamed_addr constant [29 x i8] c"/usr/include/cryptopp/misc.h\00", align 1
@__PRETTY_FUNCTION__._ZN8CryptoPP8memcpy_sEPvmPKvm = private unnamed_addr constant [62 x i8] c"void CryptoPP::memcpy_s(void *, size_t, const void *, size_t)\00", align 1
@__PRETTY_FUNCTION__._ZN8CryptoPP8SecBlockIjNS_29FixedSizeAllocatorWithCleanupIjLm16ENS_13NullAllocatorIjEELb1EEEEC2ERKS5_ = private unnamed_addr constant [299 x i8] c"CryptoPP::SecBlock<unsigned int, CryptoPP::FixedSizeAllocatorWithCleanup<unsigned int, 16, CryptoPP::NullAllocator<unsigned int>, true> >::SecBlock(const SecBlock<T, A> &) [T = unsigned int, A = CryptoPP::FixedSizeAllocatorWithCleanup<unsigned int, 16, CryptoPP::NullAllocator<unsigned int>, true>]\00", align 1
@.str.8.56 = private unnamed_addr constant [13 x i8] c"dest != NULL\00", align 1
@_ZTSN8CryptoPP31IteratedHashWithStaticTransformIjNS_10EnumToTypeINS_9ByteOrderELi1EEELj64ELj32ENS_6SHA256ELj32ELb1EEE = linkonce_odr dso_local constant [114 x i8] c"N8CryptoPP31IteratedHashWithStaticTransformIjNS_10EnumToTypeINS_9ByteOrderELi1EEELj64ELj32ENS_6SHA256ELj32ELb1EEE\00", comdat, align 1
@_ZTIN8CryptoPP12ClonableImplINS_6SHA256ENS_13AlgorithmImplINS_12IteratedHashIjNS_10EnumToTypeINS_9ByteOrderELi1EEELj64ENS_18HashTransformationEEES1_EEEE = linkonce_odr dso_local constant { i8*, i8*, i8* } { i8* bitcast (i8** getelementptr inbounds (i8*, i8** @_ZTVN10__cxxabiv120__si_class_type_infoE, i64 2) to i8*), i8* getelementptr inbounds ([149 x i8], [149 x i8]* @_ZTSN8CryptoPP12ClonableImplINS_6SHA256ENS_13AlgorithmImplINS_12IteratedHashIjNS_10EnumToTypeINS_9ByteOrderELi1EEELj64ENS_18HashTransformationEEES1_EEEE, i32 0, i32 0), i8* bitcast ({ i8*, i8*, i8* }* @_ZTIN8CryptoPP13AlgorithmImplINS_12IteratedHashIjNS_10EnumToTypeINS_9ByteOrderELi1EEELj64ENS_18HashTransformationEEENS_6SHA256EEE to i8*) }, comdat, align 8
@_ZTSN8CryptoPP12ClonableImplINS_6SHA256ENS_13AlgorithmImplINS_12IteratedHashIjNS_10EnumToTypeINS_9ByteOrderELi1EEELj64ENS_18HashTransformationEEES1_EEEE = linkonce_odr dso_local constant [149 x i8] c"N8CryptoPP12ClonableImplINS_6SHA256ENS_13AlgorithmImplINS_12IteratedHashIjNS_10EnumToTypeINS_9ByteOrderELi1EEELj64ENS_18HashTransformationEEES1_EEEE\00", comdat, align 1
@_ZTIN8CryptoPP13AlgorithmImplINS_12IteratedHashIjNS_10EnumToTypeINS_9ByteOrderELi1EEELj64ENS_18HashTransformationEEENS_6SHA256EEE = linkonce_odr dso_local constant { i8*, i8*, i8* } { i8* bitcast (i8** getelementptr inbounds (i8*, i8** @_ZTVN10__cxxabiv120__si_class_type_infoE, i64 2) to i8*), i8* getelementptr inbounds ([126 x i8], [126 x i8]* @_ZTSN8CryptoPP13AlgorithmImplINS_12IteratedHashIjNS_10EnumToTypeINS_9ByteOrderELi1EEELj64ENS_18HashTransformationEEENS_6SHA256EEE, i32 0, i32 0), i8* bitcast ({ i8*, i8*, i8* }* @_ZTIN8CryptoPP12IteratedHashIjNS_10EnumToTypeINS_9ByteOrderELi1EEELj64ENS_18HashTransformationEEE to i8*) }, comdat, align 8
@_ZTSN8CryptoPP13AlgorithmImplINS_12IteratedHashIjNS_10EnumToTypeINS_9ByteOrderELi1EEELj64ENS_18HashTransformationEEENS_6SHA256EEE = linkonce_odr dso_local constant [126 x i8] c"N8CryptoPP13AlgorithmImplINS_12IteratedHashIjNS_10EnumToTypeINS_9ByteOrderELi1EEELj64ENS_18HashTransformationEEENS_6SHA256EEE\00", comdat, align 1

; Function Attrs: nounwind uwtable
define dso_local i32 @main(i32, i8**) #0 {
  %3 = alloca %struct.utsname, align 1
  %4 = load i8*, i8** %1, align 8, !tbaa !4
  tail call void @set_program_name(i8* %4) #11
  %5 = tail call i8* @setlocale(i32 6, i8* getelementptr inbounds ([1 x i8], [1 x i8]* @.str.9, i64 0, i64 0)) #11
  %6 = tail call i8* @bindtextdomain(i8* getelementptr inbounds ([10 x i8], [10 x i8]* @.str.10, i64 0, i64 0), i8* getelementptr inbounds ([24 x i8], [24 x i8]* @.str.11, i64 0, i64 0)) #11
  %7 = tail call i8* @textdomain(i8* getelementptr inbounds ([10 x i8], [10 x i8]* @.str.10, i64 0, i64 0)) #11
  %8 = tail call i32 @atexit(void ()* nonnull @close_stdout) #11
  %9 = load i32, i32* @uname_mode, align 4, !tbaa !8
  %10 = icmp eq i32 %9, 2
  br i1 %10, label %11, label %21

11:                                               ; preds = %2
  %12 = tail call i32 @getopt_long(i32 %0, i8** nonnull %1, i8* getelementptr inbounds ([1 x i8], [1 x i8]* @.str.9, i64 0, i64 0), %struct.option* getelementptr inbounds ([3 x %struct.option], [3 x %struct.option]* @arch_long_options, i64 0, i64 0), i32* null) #11
  switch i32 %12, label %20 [
    i32 -1, label %50
    i32 -130, label %13
    i32 -131, label %14
  ]

13:                                               ; preds = %11
  tail call void @usage(i32 0) #21
  unreachable

14:                                               ; preds = %11
  %15 = load %struct._IO_FILE*, %struct._IO_FILE** @stdout, align 8, !tbaa !4
  %16 = load i32, i32* @uname_mode, align 4, !tbaa !8
  %17 = icmp eq i32 %16, 1
  %18 = select i1 %17, i8* getelementptr inbounds ([6 x i8], [6 x i8]* @.str.7, i64 0, i64 0), i8* getelementptr inbounds ([5 x i8], [5 x i8]* @.str.8, i64 0, i64 0)
  %19 = load i8*, i8** @Version, align 8, !tbaa !4
  tail call void (%struct._IO_FILE*, i8*, i8*, i8*, ...) @version_etc(%struct._IO_FILE* %15, i8* %18, i8* getelementptr inbounds ([14 x i8], [14 x i8]* @.str.23, i64 0, i64 0), i8* %19, i8* getelementptr inbounds ([16 x i8], [16 x i8]* @.str.30, i64 0, i64 0), i8* getelementptr inbounds ([10 x i8], [10 x i8]* @.str.31, i64 0, i64 0), i8* null) #11
  tail call void @exit(i32 0) #21
  unreachable

20:                                               ; preds = %11
  tail call void @usage(i32 1) #21
  unreachable

21:                                               ; preds = %40, %2
  %22 = phi i32 [ %41, %40 ], [ 0, %2 ]
  %23 = tail call i32 @getopt_long(i32 %0, i8** %1, i8* getelementptr inbounds ([10 x i8], [10 x i8]* @.str.32, i64 0, i64 0), %struct.option* getelementptr inbounds ([14 x %struct.option], [14 x %struct.option]* @uname_long_options, i64 0, i64 0), i32* null) #11
  switch i32 %23, label %49 [
    i32 -1, label %50
    i32 97, label %40
    i32 115, label %24
    i32 110, label %26
    i32 114, label %28
    i32 118, label %30
    i32 109, label %32
    i32 112, label %34
    i32 105, label %36
    i32 111, label %38
    i32 -130, label %42
    i32 -131, label %43
  ]

24:                                               ; preds = %21
  %25 = or i32 %22, 1
  br label %40

26:                                               ; preds = %21
  %27 = or i32 %22, 2
  br label %40

28:                                               ; preds = %21
  %29 = or i32 %22, 4
  br label %40

30:                                               ; preds = %21
  %31 = or i32 %22, 8
  br label %40

32:                                               ; preds = %21
  %33 = or i32 %22, 16
  br label %40

34:                                               ; preds = %21
  %35 = or i32 %22, 32
  br label %40

36:                                               ; preds = %21
  %37 = or i32 %22, 64
  br label %40

38:                                               ; preds = %21
  %39 = or i32 %22, 128
  br label %40

40:                                               ; preds = %38, %36, %34, %32, %30, %28, %26, %24, %21
  %41 = phi i32 [ %39, %38 ], [ %37, %36 ], [ %35, %34 ], [ %33, %32 ], [ %31, %30 ], [ %29, %28 ], [ %27, %26 ], [ %25, %24 ], [ -1, %21 ]
  br label %21

42:                                               ; preds = %21
  tail call void @usage(i32 0) #21
  unreachable

43:                                               ; preds = %21
  %44 = load %struct._IO_FILE*, %struct._IO_FILE** @stdout, align 8, !tbaa !4
  %45 = load i32, i32* @uname_mode, align 4, !tbaa !8
  %46 = icmp eq i32 %45, 1
  %47 = select i1 %46, i8* getelementptr inbounds ([6 x i8], [6 x i8]* @.str.7, i64 0, i64 0), i8* getelementptr inbounds ([5 x i8], [5 x i8]* @.str.8, i64 0, i64 0)
  %48 = load i8*, i8** @Version, align 8, !tbaa !4
  tail call void (%struct._IO_FILE*, i8*, i8*, i8*, ...) @version_etc(%struct._IO_FILE* %44, i8* %47, i8* getelementptr inbounds ([14 x i8], [14 x i8]* @.str.23, i64 0, i64 0), i8* %48, i8* getelementptr inbounds ([16 x i8], [16 x i8]* @.str.30, i64 0, i64 0), i8* null) #11
  tail call void @exit(i32 0) #21
  unreachable

49:                                               ; preds = %21
  tail call void @usage(i32 1) #21
  unreachable

50:                                               ; preds = %21, %11
  %51 = phi i32 [ 16, %11 ], [ %22, %21 ]
  %52 = load i32, i32* @optind, align 4, !tbaa !8
  %53 = icmp eq i32 %52, %0
  br i1 %53, label %61, label %54

54:                                               ; preds = %50
  %55 = tail call i8* @dcgettext(i8* null, i8* getelementptr inbounds ([17 x i8], [17 x i8]* @.str.33, i64 0, i64 0), i32 5) #11
  %56 = load i32, i32* @optind, align 4, !tbaa !8
  %57 = sext i32 %56 to i64
  %58 = getelementptr inbounds i8*, i8** %1, i64 %57
  %59 = load i8*, i8** %58, align 8, !tbaa !4
  %60 = tail call i8* @quote(i8* %59) #11
  tail call void (i32, i32, i8*, ...) @error(i32 0, i32 0, i8* %55, i8* %60) #11
  tail call void @usage(i32 1) #21
  unreachable

61:                                               ; preds = %50
  %62 = icmp eq i32 %51, 0
  %63 = select i1 %62, i32 1, i32 %51
  %64 = call i32 @_Z10computeFuniiiii(i32 -766021340, i32 22, i32 318414550, i32 553447, i32 328874618)
  %65 = and i32 %63, %64
  %66 = icmp eq i32 %65, 0
  br i1 %66, label %177, label %67

67:                                               ; preds = %61
  %68 = getelementptr inbounds %struct.utsname, %struct.utsname* %3, i64 0, i32 0, i64 0
  call void @llvm.lifetime.start.p0i8(i64 390, i8* nonnull %68) #11
  %69 = call i32 @uname(%struct.utsname* nonnull %3) #11
  %70 = icmp eq i32 %69, -1
  br i1 %70, label %71, label %75

71:                                               ; preds = %67
  %72 = tail call i32* @__errno_location() #22
  %73 = load i32, i32* %72, align 4, !tbaa !8
  %74 = tail call i8* @dcgettext(i8* null, i8* getelementptr inbounds ([23 x i8], [23 x i8]* @.str.12, i64 0, i64 0), i32 5) #11
  tail call void (i32, i32, i8*, ...) @error(i32 1, i32 %73, i8* %74) #11
  unreachable

75:                                               ; preds = %67
  %76 = call i32 @_Z10computeFuniiiii(i32 -402762180, i32 53, i32 1408285915, i32 1, i32 -126648743)
  %77 = and i32 %63, %76
  %78 = icmp eq i32 %77, 0
  br i1 %78, label %95, label %79

79:                                               ; preds = %75
  %80 = load i1, i1* @print_element.printed, align 1
  br i1 %80, label %81, label %92

81:                                               ; preds = %79
  %82 = load %struct._IO_FILE*, %struct._IO_FILE** @stdout, align 8, !tbaa !4
  %83 = getelementptr inbounds %struct._IO_FILE, %struct._IO_FILE* %82, i64 0, i32 5
  %84 = load i8*, i8** %83, align 8, !tbaa !10
  %85 = getelementptr inbounds %struct._IO_FILE, %struct._IO_FILE* %82, i64 0, i32 6
  %86 = load i8*, i8** %85, align 8, !tbaa !14
  %87 = icmp ult i8* %84, %86
  br i1 %87, label %90, label %88, !prof !15

88:                                               ; preds = %81
  %89 = tail call i32 @__overflow(%struct._IO_FILE* %82, i32 32) #11
  br label %92

90:                                               ; preds = %81
  %91 = getelementptr inbounds i8, i8* %84, i64 1
  store i8* %91, i8** %83, align 8, !tbaa !10
  store i8 32, i8* %84, align 1, !tbaa !16
  br label %92

92:                                               ; preds = %90, %88, %79
  store i1 true, i1* @print_element.printed, align 1
  %93 = load %struct._IO_FILE*, %struct._IO_FILE** @stdout, align 8, !tbaa !4
  %94 = call i32 @fputs_unlocked(i8* nonnull %68, %struct._IO_FILE* %93) #11
  br label %95

95:                                               ; preds = %92, %75
  %96 = and i32 %63, 2
  %97 = icmp eq i32 %96, 0
  br i1 %97, label %115, label %98

98:                                               ; preds = %95
  %99 = getelementptr inbounds %struct.utsname, %struct.utsname* %3, i64 0, i32 1, i64 0
  %100 = load i1, i1* @print_element.printed, align 1
  br i1 %100, label %101, label %112

101:                                              ; preds = %98
  %102 = load %struct._IO_FILE*, %struct._IO_FILE** @stdout, align 8, !tbaa !4
  %103 = getelementptr inbounds %struct._IO_FILE, %struct._IO_FILE* %102, i64 0, i32 5
  %104 = load i8*, i8** %103, align 8, !tbaa !10
  %105 = getelementptr inbounds %struct._IO_FILE, %struct._IO_FILE* %102, i64 0, i32 6
  %106 = load i8*, i8** %105, align 8, !tbaa !14
  %107 = icmp ult i8* %104, %106
  br i1 %107, label %110, label %108, !prof !15

108:                                              ; preds = %101
  %109 = tail call i32 @__overflow(%struct._IO_FILE* %102, i32 32) #11
  br label %112

110:                                              ; preds = %101
  %111 = getelementptr inbounds i8, i8* %104, i64 1
  store i8* %111, i8** %103, align 8, !tbaa !10
  store i8 32, i8* %104, align 1, !tbaa !16
  br label %112

112:                                              ; preds = %110, %108, %98
  store i1 true, i1* @print_element.printed, align 1
  %113 = load %struct._IO_FILE*, %struct._IO_FILE** @stdout, align 8, !tbaa !4
  %114 = call i32 @fputs_unlocked(i8* nonnull %99, %struct._IO_FILE* %113) #11
  br label %115

115:                                              ; preds = %112, %95
  %116 = and i32 %63, 4
  %117 = icmp eq i32 %116, 0
  br i1 %117, label %135, label %118

118:                                              ; preds = %115
  %119 = getelementptr inbounds %struct.utsname, %struct.utsname* %3, i64 0, i32 2, i64 0
  %120 = load i1, i1* @print_element.printed, align 1
  br i1 %120, label %121, label %132

121:                                              ; preds = %118
  %122 = load %struct._IO_FILE*, %struct._IO_FILE** @stdout, align 8, !tbaa !4
  %123 = getelementptr inbounds %struct._IO_FILE, %struct._IO_FILE* %122, i64 0, i32 5
  %124 = load i8*, i8** %123, align 8, !tbaa !10
  %125 = getelementptr inbounds %struct._IO_FILE, %struct._IO_FILE* %122, i64 0, i32 6
  %126 = load i8*, i8** %125, align 8, !tbaa !14
  %127 = icmp ult i8* %124, %126
  br i1 %127, label %130, label %128, !prof !15

128:                                              ; preds = %121
  %129 = tail call i32 @__overflow(%struct._IO_FILE* %122, i32 32) #11
  br label %132

130:                                              ; preds = %121
  %131 = getelementptr inbounds i8, i8* %124, i64 1
  store i8* %131, i8** %123, align 8, !tbaa !10
  store i8 32, i8* %124, align 1, !tbaa !16
  br label %132

132:                                              ; preds = %130, %128, %118
  store i1 true, i1* @print_element.printed, align 1
  %133 = load %struct._IO_FILE*, %struct._IO_FILE** @stdout, align 8, !tbaa !4
  %134 = call i32 @fputs_unlocked(i8* nonnull %119, %struct._IO_FILE* %133) #11
  br label %135

135:                                              ; preds = %132, %115
  %136 = call i32 @_Z10computeFuniiiii(i32 33748606, i32 33, i32 1256607749, i32 6, i32 -126648736)
  %137 = and i32 %63, %136
  %138 = icmp eq i32 %137, 0
  br i1 %138, label %156, label %139

139:                                              ; preds = %135
  %140 = getelementptr inbounds %struct.utsname, %struct.utsname* %3, i64 0, i32 3, i64 0
  %141 = load i1, i1* @print_element.printed, align 1
  br i1 %141, label %142, label %153

142:                                              ; preds = %139
  %143 = load %struct._IO_FILE*, %struct._IO_FILE** @stdout, align 8, !tbaa !4
  %144 = getelementptr inbounds %struct._IO_FILE, %struct._IO_FILE* %143, i64 0, i32 5
  %145 = load i8*, i8** %144, align 8, !tbaa !10
  %146 = getelementptr inbounds %struct._IO_FILE, %struct._IO_FILE* %143, i64 0, i32 6
  %147 = load i8*, i8** %146, align 8, !tbaa !14
  %148 = icmp ult i8* %145, %147
  br i1 %148, label %151, label %149, !prof !15

149:                                              ; preds = %142
  %150 = tail call i32 @__overflow(%struct._IO_FILE* %143, i32 32) #11
  br label %153

151:                                              ; preds = %142
  %152 = getelementptr inbounds i8, i8* %145, i64 1
  store i8* %152, i8** %144, align 8, !tbaa !10
  store i8 32, i8* %145, align 1, !tbaa !16
  br label %153

153:                                              ; preds = %151, %149, %139
  store i1 true, i1* @print_element.printed, align 1
  %154 = load %struct._IO_FILE*, %struct._IO_FILE** @stdout, align 8, !tbaa !4
  %155 = call i32 @fputs_unlocked(i8* nonnull %140, %struct._IO_FILE* %154) #11
  br label %156

156:                                              ; preds = %153, %135
  %157 = and i32 %63, 16
  %158 = icmp eq i32 %157, 0
  br i1 %158, label %176, label %159

159:                                              ; preds = %156
  %160 = getelementptr inbounds %struct.utsname, %struct.utsname* %3, i64 0, i32 4, i64 0
  %161 = load i1, i1* @print_element.printed, align 1
  br i1 %161, label %162, label %173

162:                                              ; preds = %159
  %163 = load %struct._IO_FILE*, %struct._IO_FILE** @stdout, align 8, !tbaa !4
  %164 = getelementptr inbounds %struct._IO_FILE, %struct._IO_FILE* %163, i64 0, i32 5
  %165 = load i8*, i8** %164, align 8, !tbaa !10
  %166 = getelementptr inbounds %struct._IO_FILE, %struct._IO_FILE* %163, i64 0, i32 6
  %167 = load i8*, i8** %166, align 8, !tbaa !14
  %168 = icmp ult i8* %165, %167
  br i1 %168, label %171, label %169, !prof !15

169:                                              ; preds = %162
  %170 = tail call i32 @__overflow(%struct._IO_FILE* %163, i32 32) #11
  br label %173

171:                                              ; preds = %162
  %172 = getelementptr inbounds i8, i8* %165, i64 1
  store i8* %172, i8** %164, align 8, !tbaa !10
  store i8 32, i8* %165, align 1, !tbaa !16
  br label %173

173:                                              ; preds = %171, %169, %159
  store i1 true, i1* @print_element.printed, align 1
  %174 = load %struct._IO_FILE*, %struct._IO_FILE** @stdout, align 8, !tbaa !4
  %175 = call i32 @fputs_unlocked(i8* nonnull %160, %struct._IO_FILE* %174) #11
  br label %176

176:                                              ; preds = %173, %156
  call void @llvm.lifetime.end.p0i8(i64 390, i8* nonnull %68) #11
  br label %177

177:                                              ; preds = %176, %61
  %178 = call i32 @_Z10computeFuniiiii(i32 1863425747, i32 28, i32 204533733, i32 178, i32 -495840112)
  %179 = and i32 %63, %178
  %180 = icmp eq i32 %179, 0
  %181 = icmp eq i32 %63, -1
  %182 = or i1 %181, %180
  br i1 %182, label %199, label %183

183:                                              ; preds = %177
  %184 = load i1, i1* @print_element.printed, align 1
  br i1 %184, label %185, label %196

185:                                              ; preds = %183
  %186 = load %struct._IO_FILE*, %struct._IO_FILE** @stdout, align 8, !tbaa !4
  %187 = getelementptr inbounds %struct._IO_FILE, %struct._IO_FILE* %186, i64 0, i32 5
  %188 = load i8*, i8** %187, align 8, !tbaa !10
  %189 = getelementptr inbounds %struct._IO_FILE, %struct._IO_FILE* %186, i64 0, i32 6
  %190 = load i8*, i8** %189, align 8, !tbaa !14
  %191 = icmp ult i8* %188, %190
  br i1 %191, label %194, label %192, !prof !15

192:                                              ; preds = %185
  %193 = tail call i32 @__overflow(%struct._IO_FILE* %186, i32 32) #11
  br label %196

194:                                              ; preds = %185
  %195 = getelementptr inbounds i8, i8* %188, i64 1
  store i8* %195, i8** %187, align 8, !tbaa !10
  store i8 32, i8* %188, align 1, !tbaa !16
  br label %196

196:                                              ; preds = %194, %192, %183
  store i1 true, i1* @print_element.printed, align 1
  %197 = load %struct._IO_FILE*, %struct._IO_FILE** @stdout, align 8, !tbaa !4
  %198 = tail call i32 @fputs_unlocked(i8* getelementptr inbounds ([8 x i8], [8 x i8]* @main.unknown, i64 0, i64 0), %struct._IO_FILE* %197) #11
  br label %199

199:                                              ; preds = %196, %177
  %200 = call i32 @_Z10computeFuniiiii(i32 -1163198255, i32 7, i32 -1595587370, i32 167676, i32 -495840080)
  %201 = and i32 %63, %200
  %202 = icmp eq i32 %201, 0
  %203 = or i1 %181, %202
  br i1 %203, label %220, label %204

204:                                              ; preds = %199
  %205 = load i1, i1* @print_element.printed, align 1
  br i1 %205, label %206, label %217

206:                                              ; preds = %204
  %207 = load %struct._IO_FILE*, %struct._IO_FILE** @stdout, align 8, !tbaa !4
  %208 = getelementptr inbounds %struct._IO_FILE, %struct._IO_FILE* %207, i64 0, i32 5
  %209 = load i8*, i8** %208, align 8, !tbaa !10
  %210 = getelementptr inbounds %struct._IO_FILE, %struct._IO_FILE* %207, i64 0, i32 6
  %211 = load i8*, i8** %210, align 8, !tbaa !14
  %212 = icmp ult i8* %209, %211
  br i1 %212, label %215, label %213, !prof !15

213:                                              ; preds = %206
  %214 = tail call i32 @__overflow(%struct._IO_FILE* %207, i32 32) #11
  br label %217

215:                                              ; preds = %206
  %216 = getelementptr inbounds i8, i8* %209, i64 1
  store i8* %216, i8** %208, align 8, !tbaa !10
  store i8 32, i8* %209, align 1, !tbaa !16
  br label %217

217:                                              ; preds = %215, %213, %204
  store i1 true, i1* @print_element.printed, align 1
  %218 = load %struct._IO_FILE*, %struct._IO_FILE** @stdout, align 8, !tbaa !4
  %219 = tail call i32 @fputs_unlocked(i8* getelementptr inbounds ([8 x i8], [8 x i8]* @main.unknown, i64 0, i64 0), %struct._IO_FILE* %218) #11
  br label %220

220:                                              ; preds = %217, %199
  %221 = trunc i32 %63 to i8
  %222 = icmp slt i8 %221, 0
  br i1 %222, label %223, label %239

223:                                              ; preds = %220
  %224 = load i1, i1* @print_element.printed, align 1
  br i1 %224, label %225, label %236

225:                                              ; preds = %223
  %226 = load %struct._IO_FILE*, %struct._IO_FILE** @stdout, align 8, !tbaa !4
  %227 = getelementptr inbounds %struct._IO_FILE, %struct._IO_FILE* %226, i64 0, i32 5
  %228 = load i8*, i8** %227, align 8, !tbaa !10
  %229 = getelementptr inbounds %struct._IO_FILE, %struct._IO_FILE* %226, i64 0, i32 6
  %230 = load i8*, i8** %229, align 8, !tbaa !14
  %231 = icmp ult i8* %228, %230
  br i1 %231, label %234, label %232, !prof !15

232:                                              ; preds = %225
  %233 = tail call i32 @__overflow(%struct._IO_FILE* %226, i32 32) #11
  br label %236

234:                                              ; preds = %225
  %235 = getelementptr inbounds i8, i8* %228, i64 1
  store i8* %235, i8** %227, align 8, !tbaa !10
  store i8 32, i8* %228, align 1, !tbaa !16
  br label %236

236:                                              ; preds = %234, %232, %223
  store i1 true, i1* @print_element.printed, align 1
  %237 = load %struct._IO_FILE*, %struct._IO_FILE** @stdout, align 8, !tbaa !4
  %238 = tail call i32 @fputs_unlocked(i8* getelementptr inbounds ([10 x i8], [10 x i8]* @.str.13, i64 0, i64 0), %struct._IO_FILE* %237) #11
  br label %239

239:                                              ; preds = %236, %220
  %240 = load %struct._IO_FILE*, %struct._IO_FILE** @stdout, align 8, !tbaa !4
  %241 = getelementptr inbounds %struct._IO_FILE, %struct._IO_FILE* %240, i64 0, i32 5
  %242 = load i8*, i8** %241, align 8, !tbaa !10
  %243 = getelementptr inbounds %struct._IO_FILE, %struct._IO_FILE* %240, i64 0, i32 6
  %244 = load i8*, i8** %243, align 8, !tbaa !14
  %245 = icmp ult i8* %242, %244
  br i1 %245, label %248, label %246, !prof !15

246:                                              ; preds = %239
  %247 = tail call i32 @__overflow(%struct._IO_FILE* %240, i32 10) #11
  br label %250

248:                                              ; preds = %239
  %249 = getelementptr inbounds i8, i8* %242, i64 1
  store i8* %249, i8** %241, align 8, !tbaa !10
  store i8 10, i8* %242, align 1, !tbaa !16
  br label %250

250:                                              ; preds = %248, %246
  ret i32 0
}

; Function Attrs: nounwind uwtable
define internal void @set_program_name(i8*) #0 {
  %2 = icmp eq i8* %0, null
  br i1 %2, label %3, label %6

3:                                                ; preds = %1
  %4 = load %struct._IO_FILE*, %struct._IO_FILE** @stderr, align 8, !tbaa !4
  %5 = tail call i64 @fwrite(i8* getelementptr inbounds ([56 x i8], [56 x i8]* @.str.57, i64 0, i64 0), i64 55, i64 1, %struct._IO_FILE* %4) #23
  tail call void @abort() #21
  unreachable

6:                                                ; preds = %1
  %7 = tail call i8* @strrchr(i8* nonnull %0, i32 47) #24
  %8 = icmp eq i8* %7, null
  %9 = getelementptr inbounds i8, i8* %7, i64 1
  %10 = select i1 %8, i8* %0, i8* %9
  %11 = ptrtoint i8* %10 to i64
  %12 = ptrtoint i8* %0 to i64
  %13 = sub i64 %11, %12
  %14 = icmp sgt i64 %13, 6
  br i1 %14, label %15, label %24

15:                                               ; preds = %6
  %16 = getelementptr inbounds i8, i8* %10, i64 -7
  %17 = tail call i32 @strncmp(i8* nonnull %16, i8* getelementptr inbounds ([8 x i8], [8 x i8]* @.str.1.58, i64 0, i64 0), i64 7) #24
  %18 = icmp eq i32 %17, 0
  br i1 %18, label %19, label %24

19:                                               ; preds = %15
  %20 = tail call i32 @strncmp(i8* nonnull %10, i8* getelementptr inbounds ([4 x i8], [4 x i8]* @.str.2.59, i64 0, i64 0), i64 3) #24
  %21 = icmp eq i32 %20, 0
  br i1 %21, label %22, label %24

22:                                               ; preds = %19
  %23 = getelementptr inbounds i8, i8* %10, i64 3
  store i8* %23, i8** @program_invocation_short_name, align 8, !tbaa !4
  br label %24

24:                                               ; preds = %22, %19, %15, %6
  %25 = phi i8* [ %23, %22 ], [ %10, %19 ], [ %0, %15 ], [ %0, %6 ]
  store i8* %25, i8** @program_name, align 8, !tbaa !4
  store i8* %25, i8** @program_invocation_name, align 8, !tbaa !4
  ret void
}

; Function Attrs: nounwind
declare dso_local i8* @setlocale(i32, i8*) local_unnamed_addr #1

; Function Attrs: nounwind
declare dso_local i8* @bindtextdomain(i8*, i8*) local_unnamed_addr #1

; Function Attrs: nounwind
declare dso_local i8* @textdomain(i8*) local_unnamed_addr #1

; Function Attrs: nounwind uwtable
define internal void @close_stdout() #0 {
  %1 = load %struct._IO_FILE*, %struct._IO_FILE** @stdout, align 8, !tbaa !4
  %2 = tail call i32 @close_stream(%struct._IO_FILE* %1) #11
  %3 = icmp eq i32 %2, 0
  br i1 %3, label %22, label %4

4:                                                ; preds = %0
  %5 = load i8, i8* @ignore_EPIPE, align 1, !tbaa !17, !range !19
  %6 = icmp eq i8 %5, 0
  br i1 %6, label %11, label %7

7:                                                ; preds = %4
  %8 = tail call i32* @__errno_location() #22
  %9 = load i32, i32* %8, align 4, !tbaa !8
  %10 = icmp eq i32 %9, 32
  br i1 %10, label %22, label %11

11:                                               ; preds = %7, %4
  %12 = tail call i8* @dcgettext(i8* null, i8* getelementptr inbounds ([12 x i8], [12 x i8]* @.str.50, i64 0, i64 0), i32 5) #11
  %13 = load i8*, i8** @file_name, align 8, !tbaa !4
  %14 = icmp eq i8* %13, null
  %15 = tail call i32* @__errno_location() #22
  %16 = load i32, i32* %15, align 4, !tbaa !8
  br i1 %14, label %19, label %17

17:                                               ; preds = %11
  %18 = tail call i8* @quotearg_colon(i8* nonnull %13) #11
  tail call void (i32, i32, i8*, ...) @error(i32 0, i32 %16, i8* getelementptr inbounds ([7 x i8], [7 x i8]* @.str.1.51, i64 0, i64 0), i8* %18, i8* %12) #11
  br label %20

19:                                               ; preds = %11
  tail call void (i32, i32, i8*, ...) @error(i32 0, i32 %16, i8* getelementptr inbounds ([3 x i8], [3 x i8]* @.str.2.52, i64 0, i64 0), i8* %12) #11
  br label %20

20:                                               ; preds = %19, %17
  %21 = load volatile i32, i32* @exit_failure, align 4, !tbaa !8
  tail call void @_exit(i32 %21) #21
  unreachable

22:                                               ; preds = %7, %0
  %23 = load %struct._IO_FILE*, %struct._IO_FILE** @stderr, align 8, !tbaa !4
  %24 = tail call i32 @close_stream(%struct._IO_FILE* %23) #11
  %25 = icmp eq i32 %24, 0
  br i1 %25, label %28, label %26

26:                                               ; preds = %22
  %27 = load volatile i32, i32* @exit_failure, align 4, !tbaa !8
  tail call void @_exit(i32 %27) #21
  unreachable

28:                                               ; preds = %22
  ret void
}

; Function Attrs: nounwind
declare dso_local i32 @atexit(void ()*) local_unnamed_addr #1

; Function Attrs: nounwind
declare dso_local i32 @getopt_long(i32, i8**, i8*, %struct.option*, i32*) local_unnamed_addr #1

; Function Attrs: noreturn nounwind uwtable
define internal void @usage(i32) #2 {
  %2 = alloca [7 x %struct.infomap], align 16
  %3 = icmp eq i32 %0, 0
  br i1 %3, label %9, label %4

4:                                                ; preds = %1
  %5 = load %struct._IO_FILE*, %struct._IO_FILE** @stderr, align 8, !tbaa !4
  %6 = tail call i8* @dcgettext(i8* null, i8* getelementptr inbounds ([39 x i8], [39 x i8]* @.str, i64 0, i64 0), i32 5) #11
  %7 = load i8*, i8** @program_name, align 8, !tbaa !4
  %8 = tail call i32 (%struct._IO_FILE*, i32, i8*, ...) @__fprintf_chk(%struct._IO_FILE* %5, i32 1, i8* %6, i8* %7) #11
  br label %69

9:                                                ; preds = %1
  %10 = tail call i8* @dcgettext(i8* null, i8* getelementptr inbounds ([23 x i8], [23 x i8]* @.str.1, i64 0, i64 0), i32 5) #11
  %11 = load i8*, i8** @program_name, align 8, !tbaa !4
  %12 = tail call i32 (i32, i8*, ...) @__printf_chk(i32 1, i8* %10, i8* %11) #11
  %13 = load i32, i32* @uname_mode, align 4, !tbaa !8
  %14 = icmp eq i32 %13, 1
  br i1 %14, label %15, label %19

15:                                               ; preds = %9
  %16 = tail call i8* @dcgettext(i8* null, i8* getelementptr inbounds ([362 x i8], [362 x i8]* @.str.2, i64 0, i64 0), i32 5) #11
  %17 = load %struct._IO_FILE*, %struct._IO_FILE** @stdout, align 8, !tbaa !4
  %18 = tail call i32 @fputs_unlocked(i8* %16, %struct._IO_FILE* %17)
  br label %19

19:                                               ; preds = %15, %9
  %20 = phi i8* [ getelementptr inbounds ([303 x i8], [303 x i8]* @.str.3, i64 0, i64 0), %15 ], [ getelementptr inbounds ([30 x i8], [30 x i8]* @.str.4, i64 0, i64 0), %9 ]
  %21 = tail call i8* @dcgettext(i8* null, i8* %20, i32 5) #11
  %22 = load %struct._IO_FILE*, %struct._IO_FILE** @stdout, align 8, !tbaa !4
  %23 = tail call i32 @fputs_unlocked(i8* %21, %struct._IO_FILE* %22)
  %24 = tail call i8* @dcgettext(i8* null, i8* getelementptr inbounds ([45 x i8], [45 x i8]* @.str.5, i64 0, i64 0), i32 5) #11
  %25 = load %struct._IO_FILE*, %struct._IO_FILE** @stdout, align 8, !tbaa !4
  %26 = tail call i32 @fputs_unlocked(i8* %24, %struct._IO_FILE* %25)
  %27 = tail call i8* @dcgettext(i8* null, i8* getelementptr inbounds ([54 x i8], [54 x i8]* @.str.6, i64 0, i64 0), i32 5) #11
  %28 = load %struct._IO_FILE*, %struct._IO_FILE** @stdout, align 8, !tbaa !4
  %29 = tail call i32 @fputs_unlocked(i8* %27, %struct._IO_FILE* %28)
  %30 = load i32, i32* @uname_mode, align 4, !tbaa !8
  %31 = icmp eq i32 %30, 1
  %32 = select i1 %31, i8* getelementptr inbounds ([6 x i8], [6 x i8]* @.str.7, i64 0, i64 0), i8* getelementptr inbounds ([5 x i8], [5 x i8]* @.str.8, i64 0, i64 0)
  %33 = bitcast [7 x %struct.infomap]* %2 to i8*
  call void @llvm.lifetime.start.p0i8(i64 112, i8* nonnull %33) #11
  call void @llvm.memcpy.p0i8.p0i8.i64(i8* nonnull align 16 %33, i8* align 16 bitcast ([7 x %struct.infomap]* @__const.emit_ancillary_info.infomap to i8*), i64 112, i1 false) #11
  %34 = getelementptr inbounds [7 x %struct.infomap], [7 x %struct.infomap]* %2, i64 0, i64 0
  br label %35

35:                                               ; preds = %40, %19
  %36 = phi i8* [ %43, %40 ], [ getelementptr inbounds ([2 x i8], [2 x i8]* @.str.14, i64 0, i64 0), %19 ]
  %37 = phi %struct.infomap* [ %41, %40 ], [ %34, %19 ]
  %38 = tail call i32 @strcmp(i8* %32, i8* nonnull %36) #24
  %39 = icmp eq i32 %38, 0
  br i1 %39, label %45, label %40

40:                                               ; preds = %35
  %41 = getelementptr inbounds %struct.infomap, %struct.infomap* %37, i64 1
  %42 = getelementptr inbounds %struct.infomap, %struct.infomap* %41, i64 0, i32 0
  %43 = load i8*, i8** %42, align 8, !tbaa !20
  %44 = icmp eq i8* %43, null
  br i1 %44, label %45, label %35

45:                                               ; preds = %40, %35
  %46 = phi %struct.infomap* [ %41, %40 ], [ %37, %35 ]
  %47 = getelementptr inbounds %struct.infomap, %struct.infomap* %46, i64 0, i32 1
  %48 = load i8*, i8** %47, align 8, !tbaa !22
  %49 = icmp eq i8* %48, null
  %50 = select i1 %49, i8* %32, i8* %48
  %51 = tail call i8* @dcgettext(i8* null, i8* getelementptr inbounds ([23 x i8], [23 x i8]* @.str.22, i64 0, i64 0), i32 5) #11
  %52 = tail call i32 (i32, i8*, ...) @__printf_chk(i32 1, i8* %51, i8* getelementptr inbounds ([14 x i8], [14 x i8]* @.str.23, i64 0, i64 0), i8* getelementptr inbounds ([40 x i8], [40 x i8]* @.str.24, i64 0, i64 0)) #11
  %53 = tail call i8* @setlocale(i32 5, i8* null) #11
  %54 = icmp eq i8* %53, null
  br i1 %54, label %62, label %55

55:                                               ; preds = %45
  %56 = tail call i32 @strncmp(i8* nonnull %53, i8* getelementptr inbounds ([4 x i8], [4 x i8]* @.str.25, i64 0, i64 0), i64 3) #24
  %57 = icmp eq i32 %56, 0
  br i1 %57, label %62, label %58

58:                                               ; preds = %55
  %59 = tail call i8* @dcgettext(i8* null, i8* getelementptr inbounds ([71 x i8], [71 x i8]* @.str.26, i64 0, i64 0), i32 5) #11
  %60 = load %struct._IO_FILE*, %struct._IO_FILE** @stdout, align 8, !tbaa !4
  %61 = tail call i32 @fputs_unlocked(i8* %59, %struct._IO_FILE* %60) #11
  br label %62

62:                                               ; preds = %58, %55, %45
  %63 = tail call i8* @dcgettext(i8* null, i8* getelementptr inbounds ([27 x i8], [27 x i8]* @.str.27, i64 0, i64 0), i32 5) #11
  %64 = tail call i32 (i32, i8*, ...) @__printf_chk(i32 1, i8* %63, i8* getelementptr inbounds ([40 x i8], [40 x i8]* @.str.24, i64 0, i64 0), i8* %32) #11
  %65 = tail call i8* @dcgettext(i8* null, i8* getelementptr inbounds ([51 x i8], [51 x i8]* @.str.28, i64 0, i64 0), i32 5) #11
  %66 = icmp eq i8* %50, %32
  %67 = select i1 %66, i8* getelementptr inbounds ([12 x i8], [12 x i8]* @.str.29, i64 0, i64 0), i8* getelementptr inbounds ([1 x i8], [1 x i8]* @.str.9, i64 0, i64 0)
  %68 = tail call i32 (i32, i8*, ...) @__printf_chk(i32 1, i8* %65, i8* %50, i8* %67) #11
  call void @llvm.lifetime.end.p0i8(i64 112, i8* nonnull %33) #11
  br label %69

69:                                               ; preds = %62, %4
  tail call void @exit(i32 %0) #21
  unreachable
}

; Function Attrs: nounwind uwtable
define internal void @version_etc(%struct._IO_FILE*, i8*, i8*, i8*, ...) #0 {
  %5 = alloca [1 x %struct.__va_list_tag], align 16
  %6 = bitcast [1 x %struct.__va_list_tag]* %5 to i8*
  call void @llvm.lifetime.start.p0i8(i64 24, i8* nonnull %6) #11
  %7 = getelementptr inbounds [1 x %struct.__va_list_tag], [1 x %struct.__va_list_tag]* %5, i64 0, i64 0
  call void @llvm.va_start(i8* nonnull %6)
  call void @version_etc_va(%struct._IO_FILE* %0, i8* %1, i8* %2, i8* %3, %struct.__va_list_tag* nonnull %7)
  call void @llvm.va_end(i8* nonnull %6)
  call void @llvm.lifetime.end.p0i8(i64 24, i8* nonnull %6) #11
  ret void
}

; Function Attrs: noreturn nounwind
declare dso_local void @exit(i32) local_unnamed_addr #3

; Function Attrs: nounwind
declare dso_local i8* @dcgettext(i8*, i8*, i32) local_unnamed_addr #1

; Function Attrs: nounwind uwtable
define internal i8* @quote(i8*) #0 {
  %2 = tail call fastcc i8* @quotearg_n_options(i32 0, i8* %0, i64 -1, %struct.quoting_options* nonnull @quote_quoting_options) #11
  ret i8* %2
}

declare dso_local void @error(i32, i32, i8*, ...) local_unnamed_addr #4

; Function Attrs: argmemonly nounwind
declare void @llvm.lifetime.start.p0i8(i64 immarg, i8* nocapture) #5

; Function Attrs: nofree nounwind
declare dso_local i32 @uname(%struct.utsname* nocapture) local_unnamed_addr #6

; Function Attrs: nounwind readnone
declare dso_local i32* @__errno_location() local_unnamed_addr #7

declare dso_local i32 @__overflow(%struct._IO_FILE*, i32) local_unnamed_addr #4

; Function Attrs: nofree nounwind
declare dso_local i32 @fputs_unlocked(i8* nocapture readonly, %struct._IO_FILE* nocapture) local_unnamed_addr #6

; Function Attrs: argmemonly nounwind
declare void @llvm.lifetime.end.p0i8(i64 immarg, i8* nocapture) #5

; Function Attrs: nounwind uwtable
define internal fastcc i8* @quotearg_n_options(i32, i8*, i64, %struct.quoting_options*) unnamed_addr #0 {
  %5 = tail call i32* @__errno_location() #22
  %6 = load i32, i32* %5, align 4, !tbaa !8
  %7 = load %struct.slotvec*, %struct.slotvec** @slotvec, align 8, !tbaa !4
  %8 = icmp slt i32 %0, 0
  br i1 %8, label %9, label %10

9:                                                ; preds = %4
  tail call void @abort() #21
  unreachable

10:                                               ; preds = %4
  %11 = load i32, i32* @nslots, align 4, !tbaa !8
  %12 = icmp sgt i32 %11, %0
  br i1 %12, label %34, label %13

13:                                               ; preds = %10
  %14 = icmp eq %struct.slotvec* %7, @slotvec0
  %15 = icmp eq i32 %0, 2147483647
  br i1 %15, label %16, label %17

16:                                               ; preds = %13
  tail call void @xalloc_die() #21
  unreachable

17:                                               ; preds = %13
  %18 = select i1 %14, %struct.slotvec* null, %struct.slotvec* %7
  %19 = bitcast %struct.slotvec* %18 to i8*
  %20 = add nuw nsw i32 %0, 1
  %21 = sext i32 %20 to i64
  %22 = shl nsw i64 %21, 4
  %23 = tail call i8* @xrealloc(i8* %19, i64 %22) #11
  %24 = bitcast i8* %23 to %struct.slotvec*
  store i8* %23, i8** bitcast (%struct.slotvec** @slotvec to i8**), align 8, !tbaa !4
  br i1 %14, label %25, label %26

25:                                               ; preds = %17
  tail call void @llvm.memcpy.p0i8.p0i8.i64(i8* align 8 %23, i8* align 8 bitcast (%struct.slotvec* @slotvec0 to i8*), i64 16, i1 false), !tbaa.struct !23
  br label %26

26:                                               ; preds = %25, %17
  %27 = load i32, i32* @nslots, align 4, !tbaa !8
  %28 = sext i32 %27 to i64
  %29 = getelementptr inbounds %struct.slotvec, %struct.slotvec* %24, i64 %28
  %30 = bitcast %struct.slotvec* %29 to i8*
  %31 = sub nsw i32 %20, %27
  %32 = sext i32 %31 to i64
  %33 = shl nsw i64 %32, 4
  tail call void @llvm.memset.p0i8.i64(i8* align 8 %30, i8 0, i64 %33, i1 false)
  store i32 %20, i32* @nslots, align 4, !tbaa !8
  br label %34

34:                                               ; preds = %26, %10
  %35 = phi %struct.slotvec* [ %24, %26 ], [ %7, %10 ]
  %36 = sext i32 %0 to i64
  %37 = getelementptr inbounds %struct.slotvec, %struct.slotvec* %35, i64 %36, i32 0
  %38 = load i64, i64* %37, align 8, !tbaa !25
  %39 = getelementptr inbounds %struct.slotvec, %struct.slotvec* %35, i64 %36, i32 1
  %40 = load i8*, i8** %39, align 8, !tbaa !27
  %41 = getelementptr inbounds %struct.quoting_options, %struct.quoting_options* %3, i64 0, i32 1
  %42 = load i32, i32* %41, align 4, !tbaa !28
  %43 = or i32 %42, 1
  %44 = getelementptr inbounds %struct.quoting_options, %struct.quoting_options* %3, i64 0, i32 0
  %45 = load i32, i32* %44, align 8, !tbaa !30
  %46 = getelementptr inbounds %struct.quoting_options, %struct.quoting_options* %3, i64 0, i32 2, i64 0
  %47 = getelementptr inbounds %struct.quoting_options, %struct.quoting_options* %3, i64 0, i32 3
  %48 = load i8*, i8** %47, align 8, !tbaa !31
  %49 = getelementptr inbounds %struct.quoting_options, %struct.quoting_options* %3, i64 0, i32 4
  %50 = load i8*, i8** %49, align 8, !tbaa !32
  %51 = tail call fastcc i64 @quotearg_buffer_restyled(i8* %40, i64 %38, i8* %1, i64 %2, i32 %45, i32 %43, i32* nonnull %46, i8* %48, i8* %50)
  %52 = icmp ugt i64 %38, %51
  br i1 %52, label %63, label %53

53:                                               ; preds = %34
  %54 = add i64 %51, 1
  store i64 %54, i64* %37, align 8, !tbaa !25
  %55 = icmp eq i8* %40, getelementptr inbounds ([256 x i8], [256 x i8]* @slot0, i64 0, i64 0)
  br i1 %55, label %57, label %56

56:                                               ; preds = %53
  tail call void @free(i8* %40) #11
  br label %57

57:                                               ; preds = %56, %53
  %58 = tail call noalias i8* @xmalloc(i64 %54) #11
  store i8* %58, i8** %39, align 8, !tbaa !27
  %59 = load i32, i32* %44, align 8, !tbaa !30
  %60 = load i8*, i8** %47, align 8, !tbaa !31
  %61 = load i8*, i8** %49, align 8, !tbaa !32
  %62 = tail call fastcc i64 @quotearg_buffer_restyled(i8* %58, i64 %54, i8* %1, i64 %2, i32 %59, i32 %43, i32* nonnull %46, i8* %60, i8* %61)
  br label %63

63:                                               ; preds = %57, %34
  %64 = phi i8* [ %58, %57 ], [ %40, %34 ]
  store i32 %6, i32* %5, align 4, !tbaa !8
  ret i8* %64
}

; Function Attrs: noreturn nounwind
declare dso_local void @abort() local_unnamed_addr #3

; Function Attrs: noreturn nounwind uwtable
define internal void @xalloc_die() #2 {
  %1 = load volatile i32, i32* @exit_failure, align 4, !tbaa !8
  %2 = tail call i8* @dcgettext(i8* null, i8* getelementptr inbounds ([17 x i8], [17 x i8]* @.str.1.99, i64 0, i64 0), i32 5) #11
  tail call void (i32, i32, i8*, ...) @error(i32 %1, i32 0, i8* getelementptr inbounds ([3 x i8], [3 x i8]* @.str.100, i64 0, i64 0), i8* %2) #11
  tail call void @abort() #21
  unreachable
}

; Function Attrs: nounwind uwtable
define internal noalias i8* @xrealloc(i8*, i64) #0 {
  %3 = icmp eq i64 %1, 0
  %4 = icmp ne i8* %0, null
  %5 = and i1 %4, %3
  br i1 %5, label %6, label %7

6:                                                ; preds = %2
  tail call void @free(i8* nonnull %0) #11
  br label %13

7:                                                ; preds = %2
  %8 = tail call i8* @realloc(i8* %0, i64 %1) #11
  %9 = icmp eq i8* %8, null
  %10 = icmp ne i64 %1, 0
  %11 = and i1 %10, %9
  br i1 %11, label %12, label %13

12:                                               ; preds = %7
  tail call void @xalloc_die() #21
  unreachable

13:                                               ; preds = %7, %6
  %14 = phi i8* [ null, %6 ], [ %8, %7 ]
  ret i8* %14
}

; Function Attrs: argmemonly nounwind
declare void @llvm.memcpy.p0i8.p0i8.i64(i8* nocapture writeonly, i8* nocapture readonly, i64, i1 immarg) #5

; Function Attrs: argmemonly nounwind
declare void @llvm.memset.p0i8.i64(i8* nocapture writeonly, i8, i64, i1 immarg) #5

; Function Attrs: nounwind uwtable
define internal fastcc i64 @quotearg_buffer_restyled(i8*, i64, i8*, i64, i32, i32, i32* readonly, i8* readonly, i8* readonly) unnamed_addr #0 {
  %10 = alloca i64, align 8
  %11 = bitcast i64* %10 to %struct.__mbstate_t*
  %12 = alloca i32, align 4
  %13 = tail call i64 @__ctype_get_mb_cur_max() #11
  %14 = icmp eq i64 %13, 1
  %15 = lshr i32 %5, 1
  %16 = trunc i32 %15 to i8
  %17 = and i8 %16, 1
  %18 = getelementptr inbounds i8, i8* %2, i64 1
  %19 = and i32 %5, 4
  %20 = icmp eq i32 %19, 0
  %21 = and i32 %5, 1
  %22 = icmp eq i32 %21, 0
  %23 = bitcast i64* %10 to i8*
  %24 = bitcast i32* %12 to i8*
  %25 = icmp eq i32* %6, null
  br label %26

26:                                               ; preds = %596, %9
  %27 = phi i32 [ %4, %9 ], [ 2, %596 ]
  %28 = phi i8* [ %7, %9 ], [ %94, %596 ]
  %29 = phi i8* [ %8, %9 ], [ %95, %596 ]
  %30 = phi i64 [ 0, %9 ], [ %125, %596 ]
  %31 = phi i8* [ null, %9 ], [ %97, %596 ]
  %32 = phi i64 [ 0, %9 ], [ %98, %596 ]
  %33 = phi i8 [ 0, %9 ], [ %99, %596 ]
  %34 = phi i64 [ %3, %9 ], [ %580, %596 ]
  %35 = phi i8 [ %17, %9 ], [ %100, %596 ]
  %36 = phi i8 [ 0, %9 ], [ %127, %596 ]
  %37 = phi i8 [ 0, %9 ], [ %128, %596 ]
  %38 = phi i8 [ 1, %9 ], [ %129, %596 ]
  %39 = phi i64 [ %1, %9 ], [ %125, %596 ]
  switch i32 %27, label %91 [
    i32 6, label %40
    i32 5, label %41
    i32 7, label %92
    i32 0, label %90
    i32 2, label %82
    i32 4, label %76
    i32 3, label %73
    i32 1, label %74
    i32 10, label %50
    i32 8, label %47
    i32 9, label %47
  ]

40:                                               ; preds = %26
  br label %92

41:                                               ; preds = %26
  %42 = and i8 %35, 1
  %43 = icmp eq i8 %42, 0
  br i1 %43, label %44, label %92

44:                                               ; preds = %41
  %45 = icmp eq i64 %39, 0
  br i1 %45, label %92, label %46

46:                                               ; preds = %44
  store i8 34, i8* %0, align 1, !tbaa !16
  br label %92

47:                                               ; preds = %26, %26
  %48 = call fastcc i8* @gettext_quote(i8* getelementptr inbounds ([2 x i8], [2 x i8]* @.str.11.64, i64 0, i64 0), i32 %27)
  %49 = call fastcc i8* @gettext_quote(i8* getelementptr inbounds ([2 x i8], [2 x i8]* @.str.12.65, i64 0, i64 0), i32 %27)
  br label %50

50:                                               ; preds = %47, %26
  %51 = phi i8* [ %48, %47 ], [ %28, %26 ]
  %52 = phi i8* [ %49, %47 ], [ %29, %26 ]
  %53 = and i8 %35, 1
  %54 = icmp eq i8 %53, 0
  br i1 %54, label %55, label %70

55:                                               ; preds = %50
  %56 = load i8, i8* %51, align 1, !tbaa !16
  %57 = icmp eq i8 %56, 0
  br i1 %57, label %70, label %58

58:                                               ; preds = %65, %55
  %59 = phi i8 [ %68, %65 ], [ %56, %55 ]
  %60 = phi i8* [ %67, %65 ], [ %51, %55 ]
  %61 = phi i64 [ %66, %65 ], [ 0, %55 ]
  %62 = icmp ult i64 %61, %39
  br i1 %62, label %63, label %65

63:                                               ; preds = %58
  %64 = getelementptr inbounds i8, i8* %0, i64 %61
  store i8 %59, i8* %64, align 1, !tbaa !16
  br label %65

65:                                               ; preds = %63, %58
  %66 = add i64 %61, 1
  %67 = getelementptr inbounds i8, i8* %60, i64 1
  %68 = load i8, i8* %67, align 1, !tbaa !16
  %69 = icmp eq i8 %68, 0
  br i1 %69, label %70, label %58

70:                                               ; preds = %65, %55, %50
  %71 = phi i64 [ 0, %50 ], [ 0, %55 ], [ %66, %65 ]
  %72 = call i64 @strlen(i8* %52) #24
  br label %92

73:                                               ; preds = %26
  br label %74

74:                                               ; preds = %73, %26
  %75 = phi i8 [ %33, %26 ], [ 1, %73 ]
  br label %76

76:                                               ; preds = %74, %26
  %77 = phi i8 [ %33, %26 ], [ %75, %74 ]
  %78 = phi i8 [ %35, %26 ], [ 1, %74 ]
  %79 = and i8 %78, 1
  %80 = icmp eq i8 %79, 0
  %81 = select i1 %80, i8 1, i8 %77
  br label %82

82:                                               ; preds = %76, %26
  %83 = phi i8 [ %33, %26 ], [ %81, %76 ]
  %84 = phi i8 [ %35, %26 ], [ %78, %76 ]
  %85 = and i8 %84, 1
  %86 = icmp eq i8 %85, 0
  br i1 %86, label %87, label %92

87:                                               ; preds = %82
  %88 = icmp eq i64 %39, 0
  br i1 %88, label %92, label %89

89:                                               ; preds = %87
  store i8 39, i8* %0, align 1, !tbaa !16
  br label %92

90:                                               ; preds = %26
  br label %92

91:                                               ; preds = %26
  call void @abort() #21
  unreachable

92:                                               ; preds = %90, %89, %87, %82, %70, %46, %44, %41, %40, %26
  %93 = phi i32 [ 0, %90 ], [ %27, %70 ], [ 5, %46 ], [ 5, %44 ], [ 5, %41 ], [ %27, %26 ], [ 2, %89 ], [ 2, %87 ], [ 2, %82 ], [ 5, %40 ]
  %94 = phi i8* [ %28, %90 ], [ %51, %70 ], [ %28, %46 ], [ %28, %44 ], [ %28, %41 ], [ %28, %26 ], [ %28, %89 ], [ %28, %87 ], [ %28, %82 ], [ %28, %40 ]
  %95 = phi i8* [ %29, %90 ], [ %52, %70 ], [ %29, %46 ], [ %29, %44 ], [ %29, %41 ], [ %29, %26 ], [ %29, %89 ], [ %29, %87 ], [ %29, %82 ], [ %29, %40 ]
  %96 = phi i64 [ 0, %90 ], [ %71, %70 ], [ 1, %46 ], [ 1, %44 ], [ 0, %41 ], [ 0, %26 ], [ 1, %89 ], [ 1, %87 ], [ 0, %82 ], [ 0, %40 ]
  %97 = phi i8* [ %31, %90 ], [ %52, %70 ], [ getelementptr inbounds ([2 x i8], [2 x i8]* @.str.10.66, i64 0, i64 0), %46 ], [ getelementptr inbounds ([2 x i8], [2 x i8]* @.str.10.66, i64 0, i64 0), %44 ], [ getelementptr inbounds ([2 x i8], [2 x i8]* @.str.10.66, i64 0, i64 0), %41 ], [ %31, %26 ], [ getelementptr inbounds ([2 x i8], [2 x i8]* @.str.12.65, i64 0, i64 0), %89 ], [ getelementptr inbounds ([2 x i8], [2 x i8]* @.str.12.65, i64 0, i64 0), %87 ], [ getelementptr inbounds ([2 x i8], [2 x i8]* @.str.12.65, i64 0, i64 0), %82 ], [ getelementptr inbounds ([2 x i8], [2 x i8]* @.str.10.66, i64 0, i64 0), %40 ]
  %98 = phi i64 [ %32, %90 ], [ %72, %70 ], [ 1, %46 ], [ 1, %44 ], [ 1, %41 ], [ %32, %26 ], [ 1, %89 ], [ 1, %87 ], [ 1, %82 ], [ 1, %40 ]
  %99 = phi i8 [ %33, %90 ], [ 1, %70 ], [ 1, %46 ], [ 1, %44 ], [ 1, %41 ], [ 1, %26 ], [ %83, %89 ], [ %83, %87 ], [ %83, %82 ], [ 1, %40 ]
  %100 = phi i8 [ 0, %90 ], [ %35, %70 ], [ %35, %46 ], [ %35, %44 ], [ %35, %41 ], [ 0, %26 ], [ %84, %89 ], [ %84, %87 ], [ %84, %82 ], [ 1, %40 ]
  %101 = and i8 %99, 1
  %102 = icmp ne i8 %101, 0
  %103 = icmp ne i32 %93, 2
  %104 = and i1 %103, %102
  %105 = icmp ne i64 %98, 0
  %106 = and i1 %105, %104
  %107 = icmp ugt i64 %98, 1
  %108 = and i8 %100, 1
  %109 = icmp eq i8 %108, 0
  %110 = icmp eq i32 %93, 2
  %111 = or i1 %103, %109
  %112 = icmp ne i8 %108, 0
  %113 = and i1 %110, %112
  %114 = xor i1 %102, true
  %115 = xor i1 %104, true
  %116 = and i1 %109, %115
  %117 = or i1 %25, %116
  %118 = and i8 %99, %100
  %119 = and i8 %118, 1
  %120 = icmp ne i8 %119, 0
  %121 = and i1 %120, %105
  br label %122

122:                                              ; preds = %569, %92
  %123 = phi i64 [ 0, %92 ], [ %578, %569 ]
  %124 = phi i64 [ %96, %92 ], [ %571, %569 ]
  %125 = phi i64 [ %30, %92 ], [ %572, %569 ]
  %126 = phi i64 [ %34, %92 ], [ %573, %569 ]
  %127 = phi i8 [ %36, %92 ], [ %574, %569 ]
  %128 = phi i8 [ %37, %92 ], [ %575, %569 ]
  %129 = phi i8 [ %38, %92 ], [ %576, %569 ]
  %130 = phi i64 [ %39, %92 ], [ %577, %569 ]
  %131 = icmp eq i64 %126, -1
  br i1 %131, label %132, label %136

132:                                              ; preds = %122
  %133 = getelementptr inbounds i8, i8* %2, i64 %123
  %134 = load i8, i8* %133, align 1, !tbaa !16
  %135 = icmp eq i8 %134, 0
  br i1 %135, label %579, label %138

136:                                              ; preds = %122
  %137 = icmp eq i64 %123, %126
  br i1 %137, label %579, label %138

138:                                              ; preds = %136, %132
  br i1 %106, label %139, label %154

139:                                              ; preds = %138
  %140 = add i64 %123, %98
  %141 = and i1 %107, %131
  br i1 %141, label %142, label %144

142:                                              ; preds = %139
  %143 = call i64 @strlen(i8* %2) #24
  br label %144

144:                                              ; preds = %142, %139
  %145 = phi i64 [ %143, %142 ], [ %126, %139 ]
  %146 = icmp ugt i64 %140, %145
  br i1 %146, label %154, label %147

147:                                              ; preds = %144
  %148 = getelementptr inbounds i8, i8* %2, i64 %123
  %149 = call i32 @bcmp(i8* %148, i8* %97, i64 %98)
  %150 = icmp ne i32 %149, 0
  %151 = or i1 %150, %109
  %152 = xor i1 %150, true
  %153 = zext i1 %152 to i8
  br i1 %151, label %154, label %632

154:                                              ; preds = %147, %144, %138
  %155 = phi i64 [ %145, %147 ], [ %145, %144 ], [ %126, %138 ]
  %156 = phi i8 [ %153, %147 ], [ 0, %144 ], [ 0, %138 ]
  %157 = getelementptr inbounds i8, i8* %2, i64 %123
  %158 = load i8, i8* %157, align 1, !tbaa !16
  switch i8 %158, label %290 [
    i8 0, label %159
    i8 63, label %209
    i8 7, label %256
    i8 8, label %246
    i8 12, label %247
    i8 10, label %254
    i8 13, label %248
    i8 9, label %249
    i8 11, label %250
    i8 92, label %251
    i8 123, label %258
    i8 125, label %258
    i8 35, label %262
    i8 126, label %262
    i8 32, label %264
    i8 33, label %265
    i8 34, label %265
    i8 36, label %265
    i8 38, label %265
    i8 40, label %265
    i8 41, label %265
    i8 42, label %265
    i8 59, label %265
    i8 60, label %265
    i8 61, label %265
    i8 62, label %265
    i8 91, label %265
    i8 94, label %265
    i8 96, label %265
    i8 124, label %265
    i8 39, label %267
    i8 37, label %461
    i8 43, label %461
    i8 44, label %461
    i8 45, label %461
    i8 46, label %461
    i8 47, label %461
    i8 48, label %461
    i8 49, label %461
    i8 50, label %461
    i8 51, label %461
    i8 52, label %461
    i8 53, label %461
    i8 54, label %461
    i8 55, label %461
    i8 56, label %461
    i8 57, label %461
    i8 58, label %461
    i8 65, label %461
    i8 66, label %461
    i8 67, label %461
    i8 68, label %461
    i8 69, label %461
    i8 70, label %461
    i8 71, label %461
    i8 72, label %461
    i8 73, label %461
    i8 74, label %461
    i8 75, label %461
    i8 76, label %461
    i8 77, label %461
    i8 78, label %461
    i8 79, label %461
    i8 80, label %461
    i8 81, label %461
    i8 82, label %461
    i8 83, label %461
    i8 84, label %461
    i8 85, label %461
    i8 86, label %461
    i8 87, label %461
    i8 88, label %461
    i8 89, label %461
    i8 90, label %461
    i8 93, label %461
    i8 95, label %461
    i8 97, label %461
    i8 98, label %461
    i8 99, label %461
    i8 100, label %461
    i8 101, label %461
    i8 102, label %461
    i8 103, label %461
    i8 104, label %461
    i8 105, label %461
    i8 106, label %461
    i8 107, label %461
    i8 108, label %461
    i8 109, label %461
    i8 110, label %461
    i8 111, label %461
    i8 112, label %461
    i8 113, label %461
    i8 114, label %461
    i8 115, label %461
    i8 116, label %461
    i8 117, label %461
    i8 118, label %461
    i8 119, label %461
    i8 120, label %461
    i8 121, label %461
    i8 122, label %461
  ]

159:                                              ; preds = %154
  br i1 %102, label %160, label %208

160:                                              ; preds = %159
  br i1 %109, label %161, label %623

161:                                              ; preds = %160
  %162 = and i8 %127, 1
  %163 = icmp eq i8 %162, 0
  %164 = and i1 %110, %163
  br i1 %164, label %165, label %181

165:                                              ; preds = %161
  %166 = icmp ult i64 %124, %130
  br i1 %166, label %167, label %169

167:                                              ; preds = %165
  %168 = getelementptr inbounds i8, i8* %0, i64 %124
  store i8 39, i8* %168, align 1, !tbaa !16
  br label %169

169:                                              ; preds = %167, %165
  %170 = add i64 %124, 1
  %171 = icmp ult i64 %170, %130
  br i1 %171, label %172, label %174

172:                                              ; preds = %169
  %173 = getelementptr inbounds i8, i8* %0, i64 %170
  store i8 36, i8* %173, align 1, !tbaa !16
  br label %174

174:                                              ; preds = %172, %169
  %175 = add i64 %124, 2
  %176 = icmp ult i64 %175, %130
  br i1 %176, label %177, label %179

177:                                              ; preds = %174
  %178 = getelementptr inbounds i8, i8* %0, i64 %175
  store i8 39, i8* %178, align 1, !tbaa !16
  br label %179

179:                                              ; preds = %177, %174
  %180 = add i64 %124, 3
  br label %181

181:                                              ; preds = %179, %161
  %182 = phi i64 [ %180, %179 ], [ %124, %161 ]
  %183 = phi i8 [ 1, %179 ], [ %127, %161 ]
  %184 = icmp ult i64 %182, %130
  br i1 %184, label %185, label %187

185:                                              ; preds = %181
  %186 = getelementptr inbounds i8, i8* %0, i64 %182
  store i8 92, i8* %186, align 1, !tbaa !16
  br label %187

187:                                              ; preds = %185, %181
  %188 = add i64 %182, 1
  br i1 %103, label %189, label %461

189:                                              ; preds = %187
  %190 = add i64 %123, 1
  %191 = icmp ult i64 %190, %155
  br i1 %191, label %192, label %461

192:                                              ; preds = %189
  %193 = getelementptr inbounds i8, i8* %2, i64 %190
  %194 = load i8, i8* %193, align 1, !tbaa !16
  %195 = add i8 %194, -48
  %196 = icmp ult i8 %195, 10
  br i1 %196, label %197, label %461

197:                                              ; preds = %192
  %198 = icmp ult i64 %188, %130
  br i1 %198, label %199, label %201

199:                                              ; preds = %197
  %200 = getelementptr inbounds i8, i8* %0, i64 %188
  store i8 48, i8* %200, align 1, !tbaa !16
  br label %201

201:                                              ; preds = %199, %197
  %202 = add i64 %182, 2
  %203 = icmp ult i64 %202, %130
  br i1 %203, label %204, label %206

204:                                              ; preds = %201
  %205 = getelementptr inbounds i8, i8* %0, i64 %202
  store i8 48, i8* %205, align 1, !tbaa !16
  br label %206

206:                                              ; preds = %204, %201
  %207 = add i64 %182, 3
  br label %461

208:                                              ; preds = %159
  br i1 %22, label %461, label %569

209:                                              ; preds = %154
  switch i32 %93, label %461 [
    i32 2, label %210
    i32 5, label %211
  ]

210:                                              ; preds = %209
  br i1 %109, label %461, label %627

211:                                              ; preds = %209
  br i1 %20, label %461, label %212

212:                                              ; preds = %211
  %213 = add i64 %123, 2
  %214 = icmp ult i64 %213, %155
  br i1 %214, label %215, label %461

215:                                              ; preds = %212
  %216 = add i64 %123, 1
  %217 = getelementptr inbounds i8, i8* %2, i64 %216
  %218 = load i8, i8* %217, align 1, !tbaa !16
  %219 = icmp eq i8 %218, 63
  br i1 %219, label %220, label %461

220:                                              ; preds = %215
  %221 = getelementptr inbounds i8, i8* %2, i64 %213
  %222 = load i8, i8* %221, align 1, !tbaa !16
  %223 = sext i8 %222 to i32
  switch i32 %223, label %461 [
    i32 33, label %224
    i32 39, label %224
    i32 40, label %224
    i32 41, label %224
    i32 45, label %224
    i32 47, label %224
    i32 60, label %224
    i32 61, label %224
    i32 62, label %224
  ]

224:                                              ; preds = %220, %220, %220, %220, %220, %220, %220, %220, %220
  br i1 %109, label %225, label %632

225:                                              ; preds = %224
  %226 = icmp ult i64 %124, %130
  br i1 %226, label %227, label %229

227:                                              ; preds = %225
  %228 = getelementptr inbounds i8, i8* %0, i64 %124
  store i8 63, i8* %228, align 1, !tbaa !16
  br label %229

229:                                              ; preds = %227, %225
  %230 = add i64 %124, 1
  %231 = icmp ult i64 %230, %130
  br i1 %231, label %232, label %234

232:                                              ; preds = %229
  %233 = getelementptr inbounds i8, i8* %0, i64 %230
  store i8 34, i8* %233, align 1, !tbaa !16
  br label %234

234:                                              ; preds = %232, %229
  %235 = add i64 %124, 2
  %236 = icmp ult i64 %235, %130
  br i1 %236, label %237, label %239

237:                                              ; preds = %234
  %238 = getelementptr inbounds i8, i8* %0, i64 %235
  store i8 34, i8* %238, align 1, !tbaa !16
  br label %239

239:                                              ; preds = %237, %234
  %240 = add i64 %124, 3
  %241 = icmp ult i64 %240, %130
  br i1 %241, label %242, label %244

242:                                              ; preds = %239
  %243 = getelementptr inbounds i8, i8* %0, i64 %240
  store i8 63, i8* %243, align 1, !tbaa !16
  br label %244

244:                                              ; preds = %242, %239
  %245 = add i64 %124, 4
  br label %461

246:                                              ; preds = %154
  br label %256

247:                                              ; preds = %154
  br label %256

248:                                              ; preds = %154
  br label %254

249:                                              ; preds = %154
  br label %254

250:                                              ; preds = %154
  br label %256

251:                                              ; preds = %154
  br i1 %110, label %252, label %253

252:                                              ; preds = %251
  br i1 %109, label %524, label %627

253:                                              ; preds = %251
  br i1 %121, label %524, label %254

254:                                              ; preds = %253, %249, %248, %154
  %255 = phi i8 [ 92, %253 ], [ 116, %249 ], [ 114, %248 ], [ 110, %154 ]
  br i1 %111, label %256, label %627

256:                                              ; preds = %254, %250, %247, %246, %154
  %257 = phi i8 [ %255, %254 ], [ 118, %250 ], [ 102, %247 ], [ 98, %246 ], [ 97, %154 ]
  br i1 %102, label %486, label %461

258:                                              ; preds = %154, %154
  switch i64 %155, label %461 [
    i64 -1, label %259
    i64 1, label %262
  ]

259:                                              ; preds = %258
  %260 = load i8, i8* %18, align 1, !tbaa !16
  %261 = icmp eq i8 %260, 0
  br i1 %261, label %262, label %461

262:                                              ; preds = %259, %258, %154, %154
  %263 = icmp eq i64 %123, 0
  br i1 %263, label %264, label %461

264:                                              ; preds = %262, %154
  br label %265

265:                                              ; preds = %264, %154, %154, %154, %154, %154, %154, %154, %154, %154, %154, %154, %154, %154, %154, %154
  %266 = phi i8 [ 0, %154 ], [ 0, %154 ], [ 0, %154 ], [ 0, %154 ], [ 0, %154 ], [ 0, %154 ], [ 0, %154 ], [ 0, %154 ], [ 0, %154 ], [ 0, %154 ], [ 0, %154 ], [ 0, %154 ], [ 0, %154 ], [ 0, %154 ], [ 0, %154 ], [ 1, %264 ]
  br i1 %111, label %461, label %627

267:                                              ; preds = %154
  br i1 %110, label %268, label %461

268:                                              ; preds = %267
  br i1 %109, label %269, label %627

269:                                              ; preds = %268
  %270 = icmp eq i64 %130, 0
  %271 = icmp ne i64 %125, 0
  %272 = or i1 %271, %270
  %273 = select i1 %272, i64 %125, i64 %130
  %274 = select i1 %272, i64 %130, i64 0
  %275 = icmp ult i64 %124, %274
  br i1 %275, label %276, label %278

276:                                              ; preds = %269
  %277 = getelementptr inbounds i8, i8* %0, i64 %124
  store i8 39, i8* %277, align 1, !tbaa !16
  br label %278

278:                                              ; preds = %276, %269
  %279 = add i64 %124, 1
  %280 = icmp ult i64 %279, %274
  br i1 %280, label %281, label %283

281:                                              ; preds = %278
  %282 = getelementptr inbounds i8, i8* %0, i64 %279
  store i8 92, i8* %282, align 1, !tbaa !16
  br label %283

283:                                              ; preds = %281, %278
  %284 = add i64 %124, 2
  %285 = icmp ult i64 %284, %274
  br i1 %285, label %286, label %288

286:                                              ; preds = %283
  %287 = getelementptr inbounds i8, i8* %0, i64 %284
  store i8 39, i8* %287, align 1, !tbaa !16
  br label %288

288:                                              ; preds = %286, %283
  %289 = add i64 %124, 3
  br label %461

290:                                              ; preds = %154
  br i1 %14, label %291, label %300

291:                                              ; preds = %290
  %292 = tail call i16** @__ctype_b_loc() #22
  %293 = load i16*, i16** %292, align 8, !tbaa !4
  %294 = zext i8 %158 to i64
  %295 = getelementptr inbounds i16, i16* %293, i64 %294
  %296 = load i16, i16* %295, align 2, !tbaa !33
  %297 = lshr i16 %296, 14
  %298 = trunc i16 %297 to i8
  %299 = and i8 %298, 1
  br label %353

300:                                              ; preds = %290
  call void @llvm.lifetime.start.p0i8(i64 8, i8* nonnull %23) #11
  store i64 0, i64* %10, align 8
  %301 = icmp eq i64 %155, -1
  br i1 %301, label %302, label %304

302:                                              ; preds = %300
  %303 = call i64 @strlen(i8* nonnull %2) #24
  br label %304

304:                                              ; preds = %302, %300
  %305 = phi i64 [ %303, %302 ], [ %155, %300 ]
  br label %306

306:                                              ; preds = %341, %304
  %307 = phi i64 [ 0, %304 ], [ %346, %341 ]
  %308 = phi i8 [ 1, %304 ], [ %345, %341 ]
  call void @llvm.lifetime.start.p0i8(i64 4, i8* nonnull %24) #11
  %309 = add i64 %307, %123
  %310 = getelementptr inbounds i8, i8* %2, i64 %309
  %311 = sub i64 %305, %309
  %312 = call i64 @rpl_mbrtowc(i32* nonnull %12, i8* %310, i64 %311, %struct.__mbstate_t* nonnull %11) #11
  switch i64 %312, label %325 [
    i64 0, label %337
    i64 -1, label %338
    i64 -2, label %313
  ]

313:                                              ; preds = %306
  %314 = icmp ugt i64 %305, %309
  br i1 %314, label %315, label %338

315:                                              ; preds = %321, %313
  %316 = phi i64 [ %323, %321 ], [ %309, %313 ]
  %317 = phi i64 [ %322, %321 ], [ %307, %313 ]
  %318 = getelementptr inbounds i8, i8* %2, i64 %316
  %319 = load i8, i8* %318, align 1, !tbaa !16
  %320 = icmp eq i8 %319, 0
  br i1 %320, label %338, label %321

321:                                              ; preds = %315
  %322 = add i64 %317, 1
  %323 = add i64 %322, %123
  %324 = icmp ult i64 %323, %305
  br i1 %324, label %315, label %338

325:                                              ; preds = %306
  %326 = icmp ugt i64 %312, 1
  %327 = and i1 %113, %326
  br i1 %327, label %328, label %341

328:                                              ; preds = %334, %325
  %329 = phi i64 [ %335, %334 ], [ 1, %325 ]
  %330 = add i64 %329, %309
  %331 = getelementptr inbounds i8, i8* %2, i64 %330
  %332 = load i8, i8* %331, align 1, !tbaa !16
  %333 = sext i8 %332 to i32
  switch i32 %333, label %334 [
    i32 91, label %352
    i32 92, label %352
    i32 94, label %352
    i32 96, label %352
    i32 124, label %352
  ]

334:                                              ; preds = %328
  %335 = add nuw i64 %329, 1
  %336 = icmp eq i64 %335, %312
  br i1 %336, label %341, label %328

337:                                              ; preds = %306
  br label %338

338:                                              ; preds = %337, %321, %315, %313, %306
  %339 = phi i64 [ %307, %313 ], [ %307, %337 ], [ %307, %306 ], [ %317, %315 ], [ %322, %321 ]
  %340 = phi i8 [ 0, %313 ], [ %308, %337 ], [ 0, %306 ], [ 0, %315 ], [ 0, %321 ]
  call void @llvm.lifetime.end.p0i8(i64 4, i8* nonnull %24) #11
  br label %349

341:                                              ; preds = %334, %325
  %342 = load i32, i32* %12, align 4, !tbaa !8
  %343 = call i32 @iswprint(i32 %342) #11
  %344 = icmp eq i32 %343, 0
  %345 = select i1 %344, i8 0, i8 %308
  %346 = add i64 %312, %307
  call void @llvm.lifetime.end.p0i8(i64 4, i8* nonnull %24) #11
  %347 = call i32 @mbsinit(%struct.__mbstate_t* nonnull %11) #24
  %348 = icmp eq i32 %347, 0
  br i1 %348, label %306, label %349

349:                                              ; preds = %341, %338
  %350 = phi i8 [ %340, %338 ], [ %345, %341 ]
  %351 = phi i64 [ %339, %338 ], [ %346, %341 ]
  call void @llvm.lifetime.end.p0i8(i64 8, i8* nonnull %23) #11
  br label %353

352:                                              ; preds = %328, %328, %328, %328, %328
  call void @llvm.lifetime.end.p0i8(i64 4, i8* nonnull %24) #11
  call void @llvm.lifetime.end.p0i8(i64 8, i8* nonnull %23) #11
  br label %627

353:                                              ; preds = %349, %291
  %354 = phi i64 [ %155, %291 ], [ %305, %349 ]
  %355 = phi i64 [ 1, %291 ], [ %351, %349 ]
  %356 = phi i8 [ %299, %291 ], [ %350, %349 ]
  %357 = and i8 %356, 1
  %358 = icmp ne i8 %357, 0
  %359 = icmp ult i64 %355, 2
  %360 = or i1 %358, %114
  %361 = and i1 %359, %360
  br i1 %361, label %461, label %362

362:                                              ; preds = %353
  %363 = add i64 %355, %123
  br label %364

364:                                              ; preds = %457, %362
  %365 = phi i64 [ %123, %362 ], [ %432, %457 ]
  %366 = phi i64 [ %124, %362 ], [ %458, %457 ]
  %367 = phi i8 [ %127, %362 ], [ %453, %457 ]
  %368 = phi i8 [ %158, %362 ], [ %460, %457 ]
  %369 = phi i8 [ %156, %362 ], [ %430, %457 ]
  %370 = phi i8 [ 0, %362 ], [ %431, %457 ]
  br i1 %360, label %417, label %371

371:                                              ; preds = %364
  br i1 %109, label %372, label %623

372:                                              ; preds = %371
  %373 = and i8 %367, 1
  %374 = icmp eq i8 %373, 0
  %375 = and i1 %110, %374
  br i1 %375, label %376, label %392

376:                                              ; preds = %372
  %377 = icmp ult i64 %366, %130
  br i1 %377, label %378, label %380

378:                                              ; preds = %376
  %379 = getelementptr inbounds i8, i8* %0, i64 %366
  store i8 39, i8* %379, align 1, !tbaa !16
  br label %380

380:                                              ; preds = %378, %376
  %381 = add i64 %366, 1
  %382 = icmp ult i64 %381, %130
  br i1 %382, label %383, label %385

383:                                              ; preds = %380
  %384 = getelementptr inbounds i8, i8* %0, i64 %381
  store i8 36, i8* %384, align 1, !tbaa !16
  br label %385

385:                                              ; preds = %383, %380
  %386 = add i64 %366, 2
  %387 = icmp ult i64 %386, %130
  br i1 %387, label %388, label %390

388:                                              ; preds = %385
  %389 = getelementptr inbounds i8, i8* %0, i64 %386
  store i8 39, i8* %389, align 1, !tbaa !16
  br label %390

390:                                              ; preds = %388, %385
  %391 = add i64 %366, 3
  br label %392

392:                                              ; preds = %390, %372
  %393 = phi i64 [ %391, %390 ], [ %366, %372 ]
  %394 = phi i8 [ 1, %390 ], [ %367, %372 ]
  %395 = icmp ult i64 %393, %130
  br i1 %395, label %396, label %398

396:                                              ; preds = %392
  %397 = getelementptr inbounds i8, i8* %0, i64 %393
  store i8 92, i8* %397, align 1, !tbaa !16
  br label %398

398:                                              ; preds = %396, %392
  %399 = add i64 %393, 1
  %400 = icmp ult i64 %399, %130
  br i1 %400, label %401, label %405

401:                                              ; preds = %398
  %402 = lshr i8 %368, 6
  %403 = or i8 %402, 48
  %404 = getelementptr inbounds i8, i8* %0, i64 %399
  store i8 %403, i8* %404, align 1, !tbaa !16
  br label %405

405:                                              ; preds = %401, %398
  %406 = add i64 %393, 2
  %407 = icmp ult i64 %406, %130
  br i1 %407, label %408, label %413

408:                                              ; preds = %405
  %409 = lshr i8 %368, 3
  %410 = and i8 %409, 7
  %411 = or i8 %410, 48
  %412 = getelementptr inbounds i8, i8* %0, i64 %406
  store i8 %411, i8* %412, align 1, !tbaa !16
  br label %413

413:                                              ; preds = %408, %405
  %414 = add i64 %393, 3
  %415 = and i8 %368, 7
  %416 = or i8 %415, 48
  br label %426

417:                                              ; preds = %364
  %418 = and i8 %369, 1
  %419 = icmp eq i8 %418, 0
  br i1 %419, label %426, label %420

420:                                              ; preds = %417
  %421 = icmp ult i64 %366, %130
  br i1 %421, label %422, label %424

422:                                              ; preds = %420
  %423 = getelementptr inbounds i8, i8* %0, i64 %366
  store i8 92, i8* %423, align 1, !tbaa !16
  br label %424

424:                                              ; preds = %422, %420
  %425 = add i64 %366, 1
  br label %426

426:                                              ; preds = %424, %417, %413
  %427 = phi i64 [ %425, %424 ], [ %366, %417 ], [ %414, %413 ]
  %428 = phi i8 [ %367, %424 ], [ %367, %417 ], [ %394, %413 ]
  %429 = phi i8 [ %368, %424 ], [ %368, %417 ], [ %416, %413 ]
  %430 = phi i8 [ 0, %424 ], [ %369, %417 ], [ %369, %413 ]
  %431 = phi i8 [ %370, %424 ], [ %370, %417 ], [ 1, %413 ]
  %432 = add i64 %365, 1
  %433 = icmp ugt i64 %363, %432
  br i1 %433, label %434, label %524

434:                                              ; preds = %426
  %435 = and i8 %428, 1
  %436 = icmp ne i8 %435, 0
  %437 = and i8 %431, 1
  %438 = icmp eq i8 %437, 0
  %439 = and i1 %436, %438
  br i1 %439, label %440, label %451

440:                                              ; preds = %434
  %441 = icmp ult i64 %427, %130
  br i1 %441, label %442, label %444

442:                                              ; preds = %440
  %443 = getelementptr inbounds i8, i8* %0, i64 %427
  store i8 39, i8* %443, align 1, !tbaa !16
  br label %444

444:                                              ; preds = %442, %440
  %445 = add i64 %427, 1
  %446 = icmp ult i64 %445, %130
  br i1 %446, label %447, label %449

447:                                              ; preds = %444
  %448 = getelementptr inbounds i8, i8* %0, i64 %445
  store i8 39, i8* %448, align 1, !tbaa !16
  br label %449

449:                                              ; preds = %447, %444
  %450 = add i64 %427, 2
  br label %451

451:                                              ; preds = %449, %434
  %452 = phi i64 [ %450, %449 ], [ %427, %434 ]
  %453 = phi i8 [ 0, %449 ], [ %428, %434 ]
  %454 = icmp ult i64 %452, %130
  br i1 %454, label %455, label %457

455:                                              ; preds = %451
  %456 = getelementptr inbounds i8, i8* %0, i64 %452
  store i8 %429, i8* %456, align 1, !tbaa !16
  br label %457

457:                                              ; preds = %455, %451
  %458 = add i64 %452, 1
  %459 = getelementptr inbounds i8, i8* %2, i64 %432
  %460 = load i8, i8* %459, align 1, !tbaa !16
  br label %364

461:                                              ; preds = %353, %288, %267, %265, %262, %259, %258, %256, %244, %220, %215, %212, %211, %210, %209, %208, %206, %192, %189, %187, %154, %154, %154, %154, %154, %154, %154, %154, %154, %154, %154, %154, %154, %154, %154, %154, %154, %154, %154, %154, %154, %154, %154, %154, %154, %154, %154, %154, %154, %154, %154, %154, %154, %154, %154, %154, %154, %154, %154, %154, %154, %154, %154, %154, %154, %154, %154, %154, %154, %154, %154, %154, %154, %154, %154, %154, %154, %154, %154, %154, %154, %154, %154, %154, %154, %154, %154, %154, %154, %154, %154
  %462 = phi i64 [ %123, %288 ], [ %123, %267 ], [ %123, %265 ], [ %123, %262 ], [ %123, %259 ], [ %123, %256 ], [ %123, %209 ], [ %123, %220 ], [ %213, %244 ], [ %123, %215 ], [ %123, %212 ], [ %123, %211 ], [ %123, %210 ], [ %123, %208 ], [ %123, %206 ], [ %123, %192 ], [ %123, %189 ], [ %123, %187 ], [ %123, %258 ], [ %123, %154 ], [ %123, %154 ], [ %123, %154 ], [ %123, %154 ], [ %123, %154 ], [ %123, %154 ], [ %123, %154 ], [ %123, %154 ], [ %123, %154 ], [ %123, %154 ], [ %123, %154 ], [ %123, %154 ], [ %123, %154 ], [ %123, %154 ], [ %123, %154 ], [ %123, %154 ], [ %123, %154 ], [ %123, %154 ], [ %123, %154 ], [ %123, %154 ], [ %123, %154 ], [ %123, %154 ], [ %123, %154 ], [ %123, %154 ], [ %123, %154 ], [ %123, %154 ], [ %123, %154 ], [ %123, %154 ], [ %123, %154 ], [ %123, %154 ], [ %123, %154 ], [ %123, %154 ], [ %123, %154 ], [ %123, %154 ], [ %123, %154 ], [ %123, %154 ], [ %123, %154 ], [ %123, %154 ], [ %123, %154 ], [ %123, %154 ], [ %123, %154 ], [ %123, %154 ], [ %123, %154 ], [ %123, %154 ], [ %123, %154 ], [ %123, %154 ], [ %123, %154 ], [ %123, %154 ], [ %123, %154 ], [ %123, %154 ], [ %123, %154 ], [ %123, %154 ], [ %123, %154 ], [ %123, %154 ], [ %123, %154 ], [ %123, %154 ], [ %123, %154 ], [ %123, %154 ], [ %123, %154 ], [ %123, %154 ], [ %123, %154 ], [ %123, %154 ], [ %123, %154 ], [ %123, %154 ], [ %123, %154 ], [ %123, %154 ], [ %123, %154 ], [ %123, %154 ], [ %123, %154 ], [ %123, %154 ], [ %123, %154 ], [ %123, %353 ]
  %463 = phi i64 [ %289, %288 ], [ %124, %267 ], [ %124, %265 ], [ %124, %262 ], [ %124, %259 ], [ %124, %256 ], [ %124, %209 ], [ %124, %220 ], [ %245, %244 ], [ %124, %215 ], [ %124, %212 ], [ %124, %211 ], [ %124, %210 ], [ %124, %208 ], [ %207, %206 ], [ %188, %192 ], [ %188, %189 ], [ %188, %187 ], [ %124, %258 ], [ %124, %154 ], [ %124, %154 ], [ %124, %154 ], [ %124, %154 ], [ %124, %154 ], [ %124, %154 ], [ %124, %154 ], [ %124, %154 ], [ %124, %154 ], [ %124, %154 ], [ %124, %154 ], [ %124, %154 ], [ %124, %154 ], [ %124, %154 ], [ %124, %154 ], [ %124, %154 ], [ %124, %154 ], [ %124, %154 ], [ %124, %154 ], [ %124, %154 ], [ %124, %154 ], [ %124, %154 ], [ %124, %154 ], [ %124, %154 ], [ %124, %154 ], [ %124, %154 ], [ %124, %154 ], [ %124, %154 ], [ %124, %154 ], [ %124, %154 ], [ %124, %154 ], [ %124, %154 ], [ %124, %154 ], [ %124, %154 ], [ %124, %154 ], [ %124, %154 ], [ %124, %154 ], [ %124, %154 ], [ %124, %154 ], [ %124, %154 ], [ %124, %154 ], [ %124, %154 ], [ %124, %154 ], [ %124, %154 ], [ %124, %154 ], [ %124, %154 ], [ %124, %154 ], [ %124, %154 ], [ %124, %154 ], [ %124, %154 ], [ %124, %154 ], [ %124, %154 ], [ %124, %154 ], [ %124, %154 ], [ %124, %154 ], [ %124, %154 ], [ %124, %154 ], [ %124, %154 ], [ %124, %154 ], [ %124, %154 ], [ %124, %154 ], [ %124, %154 ], [ %124, %154 ], [ %124, %154 ], [ %124, %154 ], [ %124, %154 ], [ %124, %154 ], [ %124, %154 ], [ %124, %154 ], [ %124, %154 ], [ %124, %154 ], [ %124, %353 ]
  %464 = phi i64 [ %273, %288 ], [ %125, %267 ], [ %125, %265 ], [ %125, %262 ], [ %125, %259 ], [ %125, %256 ], [ %125, %209 ], [ %125, %220 ], [ %125, %244 ], [ %125, %215 ], [ %125, %212 ], [ %125, %211 ], [ %125, %210 ], [ %125, %208 ], [ %125, %206 ], [ %125, %192 ], [ %125, %189 ], [ %125, %187 ], [ %125, %258 ], [ %125, %154 ], [ %125, %154 ], [ %125, %154 ], [ %125, %154 ], [ %125, %154 ], [ %125, %154 ], [ %125, %154 ], [ %125, %154 ], [ %125, %154 ], [ %125, %154 ], [ %125, %154 ], [ %125, %154 ], [ %125, %154 ], [ %125, %154 ], [ %125, %154 ], [ %125, %154 ], [ %125, %154 ], [ %125, %154 ], [ %125, %154 ], [ %125, %154 ], [ %125, %154 ], [ %125, %154 ], [ %125, %154 ], [ %125, %154 ], [ %125, %154 ], [ %125, %154 ], [ %125, %154 ], [ %125, %154 ], [ %125, %154 ], [ %125, %154 ], [ %125, %154 ], [ %125, %154 ], [ %125, %154 ], [ %125, %154 ], [ %125, %154 ], [ %125, %154 ], [ %125, %154 ], [ %125, %154 ], [ %125, %154 ], [ %125, %154 ], [ %125, %154 ], [ %125, %154 ], [ %125, %154 ], [ %125, %154 ], [ %125, %154 ], [ %125, %154 ], [ %125, %154 ], [ %125, %154 ], [ %125, %154 ], [ %125, %154 ], [ %125, %154 ], [ %125, %154 ], [ %125, %154 ], [ %125, %154 ], [ %125, %154 ], [ %125, %154 ], [ %125, %154 ], [ %125, %154 ], [ %125, %154 ], [ %125, %154 ], [ %125, %154 ], [ %125, %154 ], [ %125, %154 ], [ %125, %154 ], [ %125, %154 ], [ %125, %154 ], [ %125, %154 ], [ %125, %154 ], [ %125, %154 ], [ %125, %154 ], [ %125, %154 ], [ %125, %353 ]
  %465 = phi i64 [ %155, %288 ], [ %155, %267 ], [ %155, %265 ], [ %155, %262 ], [ -1, %259 ], [ %155, %256 ], [ %155, %209 ], [ %155, %220 ], [ %155, %244 ], [ %155, %215 ], [ %155, %212 ], [ %155, %211 ], [ %155, %210 ], [ %155, %208 ], [ %155, %206 ], [ %155, %192 ], [ %155, %189 ], [ %155, %187 ], [ %155, %258 ], [ %155, %154 ], [ %155, %154 ], [ %155, %154 ], [ %155, %154 ], [ %155, %154 ], [ %155, %154 ], [ %155, %154 ], [ %155, %154 ], [ %155, %154 ], [ %155, %154 ], [ %155, %154 ], [ %155, %154 ], [ %155, %154 ], [ %155, %154 ], [ %155, %154 ], [ %155, %154 ], [ %155, %154 ], [ %155, %154 ], [ %155, %154 ], [ %155, %154 ], [ %155, %154 ], [ %155, %154 ], [ %155, %154 ], [ %155, %154 ], [ %155, %154 ], [ %155, %154 ], [ %155, %154 ], [ %155, %154 ], [ %155, %154 ], [ %155, %154 ], [ %155, %154 ], [ %155, %154 ], [ %155, %154 ], [ %155, %154 ], [ %155, %154 ], [ %155, %154 ], [ %155, %154 ], [ %155, %154 ], [ %155, %154 ], [ %155, %154 ], [ %155, %154 ], [ %155, %154 ], [ %155, %154 ], [ %155, %154 ], [ %155, %154 ], [ %155, %154 ], [ %155, %154 ], [ %155, %154 ], [ %155, %154 ], [ %155, %154 ], [ %155, %154 ], [ %155, %154 ], [ %155, %154 ], [ %155, %154 ], [ %155, %154 ], [ %155, %154 ], [ %155, %154 ], [ %155, %154 ], [ %155, %154 ], [ %155, %154 ], [ %155, %154 ], [ %155, %154 ], [ %155, %154 ], [ %155, %154 ], [ %155, %154 ], [ %155, %154 ], [ %155, %154 ], [ %155, %154 ], [ %155, %154 ], [ %155, %154 ], [ %155, %154 ], [ %354, %353 ]
  %466 = phi i8 [ 0, %288 ], [ %127, %267 ], [ %127, %265 ], [ %127, %262 ], [ %127, %259 ], [ %127, %256 ], [ %127, %209 ], [ %127, %220 ], [ %127, %244 ], [ %127, %215 ], [ %127, %212 ], [ %127, %211 ], [ %127, %210 ], [ %127, %208 ], [ %183, %206 ], [ %183, %192 ], [ %183, %189 ], [ %183, %187 ], [ %127, %258 ], [ %127, %154 ], [ %127, %154 ], [ %127, %154 ], [ %127, %154 ], [ %127, %154 ], [ %127, %154 ], [ %127, %154 ], [ %127, %154 ], [ %127, %154 ], [ %127, %154 ], [ %127, %154 ], [ %127, %154 ], [ %127, %154 ], [ %127, %154 ], [ %127, %154 ], [ %127, %154 ], [ %127, %154 ], [ %127, %154 ], [ %127, %154 ], [ %127, %154 ], [ %127, %154 ], [ %127, %154 ], [ %127, %154 ], [ %127, %154 ], [ %127, %154 ], [ %127, %154 ], [ %127, %154 ], [ %127, %154 ], [ %127, %154 ], [ %127, %154 ], [ %127, %154 ], [ %127, %154 ], [ %127, %154 ], [ %127, %154 ], [ %127, %154 ], [ %127, %154 ], [ %127, %154 ], [ %127, %154 ], [ %127, %154 ], [ %127, %154 ], [ %127, %154 ], [ %127, %154 ], [ %127, %154 ], [ %127, %154 ], [ %127, %154 ], [ %127, %154 ], [ %127, %154 ], [ %127, %154 ], [ %127, %154 ], [ %127, %154 ], [ %127, %154 ], [ %127, %154 ], [ %127, %154 ], [ %127, %154 ], [ %127, %154 ], [ %127, %154 ], [ %127, %154 ], [ %127, %154 ], [ %127, %154 ], [ %127, %154 ], [ %127, %154 ], [ %127, %154 ], [ %127, %154 ], [ %127, %154 ], [ %127, %154 ], [ %127, %154 ], [ %127, %154 ], [ %127, %154 ], [ %127, %154 ], [ %127, %154 ], [ %127, %154 ], [ %127, %353 ]
  %467 = phi i8 [ 1, %288 ], [ 1, %267 ], [ %128, %265 ], [ %128, %262 ], [ %128, %259 ], [ %128, %256 ], [ %128, %209 ], [ %128, %220 ], [ %128, %244 ], [ %128, %215 ], [ %128, %212 ], [ %128, %211 ], [ %128, %210 ], [ %128, %208 ], [ %128, %206 ], [ %128, %192 ], [ %128, %189 ], [ %128, %187 ], [ %128, %258 ], [ %128, %154 ], [ %128, %154 ], [ %128, %154 ], [ %128, %154 ], [ %128, %154 ], [ %128, %154 ], [ %128, %154 ], [ %128, %154 ], [ %128, %154 ], [ %128, %154 ], [ %128, %154 ], [ %128, %154 ], [ %128, %154 ], [ %128, %154 ], [ %128, %154 ], [ %128, %154 ], [ %128, %154 ], [ %128, %154 ], [ %128, %154 ], [ %128, %154 ], [ %128, %154 ], [ %128, %154 ], [ %128, %154 ], [ %128, %154 ], [ %128, %154 ], [ %128, %154 ], [ %128, %154 ], [ %128, %154 ], [ %128, %154 ], [ %128, %154 ], [ %128, %154 ], [ %128, %154 ], [ %128, %154 ], [ %128, %154 ], [ %128, %154 ], [ %128, %154 ], [ %128, %154 ], [ %128, %154 ], [ %128, %154 ], [ %128, %154 ], [ %128, %154 ], [ %128, %154 ], [ %128, %154 ], [ %128, %154 ], [ %128, %154 ], [ %128, %154 ], [ %128, %154 ], [ %128, %154 ], [ %128, %154 ], [ %128, %154 ], [ %128, %154 ], [ %128, %154 ], [ %128, %154 ], [ %128, %154 ], [ %128, %154 ], [ %128, %154 ], [ %128, %154 ], [ %128, %154 ], [ %128, %154 ], [ %128, %154 ], [ %128, %154 ], [ %128, %154 ], [ %128, %154 ], [ %128, %154 ], [ %128, %154 ], [ %128, %154 ], [ %128, %154 ], [ %128, %154 ], [ %128, %154 ], [ %128, %154 ], [ %128, %154 ], [ %128, %353 ]
  %468 = phi i8 [ 39, %288 ], [ 39, %267 ], [ %158, %265 ], [ %158, %262 ], [ %158, %259 ], [ %158, %256 ], [ 63, %209 ], [ 63, %220 ], [ %222, %244 ], [ 63, %215 ], [ 63, %212 ], [ 63, %211 ], [ 63, %210 ], [ 0, %208 ], [ 48, %206 ], [ 48, %192 ], [ 48, %189 ], [ 48, %187 ], [ %158, %258 ], [ %158, %154 ], [ %158, %154 ], [ %158, %154 ], [ %158, %154 ], [ %158, %154 ], [ %158, %154 ], [ %158, %154 ], [ %158, %154 ], [ %158, %154 ], [ %158, %154 ], [ %158, %154 ], [ %158, %154 ], [ %158, %154 ], [ %158, %154 ], [ %158, %154 ], [ %158, %154 ], [ %158, %154 ], [ %158, %154 ], [ %158, %154 ], [ %158, %154 ], [ %158, %154 ], [ %158, %154 ], [ %158, %154 ], [ %158, %154 ], [ %158, %154 ], [ %158, %154 ], [ %158, %154 ], [ %158, %154 ], [ %158, %154 ], [ %158, %154 ], [ %158, %154 ], [ %158, %154 ], [ %158, %154 ], [ %158, %154 ], [ %158, %154 ], [ %158, %154 ], [ %158, %154 ], [ %158, %154 ], [ %158, %154 ], [ %158, %154 ], [ %158, %154 ], [ %158, %154 ], [ %158, %154 ], [ %158, %154 ], [ %158, %154 ], [ %158, %154 ], [ %158, %154 ], [ %158, %154 ], [ %158, %154 ], [ %158, %154 ], [ %158, %154 ], [ %158, %154 ], [ %158, %154 ], [ %158, %154 ], [ %158, %154 ], [ %158, %154 ], [ %158, %154 ], [ %158, %154 ], [ %158, %154 ], [ %158, %154 ], [ %158, %154 ], [ %158, %154 ], [ %158, %154 ], [ %158, %154 ], [ %158, %154 ], [ %158, %154 ], [ %158, %154 ], [ %158, %154 ], [ %158, %154 ], [ %158, %154 ], [ %158, %154 ], [ %158, %353 ]
  %469 = phi i8 [ 0, %288 ], [ 0, %267 ], [ 0, %265 ], [ 0, %262 ], [ 0, %259 ], [ 0, %256 ], [ 0, %209 ], [ 0, %220 ], [ 0, %244 ], [ 0, %215 ], [ 0, %212 ], [ 0, %211 ], [ 0, %210 ], [ 0, %208 ], [ 1, %206 ], [ 1, %192 ], [ 1, %189 ], [ 1, %187 ], [ 0, %258 ], [ 0, %154 ], [ 0, %154 ], [ 0, %154 ], [ 0, %154 ], [ 0, %154 ], [ 0, %154 ], [ 0, %154 ], [ 0, %154 ], [ 0, %154 ], [ 0, %154 ], [ 0, %154 ], [ 0, %154 ], [ 0, %154 ], [ 0, %154 ], [ 0, %154 ], [ 0, %154 ], [ 0, %154 ], [ 0, %154 ], [ 0, %154 ], [ 0, %154 ], [ 0, %154 ], [ 0, %154 ], [ 0, %154 ], [ 0, %154 ], [ 0, %154 ], [ 0, %154 ], [ 0, %154 ], [ 0, %154 ], [ 0, %154 ], [ 0, %154 ], [ 0, %154 ], [ 0, %154 ], [ 0, %154 ], [ 0, %154 ], [ 0, %154 ], [ 0, %154 ], [ 0, %154 ], [ 0, %154 ], [ 0, %154 ], [ 0, %154 ], [ 0, %154 ], [ 0, %154 ], [ 0, %154 ], [ 0, %154 ], [ 0, %154 ], [ 0, %154 ], [ 0, %154 ], [ 0, %154 ], [ 0, %154 ], [ 0, %154 ], [ 0, %154 ], [ 0, %154 ], [ 0, %154 ], [ 0, %154 ], [ 0, %154 ], [ 0, %154 ], [ 0, %154 ], [ 0, %154 ], [ 0, %154 ], [ 0, %154 ], [ 0, %154 ], [ 0, %154 ], [ 0, %154 ], [ 0, %154 ], [ 0, %154 ], [ 0, %154 ], [ 0, %154 ], [ 0, %154 ], [ 0, %154 ], [ 0, %154 ], [ 0, %154 ], [ 0, %353 ]
  %470 = phi i8 [ 1, %288 ], [ 1, %267 ], [ %266, %265 ], [ 0, %262 ], [ 0, %259 ], [ 0, %256 ], [ 0, %209 ], [ 0, %220 ], [ 0, %244 ], [ 0, %215 ], [ 0, %212 ], [ 0, %211 ], [ 0, %210 ], [ 0, %208 ], [ 0, %206 ], [ 0, %192 ], [ 0, %189 ], [ 0, %187 ], [ 0, %258 ], [ 1, %154 ], [ 1, %154 ], [ 1, %154 ], [ 1, %154 ], [ 1, %154 ], [ 1, %154 ], [ 1, %154 ], [ 1, %154 ], [ 1, %154 ], [ 1, %154 ], [ 1, %154 ], [ 1, %154 ], [ 1, %154 ], [ 1, %154 ], [ 1, %154 ], [ 1, %154 ], [ 1, %154 ], [ 1, %154 ], [ 1, %154 ], [ 1, %154 ], [ 1, %154 ], [ 1, %154 ], [ 1, %154 ], [ 1, %154 ], [ 1, %154 ], [ 1, %154 ], [ 1, %154 ], [ 1, %154 ], [ 1, %154 ], [ 1, %154 ], [ 1, %154 ], [ 1, %154 ], [ 1, %154 ], [ 1, %154 ], [ 1, %154 ], [ 1, %154 ], [ 1, %154 ], [ 1, %154 ], [ 1, %154 ], [ 1, %154 ], [ 1, %154 ], [ 1, %154 ], [ 1, %154 ], [ 1, %154 ], [ 1, %154 ], [ 1, %154 ], [ 1, %154 ], [ 1, %154 ], [ 1, %154 ], [ 1, %154 ], [ 1, %154 ], [ 1, %154 ], [ 1, %154 ], [ 1, %154 ], [ 1, %154 ], [ 1, %154 ], [ 1, %154 ], [ 1, %154 ], [ 1, %154 ], [ 1, %154 ], [ 1, %154 ], [ 1, %154 ], [ 1, %154 ], [ 1, %154 ], [ 1, %154 ], [ 1, %154 ], [ 1, %154 ], [ 1, %154 ], [ 1, %154 ], [ 1, %154 ], [ 1, %154 ], [ %357, %353 ]
  %471 = phi i64 [ %274, %288 ], [ %130, %267 ], [ %130, %265 ], [ %130, %262 ], [ %130, %259 ], [ %130, %256 ], [ %130, %209 ], [ %130, %220 ], [ %130, %244 ], [ %130, %215 ], [ %130, %212 ], [ %130, %211 ], [ %130, %210 ], [ %130, %208 ], [ %130, %206 ], [ %130, %192 ], [ %130, %189 ], [ %130, %187 ], [ %130, %258 ], [ %130, %154 ], [ %130, %154 ], [ %130, %154 ], [ %130, %154 ], [ %130, %154 ], [ %130, %154 ], [ %130, %154 ], [ %130, %154 ], [ %130, %154 ], [ %130, %154 ], [ %130, %154 ], [ %130, %154 ], [ %130, %154 ], [ %130, %154 ], [ %130, %154 ], [ %130, %154 ], [ %130, %154 ], [ %130, %154 ], [ %130, %154 ], [ %130, %154 ], [ %130, %154 ], [ %130, %154 ], [ %130, %154 ], [ %130, %154 ], [ %130, %154 ], [ %130, %154 ], [ %130, %154 ], [ %130, %154 ], [ %130, %154 ], [ %130, %154 ], [ %130, %154 ], [ %130, %154 ], [ %130, %154 ], [ %130, %154 ], [ %130, %154 ], [ %130, %154 ], [ %130, %154 ], [ %130, %154 ], [ %130, %154 ], [ %130, %154 ], [ %130, %154 ], [ %130, %154 ], [ %130, %154 ], [ %130, %154 ], [ %130, %154 ], [ %130, %154 ], [ %130, %154 ], [ %130, %154 ], [ %130, %154 ], [ %130, %154 ], [ %130, %154 ], [ %130, %154 ], [ %130, %154 ], [ %130, %154 ], [ %130, %154 ], [ %130, %154 ], [ %130, %154 ], [ %130, %154 ], [ %130, %154 ], [ %130, %154 ], [ %130, %154 ], [ %130, %154 ], [ %130, %154 ], [ %130, %154 ], [ %130, %154 ], [ %130, %154 ], [ %130, %154 ], [ %130, %154 ], [ %130, %154 ], [ %130, %154 ], [ %130, %154 ], [ %130, %353 ]
  br i1 %117, label %484, label %472

472:                                              ; preds = %461
  %473 = lshr i8 %468, 5
  %474 = zext i8 %473 to i64
  %475 = getelementptr inbounds i32, i32* %6, i64 %474
  %476 = load i32, i32* %475, align 4, !tbaa !8
  %477 = and i8 %468, 31
  %478 = zext i8 %477 to i32
  %479 = shl i32 1, %478
  %480 = and i32 %476, %479
  %481 = icmp eq i32 %480, 0
  %482 = icmp eq i8 %156, 0
  %483 = and i1 %482, %481
  br i1 %483, label %524, label %486

484:                                              ; preds = %461
  %485 = icmp eq i8 %156, 0
  br i1 %485, label %524, label %486

486:                                              ; preds = %484, %472, %256
  %487 = phi i64 [ %462, %472 ], [ %462, %484 ], [ %123, %256 ]
  %488 = phi i64 [ %463, %472 ], [ %463, %484 ], [ %124, %256 ]
  %489 = phi i64 [ %464, %472 ], [ %464, %484 ], [ %125, %256 ]
  %490 = phi i64 [ %465, %472 ], [ %465, %484 ], [ %155, %256 ]
  %491 = phi i8 [ %466, %472 ], [ %466, %484 ], [ %127, %256 ]
  %492 = phi i8 [ %467, %472 ], [ %467, %484 ], [ %128, %256 ]
  %493 = phi i8 [ %468, %472 ], [ %468, %484 ], [ %257, %256 ]
  %494 = phi i8 [ %470, %472 ], [ %470, %484 ], [ 0, %256 ]
  %495 = phi i64 [ %471, %472 ], [ %471, %484 ], [ %130, %256 ]
  br i1 %109, label %496, label %623

496:                                              ; preds = %486
  %497 = and i8 %491, 1
  %498 = icmp eq i8 %497, 0
  %499 = and i1 %110, %498
  br i1 %499, label %500, label %516

500:                                              ; preds = %496
  %501 = icmp ult i64 %488, %495
  br i1 %501, label %502, label %504

502:                                              ; preds = %500
  %503 = getelementptr inbounds i8, i8* %0, i64 %488
  store i8 39, i8* %503, align 1, !tbaa !16
  br label %504

504:                                              ; preds = %502, %500
  %505 = add i64 %488, 1
  %506 = icmp ult i64 %505, %495
  br i1 %506, label %507, label %509

507:                                              ; preds = %504
  %508 = getelementptr inbounds i8, i8* %0, i64 %505
  store i8 36, i8* %508, align 1, !tbaa !16
  br label %509

509:                                              ; preds = %507, %504
  %510 = add i64 %488, 2
  %511 = icmp ult i64 %510, %495
  br i1 %511, label %512, label %514

512:                                              ; preds = %509
  %513 = getelementptr inbounds i8, i8* %0, i64 %510
  store i8 39, i8* %513, align 1, !tbaa !16
  br label %514

514:                                              ; preds = %512, %509
  %515 = add i64 %488, 3
  br label %516

516:                                              ; preds = %514, %496
  %517 = phi i64 [ %515, %514 ], [ %488, %496 ]
  %518 = phi i8 [ 1, %514 ], [ %491, %496 ]
  %519 = icmp ult i64 %517, %495
  br i1 %519, label %520, label %522

520:                                              ; preds = %516
  %521 = getelementptr inbounds i8, i8* %0, i64 %517
  store i8 92, i8* %521, align 1, !tbaa !16
  br label %522

522:                                              ; preds = %520, %516
  %523 = add i64 %517, 1
  br label %551

524:                                              ; preds = %484, %472, %426, %253, %252
  %525 = phi i64 [ %462, %484 ], [ %123, %252 ], [ %462, %472 ], [ %123, %253 ], [ %365, %426 ]
  %526 = phi i64 [ %463, %484 ], [ %124, %252 ], [ %463, %472 ], [ %124, %253 ], [ %427, %426 ]
  %527 = phi i64 [ %464, %484 ], [ %125, %252 ], [ %464, %472 ], [ %125, %253 ], [ %125, %426 ]
  %528 = phi i64 [ %465, %484 ], [ %155, %252 ], [ %465, %472 ], [ %155, %253 ], [ %354, %426 ]
  %529 = phi i8 [ %466, %484 ], [ %127, %252 ], [ %466, %472 ], [ %127, %253 ], [ %428, %426 ]
  %530 = phi i8 [ %467, %484 ], [ %128, %252 ], [ %467, %472 ], [ %128, %253 ], [ %128, %426 ]
  %531 = phi i8 [ %468, %484 ], [ 92, %252 ], [ %468, %472 ], [ 92, %253 ], [ %429, %426 ]
  %532 = phi i8 [ %469, %484 ], [ 0, %252 ], [ %469, %472 ], [ 0, %253 ], [ %431, %426 ]
  %533 = phi i8 [ %470, %484 ], [ 0, %252 ], [ %470, %472 ], [ 0, %253 ], [ %357, %426 ]
  %534 = phi i64 [ %471, %484 ], [ %130, %252 ], [ %471, %472 ], [ %130, %253 ], [ %130, %426 ]
  %535 = and i8 %529, 1
  %536 = icmp ne i8 %535, 0
  %537 = and i8 %532, 1
  %538 = icmp eq i8 %537, 0
  %539 = and i1 %536, %538
  br i1 %539, label %540, label %551

540:                                              ; preds = %524
  %541 = icmp ult i64 %526, %534
  br i1 %541, label %542, label %544

542:                                              ; preds = %540
  %543 = getelementptr inbounds i8, i8* %0, i64 %526
  store i8 39, i8* %543, align 1, !tbaa !16
  br label %544

544:                                              ; preds = %542, %540
  %545 = add i64 %526, 1
  %546 = icmp ult i64 %545, %534
  br i1 %546, label %547, label %549

547:                                              ; preds = %544
  %548 = getelementptr inbounds i8, i8* %0, i64 %545
  store i8 39, i8* %548, align 1, !tbaa !16
  br label %549

549:                                              ; preds = %547, %544
  %550 = add i64 %526, 2
  br label %551

551:                                              ; preds = %549, %524, %522
  %552 = phi i64 [ %534, %549 ], [ %534, %524 ], [ %495, %522 ]
  %553 = phi i8 [ %533, %549 ], [ %533, %524 ], [ %494, %522 ]
  %554 = phi i8 [ %531, %549 ], [ %531, %524 ], [ %493, %522 ]
  %555 = phi i8 [ %530, %549 ], [ %530, %524 ], [ %492, %522 ]
  %556 = phi i64 [ %528, %549 ], [ %528, %524 ], [ %490, %522 ]
  %557 = phi i64 [ %527, %549 ], [ %527, %524 ], [ %489, %522 ]
  %558 = phi i64 [ %525, %549 ], [ %525, %524 ], [ %487, %522 ]
  %559 = phi i64 [ %550, %549 ], [ %526, %524 ], [ %523, %522 ]
  %560 = phi i8 [ 0, %549 ], [ %529, %524 ], [ %518, %522 ]
  %561 = icmp ult i64 %559, %552
  br i1 %561, label %562, label %564

562:                                              ; preds = %551
  %563 = getelementptr inbounds i8, i8* %0, i64 %559
  store i8 %554, i8* %563, align 1, !tbaa !16
  br label %564

564:                                              ; preds = %562, %551
  %565 = add i64 %559, 1
  %566 = and i8 %553, 1
  %567 = icmp eq i8 %566, 0
  %568 = select i1 %567, i8 0, i8 %129
  br label %569

569:                                              ; preds = %564, %208
  %570 = phi i64 [ %558, %564 ], [ %123, %208 ]
  %571 = phi i64 [ %565, %564 ], [ %124, %208 ]
  %572 = phi i64 [ %557, %564 ], [ %125, %208 ]
  %573 = phi i64 [ %556, %564 ], [ %155, %208 ]
  %574 = phi i8 [ %560, %564 ], [ %127, %208 ]
  %575 = phi i8 [ %555, %564 ], [ %128, %208 ]
  %576 = phi i8 [ %568, %564 ], [ %129, %208 ]
  %577 = phi i64 [ %552, %564 ], [ %130, %208 ]
  %578 = add i64 %570, 1
  br label %122

579:                                              ; preds = %136, %132
  %580 = phi i64 [ -1, %132 ], [ %123, %136 ]
  %581 = icmp eq i64 %124, 0
  %582 = and i1 %110, %581
  %583 = xor i1 %582, true
  %584 = or i1 %109, %583
  br i1 %584, label %585, label %623

585:                                              ; preds = %579
  %586 = and i1 %110, %109
  %587 = xor i1 %586, true
  %588 = and i8 %128, 1
  %589 = icmp eq i8 %588, 0
  %590 = or i1 %589, %587
  br i1 %590, label %600, label %591

591:                                              ; preds = %585
  %592 = and i8 %129, 1
  %593 = icmp eq i8 %592, 0
  br i1 %593, label %596, label %594

594:                                              ; preds = %591
  %595 = call fastcc i64 @quotearg_buffer_restyled(i8* %0, i64 %125, i8* %2, i64 %580, i32 5, i32 %5, i32* %6, i8* %94, i8* %95)
  br label %638

596:                                              ; preds = %591
  %597 = icmp eq i64 %130, 0
  %598 = icmp ne i64 %125, 0
  %599 = and i1 %598, %597
  br i1 %599, label %26, label %600

600:                                              ; preds = %596, %585
  %601 = icmp ne i8* %97, null
  %602 = and i1 %601, %109
  br i1 %602, label %603, label %618

603:                                              ; preds = %600
  %604 = load i8, i8* %97, align 1, !tbaa !16
  %605 = icmp eq i8 %604, 0
  br i1 %605, label %618, label %606

606:                                              ; preds = %613, %603
  %607 = phi i8 [ %616, %613 ], [ %604, %603 ]
  %608 = phi i8* [ %615, %613 ], [ %97, %603 ]
  %609 = phi i64 [ %614, %613 ], [ %124, %603 ]
  %610 = icmp ult i64 %609, %130
  br i1 %610, label %611, label %613

611:                                              ; preds = %606
  %612 = getelementptr inbounds i8, i8* %0, i64 %609
  store i8 %607, i8* %612, align 1, !tbaa !16
  br label %613

613:                                              ; preds = %611, %606
  %614 = add i64 %609, 1
  %615 = getelementptr inbounds i8, i8* %608, i64 1
  %616 = load i8, i8* %615, align 1, !tbaa !16
  %617 = icmp eq i8 %616, 0
  br i1 %617, label %618, label %606

618:                                              ; preds = %613, %603, %600
  %619 = phi i64 [ %124, %600 ], [ %124, %603 ], [ %614, %613 ]
  %620 = icmp ult i64 %619, %130
  br i1 %620, label %621, label %638

621:                                              ; preds = %618
  %622 = getelementptr inbounds i8, i8* %0, i64 %619
  store i8 0, i8* %622, align 1, !tbaa !16
  br label %638

623:                                              ; preds = %579, %486, %371, %160
  %624 = phi i64 [ %354, %371 ], [ %155, %160 ], [ %490, %486 ], [ %580, %579 ]
  %625 = phi i64 [ %130, %371 ], [ %130, %160 ], [ %495, %486 ], [ %130, %579 ]
  %626 = icmp eq i32 %93, 2
  br i1 %626, label %627, label %632

627:                                              ; preds = %623, %352, %268, %265, %254, %252, %210
  %628 = phi i64 [ %625, %623 ], [ %130, %352 ], [ %130, %268 ], [ %130, %265 ], [ %130, %254 ], [ %130, %252 ], [ %130, %210 ]
  %629 = phi i64 [ %624, %623 ], [ %305, %352 ], [ %155, %268 ], [ %155, %265 ], [ %155, %254 ], [ %155, %252 ], [ %155, %210 ]
  %630 = icmp eq i8 %101, 0
  %631 = select i1 %630, i32 2, i32 4
  br label %632

632:                                              ; preds = %627, %623, %224, %147
  %633 = phi i64 [ %625, %623 ], [ %628, %627 ], [ %130, %147 ], [ %130, %224 ]
  %634 = phi i64 [ %624, %623 ], [ %629, %627 ], [ %155, %224 ], [ %145, %147 ]
  %635 = phi i32 [ %93, %623 ], [ %631, %627 ], [ 5, %224 ], [ %93, %147 ]
  %636 = and i32 %5, -3
  %637 = call fastcc i64 @quotearg_buffer_restyled(i8* %0, i64 %633, i8* %2, i64 %634, i32 %635, i32 %636, i32* null, i8* %94, i8* %95)
  br label %638

638:                                              ; preds = %632, %621, %618, %594
  %639 = phi i64 [ %637, %632 ], [ %595, %594 ], [ %619, %621 ], [ %619, %618 ]
  ret i64 %639
}

; Function Attrs: nounwind
declare dso_local void @free(i8* nocapture) local_unnamed_addr #1

; Function Attrs: nounwind uwtable
define internal noalias i8* @xmalloc(i64) #0 {
  %2 = tail call noalias i8* @malloc(i64 %0) #11
  %3 = icmp eq i8* %2, null
  %4 = icmp ne i64 %0, 0
  %5 = and i1 %4, %3
  br i1 %5, label %6, label %7

6:                                                ; preds = %1
  tail call void @xalloc_die() #21
  unreachable

7:                                                ; preds = %1
  ret i8* %2
}

; Function Attrs: nofree nounwind
declare dso_local noalias i8* @malloc(i64) local_unnamed_addr #6

; Function Attrs: nounwind
declare dso_local i64 @__ctype_get_mb_cur_max() local_unnamed_addr #1

; Function Attrs: nounwind uwtable
define internal fastcc i8* @gettext_quote(i8*, i32) unnamed_addr #0 {
  %3 = tail call i8* @dcgettext(i8* null, i8* %0, i32 5) #11
  %4 = icmp eq i8* %3, %0
  br i1 %4, label %5, label %71

5:                                                ; preds = %2
  %6 = tail call i8* @locale_charset() #11
  %7 = load i8, i8* %6, align 1, !tbaa !16
  %8 = and i8 %7, -33
  switch i8 %8, label %68 [
    i8 85, label %9
    i8 71, label %35
  ]

9:                                                ; preds = %5
  %10 = getelementptr inbounds i8, i8* %6, i64 1
  %11 = load i8, i8* %10, align 1, !tbaa !16
  %12 = and i8 %11, -33
  %13 = icmp eq i8 %12, 84
  br i1 %13, label %14, label %68

14:                                               ; preds = %9
  %15 = getelementptr inbounds i8, i8* %6, i64 2
  %16 = load i8, i8* %15, align 1, !tbaa !16
  %17 = and i8 %16, -33
  %18 = icmp eq i8 %17, 70
  br i1 %18, label %19, label %68

19:                                               ; preds = %14
  %20 = getelementptr inbounds i8, i8* %6, i64 3
  %21 = load i8, i8* %20, align 1, !tbaa !16
  %22 = icmp eq i8 %21, 45
  br i1 %22, label %23, label %68

23:                                               ; preds = %19
  %24 = getelementptr inbounds i8, i8* %6, i64 4
  %25 = load i8, i8* %24, align 1, !tbaa !16
  %26 = icmp eq i8 %25, 56
  br i1 %26, label %27, label %68

27:                                               ; preds = %23
  %28 = getelementptr inbounds i8, i8* %6, i64 5
  %29 = load i8, i8* %28, align 1, !tbaa !16
  %30 = icmp eq i8 %29, 0
  br i1 %30, label %31, label %68

31:                                               ; preds = %27
  %32 = load i8, i8* %0, align 1, !tbaa !16
  %33 = icmp eq i8 %32, 96
  %34 = select i1 %33, i8* getelementptr inbounds ([4 x i8], [4 x i8]* @.str.14.67, i64 0, i64 0), i8* getelementptr inbounds ([4 x i8], [4 x i8]* @.str.15.68, i64 0, i64 0)
  br label %71

35:                                               ; preds = %5
  %36 = getelementptr inbounds i8, i8* %6, i64 1
  %37 = load i8, i8* %36, align 1, !tbaa !16
  %38 = and i8 %37, -33
  %39 = icmp eq i8 %38, 66
  br i1 %39, label %40, label %68

40:                                               ; preds = %35
  %41 = getelementptr inbounds i8, i8* %6, i64 2
  %42 = load i8, i8* %41, align 1, !tbaa !16
  %43 = icmp eq i8 %42, 49
  br i1 %43, label %44, label %68

44:                                               ; preds = %40
  %45 = getelementptr inbounds i8, i8* %6, i64 3
  %46 = load i8, i8* %45, align 1, !tbaa !16
  %47 = icmp eq i8 %46, 56
  br i1 %47, label %48, label %68

48:                                               ; preds = %44
  %49 = getelementptr inbounds i8, i8* %6, i64 4
  %50 = load i8, i8* %49, align 1, !tbaa !16
  %51 = icmp eq i8 %50, 48
  br i1 %51, label %52, label %68

52:                                               ; preds = %48
  %53 = getelementptr inbounds i8, i8* %6, i64 5
  %54 = load i8, i8* %53, align 1, !tbaa !16
  %55 = icmp eq i8 %54, 51
  br i1 %55, label %56, label %68

56:                                               ; preds = %52
  %57 = getelementptr inbounds i8, i8* %6, i64 6
  %58 = load i8, i8* %57, align 1, !tbaa !16
  %59 = icmp eq i8 %58, 48
  br i1 %59, label %60, label %68

60:                                               ; preds = %56
  %61 = getelementptr inbounds i8, i8* %6, i64 7
  %62 = load i8, i8* %61, align 1, !tbaa !16
  %63 = icmp eq i8 %62, 0
  br i1 %63, label %64, label %68

64:                                               ; preds = %60
  %65 = load i8, i8* %0, align 1, !tbaa !16
  %66 = icmp eq i8 %65, 96
  %67 = select i1 %66, i8* getelementptr inbounds ([4 x i8], [4 x i8]* @.str.17.69, i64 0, i64 0), i8* getelementptr inbounds ([3 x i8], [3 x i8]* @.str.18.70, i64 0, i64 0)
  br label %71

68:                                               ; preds = %60, %56, %52, %48, %44, %40, %35, %27, %23, %19, %14, %9, %5
  %69 = icmp eq i32 %1, 9
  %70 = select i1 %69, i8* getelementptr inbounds ([2 x i8], [2 x i8]* @.str.10.66, i64 0, i64 0), i8* getelementptr inbounds ([2 x i8], [2 x i8]* @.str.12.65, i64 0, i64 0)
  br label %71

71:                                               ; preds = %68, %64, %31, %2
  %72 = phi i8* [ %34, %31 ], [ %67, %64 ], [ %70, %68 ], [ %3, %2 ]
  ret i8* %72
}

; Function Attrs: argmemonly nofree nounwind readonly
declare dso_local i64 @strlen(i8* nocapture) local_unnamed_addr #8

; Function Attrs: nofree nounwind readonly
declare i32 @bcmp(i8* nocapture, i8* nocapture, i64) local_unnamed_addr #9

; Function Attrs: nounwind readnone
declare dso_local i16** @__ctype_b_loc() local_unnamed_addr #7

; Function Attrs: nounwind uwtable
define internal i64 @rpl_mbrtowc(i32*, i8*, i64, %struct.__mbstate_t*) #0 {
  %5 = alloca i32, align 4
  %6 = bitcast i32* %5 to i8*
  call void @llvm.lifetime.start.p0i8(i64 4, i8* nonnull %6) #11
  %7 = icmp eq i32* %0, null
  %8 = select i1 %7, i32* %5, i32* %0
  %9 = call i64 @mbrtowc(i32* %8, i8* %1, i64 %2, %struct.__mbstate_t* %3) #11
  %10 = icmp ugt i64 %9, -3
  %11 = icmp ne i64 %2, 0
  %12 = and i1 %11, %10
  br i1 %12, label %13, label %18

13:                                               ; preds = %4
  %14 = call zeroext i1 @hard_locale(i32 0) #11
  br i1 %14, label %18, label %15

15:                                               ; preds = %13
  %16 = load i8, i8* %1, align 1, !tbaa !16
  %17 = zext i8 %16 to i32
  store i32 %17, i32* %8, align 4, !tbaa !8
  br label %18

18:                                               ; preds = %15, %13, %4
  %19 = phi i64 [ 1, %15 ], [ %9, %13 ], [ %9, %4 ]
  call void @llvm.lifetime.end.p0i8(i64 4, i8* nonnull %6) #11
  ret i64 %19
}

; Function Attrs: nounwind
declare dso_local i32 @iswprint(i32) local_unnamed_addr #1

; Function Attrs: nounwind readonly
declare dso_local i32 @mbsinit(%struct.__mbstate_t*) local_unnamed_addr #10

; Function Attrs: nounwind
declare dso_local i64 @mbrtowc(i32*, i8*, i64, %struct.__mbstate_t*) local_unnamed_addr #1

; Function Attrs: nounwind uwtable
define internal zeroext i1 @hard_locale(i32) #0 {
  %2 = alloca [257 x i8], align 16
  %3 = getelementptr inbounds [257 x i8], [257 x i8]* %2, i64 0, i64 0
  call void @llvm.lifetime.start.p0i8(i64 257, i8* nonnull %3) #11
  %4 = call i32 @setlocale_null_r(i32 %0, i8* nonnull %3, i64 257) #11
  %5 = icmp eq i32 %4, 0
  br i1 %5, label %6, label %13

6:                                                ; preds = %1
  %7 = bitcast [257 x i8]* %2 to i16*
  %8 = load i16, i16* %7, align 16
  %9 = icmp eq i16 %8, 67
  br i1 %9, label %13, label %10

10:                                               ; preds = %6
  %11 = call i32 @bcmp(i8* nonnull %3, i8* getelementptr inbounds ([6 x i8], [6 x i8]* @.str.1.107, i64 0, i64 0), i64 6)
  %12 = icmp ne i32 %11, 0
  br label %13

13:                                               ; preds = %10, %6, %1
  %14 = phi i1 [ false, %1 ], [ false, %6 ], [ %12, %10 ]
  call void @llvm.lifetime.end.p0i8(i64 257, i8* nonnull %3) #11
  ret i1 %14
}

; Function Attrs: nounwind uwtable
define internal i32 @setlocale_null_r(i32, i8* nocapture nonnull, i64) #0 {
  %4 = tail call i8* @setlocale(i32 %0, i8* null) #11
  %5 = icmp eq i8* %4, null
  br i1 %5, label %6, label %9

6:                                                ; preds = %3
  %7 = icmp eq i64 %2, 0
  br i1 %7, label %19, label %8

8:                                                ; preds = %6
  store i8 0, i8* %1, align 1, !tbaa !16
  br label %19

9:                                                ; preds = %3
  %10 = tail call i64 @strlen(i8* nonnull %4) #24
  %11 = icmp ult i64 %10, %2
  br i1 %11, label %12, label %14

12:                                               ; preds = %9
  %13 = add nuw i64 %10, 1
  tail call void @llvm.memcpy.p0i8.p0i8.i64(i8* nonnull align 1 %1, i8* nonnull align 1 %4, i64 %13, i1 false) #11
  br label %19

14:                                               ; preds = %9
  %15 = icmp eq i64 %2, 0
  br i1 %15, label %19, label %16

16:                                               ; preds = %14
  %17 = add i64 %2, -1
  tail call void @llvm.memcpy.p0i8.p0i8.i64(i8* nonnull align 1 %1, i8* nonnull align 1 %4, i64 %17, i1 false) #11
  %18 = getelementptr inbounds i8, i8* %1, i64 %17
  store i8 0, i8* %18, align 1, !tbaa !16
  br label %19

19:                                               ; preds = %16, %14, %12, %8, %6
  %20 = phi i32 [ 22, %6 ], [ 22, %8 ], [ 0, %12 ], [ 34, %14 ], [ 34, %16 ]
  ret i32 %20
}

; Function Attrs: nounwind uwtable
define internal i8* @locale_charset() #0 {
  %1 = tail call i8* @nl_langinfo(i32 14) #11
  %2 = icmp eq i8* %1, null
  %3 = select i1 %2, i8* getelementptr inbounds ([1 x i8], [1 x i8]* @.str.110, i64 0, i64 0), i8* %1
  %4 = load i8, i8* %3, align 1, !tbaa !16
  %5 = icmp eq i8 %4, 0
  %6 = select i1 %5, i8* getelementptr inbounds ([6 x i8], [6 x i8]* @.str.1.111, i64 0, i64 0), i8* %3
  ret i8* %6
}

; Function Attrs: nounwind
declare dso_local i8* @nl_langinfo(i32) local_unnamed_addr #1

; Function Attrs: nounwind
declare dso_local noalias i8* @realloc(i8* nocapture, i64) local_unnamed_addr #1

; Function Attrs: nounwind
declare void @llvm.va_start(i8*) #11

; Function Attrs: nounwind uwtable
define internal void @version_etc_va(%struct._IO_FILE*, i8*, i8*, i8*, %struct.__va_list_tag* nocapture) #0 {
  %6 = alloca [10 x i8*], align 16
  %7 = bitcast [10 x i8*]* %6 to i8*
  call void @llvm.lifetime.start.p0i8(i64 80, i8* nonnull %7) #11
  %8 = getelementptr inbounds %struct.__va_list_tag, %struct.__va_list_tag* %4, i64 0, i32 0
  %9 = getelementptr inbounds %struct.__va_list_tag, %struct.__va_list_tag* %4, i64 0, i32 2
  %10 = getelementptr inbounds %struct.__va_list_tag, %struct.__va_list_tag* %4, i64 0, i32 3
  %11 = load i32, i32* %8, align 8
  %12 = icmp ult i32 %11, 41
  br i1 %12, label %13, label %18

13:                                               ; preds = %5
  %14 = load i8*, i8** %10, align 8
  %15 = sext i32 %11 to i64
  %16 = getelementptr i8, i8* %14, i64 %15
  %17 = add nuw nsw i32 %11, 8
  store i32 %17, i32* %8, align 8
  br label %21

18:                                               ; preds = %5
  %19 = load i8*, i8** %9, align 8
  %20 = getelementptr i8, i8* %19, i64 8
  store i8* %20, i8** %9, align 8
  br label %21

21:                                               ; preds = %18, %13
  %22 = phi i32 [ %17, %13 ], [ %11, %18 ]
  %23 = phi i8* [ %16, %13 ], [ %19, %18 ]
  %24 = bitcast i8* %23 to i8**
  %25 = load i8*, i8** %24, align 8
  %26 = getelementptr inbounds [10 x i8*], [10 x i8*]* %6, i64 0, i64 0
  store i8* %25, i8** %26, align 16, !tbaa !4
  %27 = icmp eq i8* %25, null
  br i1 %27, label %30, label %28

28:                                               ; preds = %21
  %29 = icmp ult i32 %22, 41
  br i1 %29, label %35, label %32

30:                                               ; preds = %135, %128, %121, %114, %108, %91, %74, %57, %40, %21
  %31 = phi i64 [ 0, %21 ], [ 1, %40 ], [ 2, %57 ], [ 3, %74 ], [ 4, %91 ], [ 5, %108 ], [ 6, %114 ], [ 7, %121 ], [ 8, %128 ], [ %142, %135 ]
  call void @version_etc_arn(%struct._IO_FILE* %0, i8* %1, i8* %2, i8* %3, i8** nonnull %26, i64 %31)
  call void @llvm.lifetime.end.p0i8(i64 80, i8* nonnull %7) #11
  ret void

32:                                               ; preds = %28
  %33 = load i8*, i8** %9, align 8
  %34 = getelementptr i8, i8* %33, i64 8
  store i8* %34, i8** %9, align 8
  br label %40

35:                                               ; preds = %28
  %36 = load i8*, i8** %10, align 8
  %37 = sext i32 %22 to i64
  %38 = getelementptr i8, i8* %36, i64 %37
  %39 = add nuw nsw i32 %22, 8
  store i32 %39, i32* %8, align 8
  br label %40

40:                                               ; preds = %35, %32
  %41 = phi i32 [ %39, %35 ], [ %22, %32 ]
  %42 = phi i8* [ %38, %35 ], [ %33, %32 ]
  %43 = bitcast i8* %42 to i8**
  %44 = load i8*, i8** %43, align 8
  %45 = getelementptr inbounds [10 x i8*], [10 x i8*]* %6, i64 0, i64 1
  store i8* %44, i8** %45, align 8, !tbaa !4
  %46 = icmp eq i8* %44, null
  br i1 %46, label %30, label %47

47:                                               ; preds = %40
  %48 = icmp ult i32 %41, 41
  br i1 %48, label %52, label %49

49:                                               ; preds = %47
  %50 = load i8*, i8** %9, align 8
  %51 = getelementptr i8, i8* %50, i64 8
  store i8* %51, i8** %9, align 8
  br label %57

52:                                               ; preds = %47
  %53 = load i8*, i8** %10, align 8
  %54 = sext i32 %41 to i64
  %55 = getelementptr i8, i8* %53, i64 %54
  %56 = add nuw nsw i32 %41, 8
  store i32 %56, i32* %8, align 8
  br label %57

57:                                               ; preds = %52, %49
  %58 = phi i32 [ %56, %52 ], [ %41, %49 ]
  %59 = phi i8* [ %55, %52 ], [ %50, %49 ]
  %60 = bitcast i8* %59 to i8**
  %61 = load i8*, i8** %60, align 8
  %62 = getelementptr inbounds [10 x i8*], [10 x i8*]* %6, i64 0, i64 2
  store i8* %61, i8** %62, align 16, !tbaa !4
  %63 = icmp eq i8* %61, null
  br i1 %63, label %30, label %64

64:                                               ; preds = %57
  %65 = icmp ult i32 %58, 41
  br i1 %65, label %69, label %66

66:                                               ; preds = %64
  %67 = load i8*, i8** %9, align 8
  %68 = getelementptr i8, i8* %67, i64 8
  store i8* %68, i8** %9, align 8
  br label %74

69:                                               ; preds = %64
  %70 = load i8*, i8** %10, align 8
  %71 = sext i32 %58 to i64
  %72 = getelementptr i8, i8* %70, i64 %71
  %73 = add nuw nsw i32 %58, 8
  store i32 %73, i32* %8, align 8
  br label %74

74:                                               ; preds = %69, %66
  %75 = phi i32 [ %73, %69 ], [ %58, %66 ]
  %76 = phi i8* [ %72, %69 ], [ %67, %66 ]
  %77 = bitcast i8* %76 to i8**
  %78 = load i8*, i8** %77, align 8
  %79 = getelementptr inbounds [10 x i8*], [10 x i8*]* %6, i64 0, i64 3
  store i8* %78, i8** %79, align 8, !tbaa !4
  %80 = icmp eq i8* %78, null
  br i1 %80, label %30, label %81

81:                                               ; preds = %74
  %82 = icmp ult i32 %75, 41
  br i1 %82, label %86, label %83

83:                                               ; preds = %81
  %84 = load i8*, i8** %9, align 8
  %85 = getelementptr i8, i8* %84, i64 8
  store i8* %85, i8** %9, align 8
  br label %91

86:                                               ; preds = %81
  %87 = load i8*, i8** %10, align 8
  %88 = sext i32 %75 to i64
  %89 = getelementptr i8, i8* %87, i64 %88
  %90 = add nuw nsw i32 %75, 8
  store i32 %90, i32* %8, align 8
  br label %91

91:                                               ; preds = %86, %83
  %92 = phi i32 [ %90, %86 ], [ %75, %83 ]
  %93 = phi i8* [ %89, %86 ], [ %84, %83 ]
  %94 = bitcast i8* %93 to i8**
  %95 = load i8*, i8** %94, align 8
  %96 = getelementptr inbounds [10 x i8*], [10 x i8*]* %6, i64 0, i64 4
  store i8* %95, i8** %96, align 16, !tbaa !4
  %97 = icmp eq i8* %95, null
  br i1 %97, label %30, label %98

98:                                               ; preds = %91
  %99 = icmp ult i32 %92, 41
  br i1 %99, label %103, label %100

100:                                              ; preds = %98
  %101 = load i8*, i8** %9, align 8
  %102 = getelementptr i8, i8* %101, i64 8
  store i8* %102, i8** %9, align 8
  br label %108

103:                                              ; preds = %98
  %104 = load i8*, i8** %10, align 8
  %105 = sext i32 %92 to i64
  %106 = getelementptr i8, i8* %104, i64 %105
  %107 = add nuw nsw i32 %92, 8
  store i32 %107, i32* %8, align 8
  br label %108

108:                                              ; preds = %103, %100
  %109 = phi i8* [ %106, %103 ], [ %101, %100 ]
  %110 = bitcast i8* %109 to i8**
  %111 = load i8*, i8** %110, align 8
  %112 = getelementptr inbounds [10 x i8*], [10 x i8*]* %6, i64 0, i64 5
  store i8* %111, i8** %112, align 8, !tbaa !4
  %113 = icmp eq i8* %111, null
  br i1 %113, label %30, label %114

114:                                              ; preds = %108
  %115 = load i8*, i8** %9, align 8
  %116 = getelementptr i8, i8* %115, i64 8
  store i8* %116, i8** %9, align 8
  %117 = bitcast i8* %115 to i8**
  %118 = load i8*, i8** %117, align 8
  %119 = getelementptr inbounds [10 x i8*], [10 x i8*]* %6, i64 0, i64 6
  store i8* %118, i8** %119, align 16, !tbaa !4
  %120 = icmp eq i8* %118, null
  br i1 %120, label %30, label %121

121:                                              ; preds = %114
  %122 = load i8*, i8** %9, align 8
  %123 = getelementptr i8, i8* %122, i64 8
  store i8* %123, i8** %9, align 8
  %124 = bitcast i8* %122 to i8**
  %125 = load i8*, i8** %124, align 8
  %126 = getelementptr inbounds [10 x i8*], [10 x i8*]* %6, i64 0, i64 7
  store i8* %125, i8** %126, align 8, !tbaa !4
  %127 = icmp eq i8* %125, null
  br i1 %127, label %30, label %128

128:                                              ; preds = %121
  %129 = load i8*, i8** %9, align 8
  %130 = getelementptr i8, i8* %129, i64 8
  store i8* %130, i8** %9, align 8
  %131 = bitcast i8* %129 to i8**
  %132 = load i8*, i8** %131, align 8
  %133 = getelementptr inbounds [10 x i8*], [10 x i8*]* %6, i64 0, i64 8
  store i8* %132, i8** %133, align 16, !tbaa !4
  %134 = icmp eq i8* %132, null
  br i1 %134, label %30, label %135

135:                                              ; preds = %128
  %136 = load i8*, i8** %9, align 8
  %137 = getelementptr i8, i8* %136, i64 8
  store i8* %137, i8** %9, align 8
  %138 = bitcast i8* %136 to i8**
  %139 = load i8*, i8** %138, align 8
  %140 = getelementptr inbounds [10 x i8*], [10 x i8*]* %6, i64 0, i64 9
  store i8* %139, i8** %140, align 8, !tbaa !4
  %141 = icmp eq i8* %139, null
  %142 = select i1 %141, i64 9, i64 10
  br label %30
}

; Function Attrs: nounwind
declare void @llvm.va_end(i8*) #11

; Function Attrs: nounwind uwtable
define internal void @version_etc_arn(%struct._IO_FILE*, i8*, i8*, i8*, i8** readonly, i64) #0 {
  %7 = icmp eq i8* %1, null
  br i1 %7, label %10, label %8

8:                                                ; preds = %6
  %9 = tail call i32 (%struct._IO_FILE*, i32, i8*, ...) @__fprintf_chk(%struct._IO_FILE* %0, i32 1, i8* getelementptr inbounds ([12 x i8], [12 x i8]* @.str.73, i64 0, i64 0), i8* nonnull %1, i8* %2, i8* %3) #11
  br label %12

10:                                               ; preds = %6
  %11 = tail call i32 (%struct._IO_FILE*, i32, i8*, ...) @__fprintf_chk(%struct._IO_FILE* %0, i32 1, i8* getelementptr inbounds ([7 x i8], [7 x i8]* @.str.1.74, i64 0, i64 0), i8* %2, i8* %3) #11
  br label %12

12:                                               ; preds = %10, %8
  %13 = tail call i8* @dcgettext(i8* null, i8* getelementptr inbounds ([4 x i8], [4 x i8]* @.str.2.75, i64 0, i64 0), i32 5) #11
  %14 = tail call i32 (%struct._IO_FILE*, i32, i8*, ...) @__fprintf_chk(%struct._IO_FILE* %0, i32 1, i8* getelementptr inbounds ([47 x i8], [47 x i8]* @version_etc_copyright, i64 0, i64 0), i8* %13, i32 2020) #11
  %15 = tail call i32 @fputs_unlocked(i8* getelementptr inbounds ([2 x i8], [2 x i8]* @.str.3.76, i64 0, i64 0), %struct._IO_FILE* %0)
  %16 = tail call i8* @dcgettext(i8* null, i8* getelementptr inbounds ([171 x i8], [171 x i8]* @.str.4.77, i64 0, i64 0), i32 5) #11
  %17 = tail call i32 (%struct._IO_FILE*, i32, i8*, ...) @__fprintf_chk(%struct._IO_FILE* %0, i32 1, i8* %16, i8* getelementptr inbounds ([34 x i8], [34 x i8]* @.str.5.78, i64 0, i64 0)) #11
  %18 = tail call i32 @fputs_unlocked(i8* getelementptr inbounds ([2 x i8], [2 x i8]* @.str.3.76, i64 0, i64 0), %struct._IO_FILE* %0)
  switch i64 %5, label %127 [
    i64 0, label %147
    i64 1, label %19
    i64 2, label %23
    i64 3, label %29
    i64 4, label %37
    i64 5, label %47
    i64 6, label %59
    i64 7, label %73
    i64 8, label %89
    i64 9, label %107
  ]

19:                                               ; preds = %12
  %20 = tail call i8* @dcgettext(i8* null, i8* getelementptr inbounds ([16 x i8], [16 x i8]* @.str.6.79, i64 0, i64 0), i32 5) #11
  %21 = load i8*, i8** %4, align 8, !tbaa !4
  %22 = tail call i32 (%struct._IO_FILE*, i32, i8*, ...) @__fprintf_chk(%struct._IO_FILE* %0, i32 1, i8* %20, i8* %21) #11
  br label %147

23:                                               ; preds = %12
  %24 = tail call i8* @dcgettext(i8* null, i8* getelementptr inbounds ([23 x i8], [23 x i8]* @.str.7.80, i64 0, i64 0), i32 5) #11
  %25 = load i8*, i8** %4, align 8, !tbaa !4
  %26 = getelementptr inbounds i8*, i8** %4, i64 1
  %27 = load i8*, i8** %26, align 8, !tbaa !4
  %28 = tail call i32 (%struct._IO_FILE*, i32, i8*, ...) @__fprintf_chk(%struct._IO_FILE* %0, i32 1, i8* %24, i8* %25, i8* %27) #11
  br label %147

29:                                               ; preds = %12
  %30 = tail call i8* @dcgettext(i8* null, i8* getelementptr inbounds ([28 x i8], [28 x i8]* @.str.8.81, i64 0, i64 0), i32 5) #11
  %31 = load i8*, i8** %4, align 8, !tbaa !4
  %32 = getelementptr inbounds i8*, i8** %4, i64 1
  %33 = load i8*, i8** %32, align 8, !tbaa !4
  %34 = getelementptr inbounds i8*, i8** %4, i64 2
  %35 = load i8*, i8** %34, align 8, !tbaa !4
  %36 = tail call i32 (%struct._IO_FILE*, i32, i8*, ...) @__fprintf_chk(%struct._IO_FILE* %0, i32 1, i8* %30, i8* %31, i8* %33, i8* %35) #11
  br label %147

37:                                               ; preds = %12
  %38 = tail call i8* @dcgettext(i8* null, i8* getelementptr inbounds ([32 x i8], [32 x i8]* @.str.9.82, i64 0, i64 0), i32 5) #11
  %39 = load i8*, i8** %4, align 8, !tbaa !4
  %40 = getelementptr inbounds i8*, i8** %4, i64 1
  %41 = load i8*, i8** %40, align 8, !tbaa !4
  %42 = getelementptr inbounds i8*, i8** %4, i64 2
  %43 = load i8*, i8** %42, align 8, !tbaa !4
  %44 = getelementptr inbounds i8*, i8** %4, i64 3
  %45 = load i8*, i8** %44, align 8, !tbaa !4
  %46 = tail call i32 (%struct._IO_FILE*, i32, i8*, ...) @__fprintf_chk(%struct._IO_FILE* %0, i32 1, i8* %38, i8* %39, i8* %41, i8* %43, i8* %45) #11
  br label %147

47:                                               ; preds = %12
  %48 = tail call i8* @dcgettext(i8* null, i8* getelementptr inbounds ([36 x i8], [36 x i8]* @.str.10.83, i64 0, i64 0), i32 5) #11
  %49 = load i8*, i8** %4, align 8, !tbaa !4
  %50 = getelementptr inbounds i8*, i8** %4, i64 1
  %51 = load i8*, i8** %50, align 8, !tbaa !4
  %52 = getelementptr inbounds i8*, i8** %4, i64 2
  %53 = load i8*, i8** %52, align 8, !tbaa !4
  %54 = getelementptr inbounds i8*, i8** %4, i64 3
  %55 = load i8*, i8** %54, align 8, !tbaa !4
  %56 = getelementptr inbounds i8*, i8** %4, i64 4
  %57 = load i8*, i8** %56, align 8, !tbaa !4
  %58 = tail call i32 (%struct._IO_FILE*, i32, i8*, ...) @__fprintf_chk(%struct._IO_FILE* %0, i32 1, i8* %48, i8* %49, i8* %51, i8* %53, i8* %55, i8* %57) #11
  br label %147

59:                                               ; preds = %12
  %60 = tail call i8* @dcgettext(i8* null, i8* getelementptr inbounds ([40 x i8], [40 x i8]* @.str.11.84, i64 0, i64 0), i32 5) #11
  %61 = load i8*, i8** %4, align 8, !tbaa !4
  %62 = getelementptr inbounds i8*, i8** %4, i64 1
  %63 = load i8*, i8** %62, align 8, !tbaa !4
  %64 = getelementptr inbounds i8*, i8** %4, i64 2
  %65 = load i8*, i8** %64, align 8, !tbaa !4
  %66 = getelementptr inbounds i8*, i8** %4, i64 3
  %67 = load i8*, i8** %66, align 8, !tbaa !4
  %68 = getelementptr inbounds i8*, i8** %4, i64 4
  %69 = load i8*, i8** %68, align 8, !tbaa !4
  %70 = getelementptr inbounds i8*, i8** %4, i64 5
  %71 = load i8*, i8** %70, align 8, !tbaa !4
  %72 = tail call i32 (%struct._IO_FILE*, i32, i8*, ...) @__fprintf_chk(%struct._IO_FILE* %0, i32 1, i8* %60, i8* %61, i8* %63, i8* %65, i8* %67, i8* %69, i8* %71) #11
  br label %147

73:                                               ; preds = %12
  %74 = tail call i8* @dcgettext(i8* null, i8* getelementptr inbounds ([44 x i8], [44 x i8]* @.str.12.85, i64 0, i64 0), i32 5) #11
  %75 = load i8*, i8** %4, align 8, !tbaa !4
  %76 = getelementptr inbounds i8*, i8** %4, i64 1
  %77 = load i8*, i8** %76, align 8, !tbaa !4
  %78 = getelementptr inbounds i8*, i8** %4, i64 2
  %79 = load i8*, i8** %78, align 8, !tbaa !4
  %80 = getelementptr inbounds i8*, i8** %4, i64 3
  %81 = load i8*, i8** %80, align 8, !tbaa !4
  %82 = getelementptr inbounds i8*, i8** %4, i64 4
  %83 = load i8*, i8** %82, align 8, !tbaa !4
  %84 = getelementptr inbounds i8*, i8** %4, i64 5
  %85 = load i8*, i8** %84, align 8, !tbaa !4
  %86 = getelementptr inbounds i8*, i8** %4, i64 6
  %87 = load i8*, i8** %86, align 8, !tbaa !4
  %88 = tail call i32 (%struct._IO_FILE*, i32, i8*, ...) @__fprintf_chk(%struct._IO_FILE* %0, i32 1, i8* %74, i8* %75, i8* %77, i8* %79, i8* %81, i8* %83, i8* %85, i8* %87) #11
  br label %147

89:                                               ; preds = %12
  %90 = tail call i8* @dcgettext(i8* null, i8* getelementptr inbounds ([48 x i8], [48 x i8]* @.str.13.86, i64 0, i64 0), i32 5) #11
  %91 = load i8*, i8** %4, align 8, !tbaa !4
  %92 = getelementptr inbounds i8*, i8** %4, i64 1
  %93 = load i8*, i8** %92, align 8, !tbaa !4
  %94 = getelementptr inbounds i8*, i8** %4, i64 2
  %95 = load i8*, i8** %94, align 8, !tbaa !4
  %96 = getelementptr inbounds i8*, i8** %4, i64 3
  %97 = load i8*, i8** %96, align 8, !tbaa !4
  %98 = getelementptr inbounds i8*, i8** %4, i64 4
  %99 = load i8*, i8** %98, align 8, !tbaa !4
  %100 = getelementptr inbounds i8*, i8** %4, i64 5
  %101 = load i8*, i8** %100, align 8, !tbaa !4
  %102 = getelementptr inbounds i8*, i8** %4, i64 6
  %103 = load i8*, i8** %102, align 8, !tbaa !4
  %104 = getelementptr inbounds i8*, i8** %4, i64 7
  %105 = load i8*, i8** %104, align 8, !tbaa !4
  %106 = tail call i32 (%struct._IO_FILE*, i32, i8*, ...) @__fprintf_chk(%struct._IO_FILE* %0, i32 1, i8* %90, i8* %91, i8* %93, i8* %95, i8* %97, i8* %99, i8* %101, i8* %103, i8* %105) #11
  br label %147

107:                                              ; preds = %12
  %108 = tail call i8* @dcgettext(i8* null, i8* getelementptr inbounds ([52 x i8], [52 x i8]* @.str.14.87, i64 0, i64 0), i32 5) #11
  %109 = load i8*, i8** %4, align 8, !tbaa !4
  %110 = getelementptr inbounds i8*, i8** %4, i64 1
  %111 = load i8*, i8** %110, align 8, !tbaa !4
  %112 = getelementptr inbounds i8*, i8** %4, i64 2
  %113 = load i8*, i8** %112, align 8, !tbaa !4
  %114 = getelementptr inbounds i8*, i8** %4, i64 3
  %115 = load i8*, i8** %114, align 8, !tbaa !4
  %116 = getelementptr inbounds i8*, i8** %4, i64 4
  %117 = load i8*, i8** %116, align 8, !tbaa !4
  %118 = getelementptr inbounds i8*, i8** %4, i64 5
  %119 = load i8*, i8** %118, align 8, !tbaa !4
  %120 = getelementptr inbounds i8*, i8** %4, i64 6
  %121 = load i8*, i8** %120, align 8, !tbaa !4
  %122 = getelementptr inbounds i8*, i8** %4, i64 7
  %123 = load i8*, i8** %122, align 8, !tbaa !4
  %124 = getelementptr inbounds i8*, i8** %4, i64 8
  %125 = load i8*, i8** %124, align 8, !tbaa !4
  %126 = tail call i32 (%struct._IO_FILE*, i32, i8*, ...) @__fprintf_chk(%struct._IO_FILE* %0, i32 1, i8* %108, i8* %109, i8* %111, i8* %113, i8* %115, i8* %117, i8* %119, i8* %121, i8* %123, i8* %125) #11
  br label %147

127:                                              ; preds = %12
  %128 = tail call i8* @dcgettext(i8* null, i8* getelementptr inbounds ([60 x i8], [60 x i8]* @.str.15.88, i64 0, i64 0), i32 5) #11
  %129 = load i8*, i8** %4, align 8, !tbaa !4
  %130 = getelementptr inbounds i8*, i8** %4, i64 1
  %131 = load i8*, i8** %130, align 8, !tbaa !4
  %132 = getelementptr inbounds i8*, i8** %4, i64 2
  %133 = load i8*, i8** %132, align 8, !tbaa !4
  %134 = getelementptr inbounds i8*, i8** %4, i64 3
  %135 = load i8*, i8** %134, align 8, !tbaa !4
  %136 = getelementptr inbounds i8*, i8** %4, i64 4
  %137 = load i8*, i8** %136, align 8, !tbaa !4
  %138 = getelementptr inbounds i8*, i8** %4, i64 5
  %139 = load i8*, i8** %138, align 8, !tbaa !4
  %140 = getelementptr inbounds i8*, i8** %4, i64 6
  %141 = load i8*, i8** %140, align 8, !tbaa !4
  %142 = getelementptr inbounds i8*, i8** %4, i64 7
  %143 = load i8*, i8** %142, align 8, !tbaa !4
  %144 = getelementptr inbounds i8*, i8** %4, i64 8
  %145 = load i8*, i8** %144, align 8, !tbaa !4
  %146 = tail call i32 (%struct._IO_FILE*, i32, i8*, ...) @__fprintf_chk(%struct._IO_FILE* %0, i32 1, i8* %128, i8* %129, i8* %131, i8* %133, i8* %135, i8* %137, i8* %139, i8* %141, i8* %143, i8* %145) #11
  br label %147

147:                                              ; preds = %127, %107, %89, %73, %59, %47, %37, %29, %23, %19, %12
  ret void
}

declare dso_local i32 @__fprintf_chk(%struct._IO_FILE*, i32, i8*, ...) local_unnamed_addr #4

declare dso_local i32 @__printf_chk(i32, i8*, ...) local_unnamed_addr #4

; Function Attrs: nofree nounwind readonly
declare dso_local i32 @strcmp(i8* nocapture, i8* nocapture) local_unnamed_addr #12

; Function Attrs: nofree nounwind readonly
declare dso_local i32 @strncmp(i8* nocapture, i8* nocapture, i64) local_unnamed_addr #12

; Function Attrs: nounwind uwtable
define internal i32 @close_stream(%struct._IO_FILE*) #0 {
  %2 = tail call i64 @__fpending(%struct._IO_FILE* %0) #11
  %3 = getelementptr inbounds %struct._IO_FILE, %struct._IO_FILE* %0, i64 0, i32 0
  %4 = load i32, i32* %3, align 8, !tbaa !34
  %5 = call i32 @_Z10computeFuniiiii(i32 1227455094, i32 63, i32 553447, i32 863, i32 328874619)
  %6 = and i32 %4, %5
  %7 = icmp eq i32 %6, 0
  %8 = tail call i32 @rpl_fclose(%struct._IO_FILE* %0) #11
  %9 = icmp ne i32 %8, 0
  br i1 %7, label %10, label %20

10:                                               ; preds = %1
  %11 = icmp ne i64 %2, 0
  %12 = xor i1 %9, true
  %13 = or i1 %11, %12
  %14 = sext i1 %9 to i32
  br i1 %13, label %23, label %15

15:                                               ; preds = %10
  %16 = tail call i32* @__errno_location() #22
  %17 = load i32, i32* %16, align 4, !tbaa !8
  %18 = icmp ne i32 %17, 9
  %19 = sext i1 %18 to i32
  br label %23

20:                                               ; preds = %1
  br i1 %9, label %23, label %21

21:                                               ; preds = %20
  %22 = tail call i32* @__errno_location() #22
  store i32 0, i32* %22, align 4, !tbaa !8
  br label %23

23:                                               ; preds = %21, %20, %15, %10
  %24 = phi i32 [ -1, %21 ], [ -1, %20 ], [ %19, %15 ], [ %14, %10 ]
  ret i32 %24
}

; Function Attrs: nounwind uwtable
define internal i8* @quotearg_colon(i8*) #0 {
  %2 = alloca %struct.quoting_options, align 8
  %3 = bitcast %struct.quoting_options* %2 to i8*
  call void @llvm.lifetime.start.p0i8(i64 56, i8* nonnull %3) #11
  call void @llvm.memcpy.p0i8.p0i8.i64(i8* nonnull align 8 %3, i8* align 8 bitcast (%struct.quoting_options* @default_quoting_options to i8*), i64 56, i1 false) #11, !tbaa.struct !35
  %4 = getelementptr inbounds %struct.quoting_options, %struct.quoting_options* %2, i64 0, i32 2, i64 1
  %5 = load i32, i32* %4, align 4, !tbaa !8
  %6 = or i32 %5, 67108864
  store i32 %6, i32* %4, align 4, !tbaa !8
  %7 = call fastcc i8* @quotearg_n_options(i32 0, i8* %0, i64 -1, %struct.quoting_options* nonnull %2) #11
  call void @llvm.lifetime.end.p0i8(i64 56, i8* nonnull %3) #11
  ret i8* %7
}

; Function Attrs: noreturn
declare dso_local void @_exit(i32) local_unnamed_addr #13

; Function Attrs: nounwind
declare dso_local i64 @__fpending(%struct._IO_FILE*) local_unnamed_addr #1

; Function Attrs: nounwind uwtable
define internal i32 @rpl_fclose(%struct._IO_FILE* nonnull) #0 {
  %2 = tail call i32 @fileno(%struct._IO_FILE* nonnull %0) #11
  %3 = icmp slt i32 %2, 0
  br i1 %3, label %4, label %6

4:                                                ; preds = %1
  %5 = tail call i32 @fclose(%struct._IO_FILE* nonnull %0)
  br label %24

6:                                                ; preds = %1
  %7 = tail call i32 @__freading(%struct._IO_FILE* nonnull %0) #11
  %8 = icmp eq i32 %7, 0
  br i1 %8, label %13, label %9

9:                                                ; preds = %6
  %10 = tail call i32 @fileno(%struct._IO_FILE* nonnull %0) #11
  %11 = tail call i64 @lseek(i32 %10, i64 0, i32 1) #11
  %12 = icmp eq i64 %11, -1
  br i1 %12, label %16, label %13

13:                                               ; preds = %9, %6
  %14 = tail call i32 @rpl_fflush(%struct._IO_FILE* nonnull %0) #11
  %15 = icmp eq i32 %14, 0
  br i1 %15, label %16, label %18

16:                                               ; preds = %13, %9
  %17 = tail call i32 @fclose(%struct._IO_FILE* nonnull %0)
  br label %24

18:                                               ; preds = %13
  %19 = tail call i32* @__errno_location() #22
  %20 = load i32, i32* %19, align 4, !tbaa !8
  %21 = tail call i32 @fclose(%struct._IO_FILE* nonnull %0)
  %22 = icmp eq i32 %20, 0
  br i1 %22, label %24, label %23

23:                                               ; preds = %18
  store i32 %20, i32* %19, align 4, !tbaa !8
  br label %24

24:                                               ; preds = %23, %18, %16, %4
  %25 = phi i32 [ %5, %4 ], [ -1, %23 ], [ %21, %18 ], [ %17, %16 ]
  ret i32 %25
}

; Function Attrs: nofree nounwind
declare dso_local i32 @fileno(%struct._IO_FILE* nocapture) local_unnamed_addr #6

; Function Attrs: nofree nounwind
declare dso_local i32 @fclose(%struct._IO_FILE* nocapture) local_unnamed_addr #6

; Function Attrs: nounwind
declare dso_local i32 @__freading(%struct._IO_FILE*) local_unnamed_addr #1

; Function Attrs: nounwind
declare dso_local i64 @lseek(i32, i64, i32) local_unnamed_addr #1

; Function Attrs: nounwind uwtable
define internal i32 @rpl_fflush(%struct._IO_FILE*) #0 {
  %2 = icmp eq %struct._IO_FILE* %0, null
  br i1 %2, label %6, label %3

3:                                                ; preds = %1
  %4 = tail call i32 @__freading(%struct._IO_FILE* nonnull %0) #11
  %5 = icmp eq i32 %4, 0
  br i1 %5, label %6, label %8

6:                                                ; preds = %3, %1
  %7 = tail call i32 @fflush(%struct._IO_FILE* %0)
  br label %17

8:                                                ; preds = %3
  %9 = getelementptr inbounds %struct._IO_FILE, %struct._IO_FILE* %0, i64 0, i32 0
  %10 = load i32, i32* %9, align 8, !tbaa !34
  %11 = and i32 %10, 256
  %12 = icmp eq i32 %11, 0
  br i1 %12, label %15, label %13

13:                                               ; preds = %8
  %14 = tail call i32 @rpl_fseeko(%struct._IO_FILE* nonnull %0, i64 0, i32 1) #11
  br label %15

15:                                               ; preds = %13, %8
  %16 = tail call i32 @fflush(%struct._IO_FILE* nonnull %0)
  br label %17

17:                                               ; preds = %15, %6
  %18 = phi i32 [ %7, %6 ], [ %16, %15 ]
  ret i32 %18
}

; Function Attrs: nofree nounwind
declare dso_local i32 @fflush(%struct._IO_FILE* nocapture) local_unnamed_addr #6

; Function Attrs: nounwind uwtable
define internal i32 @rpl_fseeko(%struct._IO_FILE* nocapture nonnull, i64, i32) #0 {
  %4 = getelementptr inbounds %struct._IO_FILE, %struct._IO_FILE* %0, i64 0, i32 2
  %5 = load i8*, i8** %4, align 8, !tbaa !36
  %6 = getelementptr inbounds %struct._IO_FILE, %struct._IO_FILE* %0, i64 0, i32 1
  %7 = load i8*, i8** %6, align 8, !tbaa !37
  %8 = icmp eq i8* %5, %7
  br i1 %8, label %9, label %28

9:                                                ; preds = %3
  %10 = getelementptr inbounds %struct._IO_FILE, %struct._IO_FILE* %0, i64 0, i32 5
  %11 = load i8*, i8** %10, align 8, !tbaa !10
  %12 = getelementptr inbounds %struct._IO_FILE, %struct._IO_FILE* %0, i64 0, i32 4
  %13 = load i8*, i8** %12, align 8, !tbaa !38
  %14 = icmp eq i8* %11, %13
  br i1 %14, label %15, label %28

15:                                               ; preds = %9
  %16 = getelementptr inbounds %struct._IO_FILE, %struct._IO_FILE* %0, i64 0, i32 9
  %17 = load i8*, i8** %16, align 8, !tbaa !39
  %18 = icmp eq i8* %17, null
  br i1 %18, label %19, label %28

19:                                               ; preds = %15
  %20 = tail call i32 @fileno(%struct._IO_FILE* nonnull %0) #11
  %21 = tail call i64 @lseek(i32 %20, i64 %1, i32 %2) #11
  %22 = icmp eq i64 %21, -1
  br i1 %22, label %30, label %23

23:                                               ; preds = %19
  %24 = getelementptr inbounds %struct._IO_FILE, %struct._IO_FILE* %0, i64 0, i32 0
  %25 = load i32, i32* %24, align 8, !tbaa !34
  %26 = and i32 %25, -17
  store i32 %26, i32* %24, align 8, !tbaa !34
  %27 = getelementptr inbounds %struct._IO_FILE, %struct._IO_FILE* %0, i64 0, i32 21
  store i64 %21, i64* %27, align 8, !tbaa !40
  br label %30

28:                                               ; preds = %15, %9, %3
  %29 = tail call i32 @fseeko(%struct._IO_FILE* nonnull %0, i64 %1, i32 %2)
  br label %30

30:                                               ; preds = %28, %23, %19
  %31 = phi i32 [ %29, %28 ], [ 0, %23 ], [ -1, %19 ]
  ret i32 %31
}

; Function Attrs: nofree nounwind
declare dso_local i32 @fseeko(%struct._IO_FILE* nocapture, i64, i32) local_unnamed_addr #6

; Function Attrs: nofree nounwind
declare i64 @fwrite(i8* nocapture, i64, i64, %struct._IO_FILE* nocapture) local_unnamed_addr #14

; Function Attrs: nofree nounwind readonly
declare dso_local i8* @strrchr(i8*, i32) local_unnamed_addr #12

; Function Attrs: uwtable
define dso_local i32 @_Z10computeFuniiiii(i32, i32, i32, i32, i32) #15 personality i8* bitcast (i32 (...)* @__gxx_personality_v0 to i8*) {
  %6 = alloca %"class.CryptoPP::SHA256", align 8
  %7 = alloca %"class.std::__cxx11::basic_string", align 8
  %8 = alloca [32 x i8], align 16
  %9 = bitcast %"class.CryptoPP::SHA256"* %6 to i8*
  call void @llvm.lifetime.start.p0i8(i64 200, i8* nonnull %9) #11
  %10 = getelementptr inbounds %"class.CryptoPP::SHA256", %"class.CryptoPP::SHA256"* %6, i64 0, i32 0
  call void @_ZN8CryptoPP31IteratedHashWithStaticTransformIjNS_10EnumToTypeINS_9ByteOrderELi1EEELj64ELj32ENS_6SHA256ELj32ELb1EEC2Ev(%"class.CryptoPP::IteratedHashWithStaticTransform"* nonnull %10)
  %11 = getelementptr inbounds %"class.CryptoPP::SHA256", %"class.CryptoPP::SHA256"* %6, i64 0, i32 0, i32 0, i32 0, i32 0, i32 0, i32 0, i32 0, i32 0, i32 0
  store i32 (...)** bitcast (i8** getelementptr inbounds ({ [27 x i8*] }, { [27 x i8*] }* @_ZTVN8CryptoPP6SHA256E, i64 0, inrange i32 0, i64 2) to i32 (...)**), i32 (...)*** %11, align 8, !tbaa !41
  %12 = bitcast %"class.std::__cxx11::basic_string"* %7 to i8*
  call void @llvm.lifetime.start.p0i8(i64 32, i8* nonnull %12) #11
  invoke void (%"class.std::__cxx11::basic_string"*, i32 (i8*, i64, i8*, %struct.__va_list_tag*)*, i64, i8*, ...) @_ZN9__gnu_cxx12__to_xstringINSt7__cxx1112basic_stringIcSt11char_traitsIcESaIcEEEcEET_PFiPT0_mPKS8_P13__va_list_tagEmSB_z(%"class.std::__cxx11::basic_string"* nonnull sret %7, i32 (i8*, i64, i8*, %struct.__va_list_tag*)* nonnull @vsnprintf, i64 16, i8* getelementptr inbounds ([3 x i8], [3 x i8]* @.str.14.3, i64 0, i64 0), i32 %0)
          to label %13 unwind label %49

13:                                               ; preds = %5
  %14 = getelementptr inbounds %"class.CryptoPP::SHA256", %"class.CryptoPP::SHA256"* %6, i64 0, i32 0, i32 0, i32 0, i32 0, i32 0
  %15 = getelementptr inbounds %"class.std::__cxx11::basic_string", %"class.std::__cxx11::basic_string"* %7, i64 0, i32 0, i32 0
  %16 = load i8*, i8** %15, align 8, !tbaa !44
  %17 = getelementptr inbounds %"class.std::__cxx11::basic_string", %"class.std::__cxx11::basic_string"* %7, i64 0, i32 1
  %18 = load i64, i64* %17, align 8, !tbaa !50
  invoke void @_ZN8CryptoPP16IteratedHashBaseIjNS_18HashTransformationEE6UpdateEPKhm(%"class.CryptoPP::IteratedHashBase"* nonnull %14, i8* %16, i64 %18)
          to label %19 unwind label %53

19:                                               ; preds = %13
  %20 = getelementptr inbounds [32 x i8], [32 x i8]* %8, i64 0, i64 0
  call void @llvm.lifetime.start.p0i8(i64 32, i8* nonnull %20) #11
  %21 = getelementptr inbounds %"class.CryptoPP::SHA256", %"class.CryptoPP::SHA256"* %6, i64 0, i32 0, i32 0, i32 0, i32 0, i32 0, i32 0
  %22 = bitcast %"class.CryptoPP::SHA256"* %6 to i32 (%"class.CryptoPP::HashTransformation"*)***
  %23 = load i32 (%"class.CryptoPP::HashTransformation"*)**, i32 (%"class.CryptoPP::HashTransformation"*)*** %22, align 8, !tbaa !41
  %24 = getelementptr inbounds i32 (%"class.CryptoPP::HashTransformation"*)*, i32 (%"class.CryptoPP::HashTransformation"*)** %23, i64 8
  %25 = load i32 (%"class.CryptoPP::HashTransformation"*)*, i32 (%"class.CryptoPP::HashTransformation"*)** %24, align 8
  %26 = invoke i32 %25(%"class.CryptoPP::HashTransformation"* nonnull %21)
          to label %27 unwind label %57

27:                                               ; preds = %19
  %28 = zext i32 %26 to i64
  %29 = bitcast %"class.CryptoPP::SHA256"* %6 to void (%"class.CryptoPP::HashTransformation"*, i8*, i64)***
  %30 = load void (%"class.CryptoPP::HashTransformation"*, i8*, i64)**, void (%"class.CryptoPP::HashTransformation"*, i8*, i64)*** %29, align 8, !tbaa !41
  %31 = getelementptr inbounds void (%"class.CryptoPP::HashTransformation"*, i8*, i64)*, void (%"class.CryptoPP::HashTransformation"*, i8*, i64)** %30, i64 15
  %32 = load void (%"class.CryptoPP::HashTransformation"*, i8*, i64)*, void (%"class.CryptoPP::HashTransformation"*, i8*, i64)** %31, align 8
  invoke void %32(%"class.CryptoPP::HashTransformation"* nonnull %21, i8* nonnull %20, i64 %28)
          to label %33 unwind label %57

33:                                               ; preds = %27
  %34 = icmp slt i32 %1, 64
  br i1 %34, label %35, label %64

35:                                               ; preds = %33
  %36 = and i32 %1, 1
  %37 = icmp eq i32 %36, 0
  %38 = sdiv i32 %1, 2
  %39 = sext i32 %38 to i64
  %40 = getelementptr inbounds [32 x i8], [32 x i8]* %8, i64 0, i64 %39
  %41 = load i8, i8* %40, align 1, !tbaa !51
  %42 = zext i8 %41 to i32
  %43 = lshr i32 %42, 4
  %44 = and i32 %42, 15
  %45 = select i1 %37, i32 %43, i32 %44
  %46 = zext i32 %45 to i64
  %47 = add nsw i32 %1, 1
  %48 = icmp slt i32 %47, 64
  br i1 %48, label %89, label %61

49:                                               ; preds = %5
  %50 = landingpad { i8*, i32 }
          cleanup
  %51 = extractvalue { i8*, i32 } %50, 0
  %52 = extractvalue { i8*, i32 } %50, 1
  br label %84

53:                                               ; preds = %13
  %54 = landingpad { i8*, i32 }
          cleanup
  %55 = extractvalue { i8*, i32 } %54, 0
  %56 = extractvalue { i8*, i32 } %54, 1
  br label %76

57:                                               ; preds = %27, %19
  %58 = landingpad { i8*, i32 }
          cleanup
  %59 = extractvalue { i8*, i32 } %58, 0
  %60 = extractvalue { i8*, i32 } %58, 1
  call void @llvm.lifetime.end.p0i8(i64 32, i8* nonnull %20) #11
  br label %76

61:                                               ; preds = %185, %169, %153, %137, %121, %105, %89, %35
  %62 = phi i64 [ %46, %35 ], [ %102, %89 ], [ %118, %105 ], [ %134, %121 ], [ %150, %137 ], [ %166, %153 ], [ %182, %169 ], [ %198, %185 ]
  %63 = trunc i64 %62 to i32
  br label %64

64:                                               ; preds = %61, %33
  %65 = phi i32 [ 0, %33 ], [ %63, %61 ]
  %66 = add i32 %65, %2
  %67 = mul i32 %66, %3
  %68 = add i32 %4, -806499348
  %69 = add i32 %68, %67
  call void @llvm.lifetime.end.p0i8(i64 32, i8* nonnull %20) #11
  %70 = load i8*, i8** %15, align 8, !tbaa !44
  %71 = getelementptr inbounds %"class.std::__cxx11::basic_string", %"class.std::__cxx11::basic_string"* %7, i64 0, i32 2
  %72 = bitcast %union.anon.0* %71 to i8*
  %73 = icmp eq i8* %70, %72
  br i1 %73, label %75, label %74

74:                                               ; preds = %64
  call void @_ZdlPv(i8* %70) #11
  br label %75

75:                                               ; preds = %74, %64
  call void @llvm.lifetime.end.p0i8(i64 32, i8* nonnull %12) #11
  call void @_ZN8CryptoPP31IteratedHashWithStaticTransformIjNS_10EnumToTypeINS_9ByteOrderELi1EEELj64ELj32ENS_6SHA256ELj32ELb1EED2Ev(%"class.CryptoPP::IteratedHashWithStaticTransform"* nonnull %10) #11
  call void @llvm.lifetime.end.p0i8(i64 200, i8* nonnull %9) #11
  ret i32 %69

76:                                               ; preds = %57, %53
  %77 = phi i8* [ %59, %57 ], [ %55, %53 ]
  %78 = phi i32 [ %60, %57 ], [ %56, %53 ]
  %79 = load i8*, i8** %15, align 8, !tbaa !44
  %80 = getelementptr inbounds %"class.std::__cxx11::basic_string", %"class.std::__cxx11::basic_string"* %7, i64 0, i32 2
  %81 = bitcast %union.anon.0* %80 to i8*
  %82 = icmp eq i8* %79, %81
  br i1 %82, label %84, label %83

83:                                               ; preds = %76
  call void @_ZdlPv(i8* %79) #11
  br label %84

84:                                               ; preds = %83, %76, %49
  %85 = phi i8* [ %51, %49 ], [ %77, %76 ], [ %77, %83 ]
  %86 = phi i32 [ %52, %49 ], [ %78, %76 ], [ %78, %83 ]
  call void @llvm.lifetime.end.p0i8(i64 32, i8* nonnull %12) #11
  call void @_ZN8CryptoPP31IteratedHashWithStaticTransformIjNS_10EnumToTypeINS_9ByteOrderELi1EEELj64ELj32ENS_6SHA256ELj32ELb1EED2Ev(%"class.CryptoPP::IteratedHashWithStaticTransform"* nonnull %10) #11
  call void @llvm.lifetime.end.p0i8(i64 200, i8* nonnull %9) #11
  %87 = insertvalue { i8*, i32 } undef, i8* %85, 0
  %88 = insertvalue { i8*, i32 } %87, i32 %86, 1
  resume { i8*, i32 } %88

89:                                               ; preds = %35
  %90 = and i32 %47, 1
  %91 = icmp eq i32 %90, 0
  %92 = shl nuw nsw i32 %45, 4
  %93 = sdiv i32 %47, 2
  %94 = sext i32 %93 to i64
  %95 = getelementptr inbounds [32 x i8], [32 x i8]* %8, i64 0, i64 %94
  %96 = load i8, i8* %95, align 1, !tbaa !51
  %97 = zext i8 %96 to i32
  %98 = lshr i32 %97, 4
  %99 = and i32 %97, 15
  %100 = select i1 %91, i32 %98, i32 %99
  %101 = or i32 %92, %100
  %102 = zext i32 %101 to i64
  %103 = add nsw i32 %1, 2
  %104 = icmp slt i32 %103, 64
  br i1 %104, label %105, label %61

105:                                              ; preds = %89
  %106 = and i32 %103, 1
  %107 = icmp eq i32 %106, 0
  %108 = shl nuw nsw i32 %101, 4
  %109 = sdiv i32 %103, 2
  %110 = sext i32 %109 to i64
  %111 = getelementptr inbounds [32 x i8], [32 x i8]* %8, i64 0, i64 %110
  %112 = load i8, i8* %111, align 1, !tbaa !51
  %113 = zext i8 %112 to i32
  %114 = lshr i32 %113, 4
  %115 = and i32 %113, 15
  %116 = select i1 %107, i32 %114, i32 %115
  %117 = or i32 %108, %116
  %118 = zext i32 %117 to i64
  %119 = add nsw i32 %1, 3
  %120 = icmp slt i32 %119, 64
  br i1 %120, label %121, label %61

121:                                              ; preds = %105
  %122 = and i32 %119, 1
  %123 = icmp eq i32 %122, 0
  %124 = shl nuw nsw i64 %118, 4
  %125 = sdiv i32 %119, 2
  %126 = sext i32 %125 to i64
  %127 = getelementptr inbounds [32 x i8], [32 x i8]* %8, i64 0, i64 %126
  %128 = load i8, i8* %127, align 1, !tbaa !51
  %129 = zext i8 %128 to i32
  %130 = lshr i32 %129, 4
  %131 = and i32 %129, 15
  %132 = select i1 %123, i32 %130, i32 %131
  %133 = zext i32 %132 to i64
  %134 = or i64 %124, %133
  %135 = add nsw i32 %1, 4
  %136 = icmp slt i32 %135, 64
  br i1 %136, label %137, label %61

137:                                              ; preds = %121
  %138 = and i32 %135, 1
  %139 = icmp eq i32 %138, 0
  %140 = shl nuw nsw i64 %134, 4
  %141 = sdiv i32 %135, 2
  %142 = sext i32 %141 to i64
  %143 = getelementptr inbounds [32 x i8], [32 x i8]* %8, i64 0, i64 %142
  %144 = load i8, i8* %143, align 1, !tbaa !51
  %145 = zext i8 %144 to i32
  %146 = lshr i32 %145, 4
  %147 = and i32 %145, 15
  %148 = select i1 %139, i32 %146, i32 %147
  %149 = zext i32 %148 to i64
  %150 = or i64 %140, %149
  %151 = add nsw i32 %1, 5
  %152 = icmp slt i32 %151, 64
  br i1 %152, label %153, label %61

153:                                              ; preds = %137
  %154 = and i32 %151, 1
  %155 = icmp eq i32 %154, 0
  %156 = shl nuw nsw i64 %150, 4
  %157 = sdiv i32 %151, 2
  %158 = sext i32 %157 to i64
  %159 = getelementptr inbounds [32 x i8], [32 x i8]* %8, i64 0, i64 %158
  %160 = load i8, i8* %159, align 1, !tbaa !51
  %161 = zext i8 %160 to i32
  %162 = lshr i32 %161, 4
  %163 = and i32 %161, 15
  %164 = select i1 %155, i32 %162, i32 %163
  %165 = zext i32 %164 to i64
  %166 = or i64 %156, %165
  %167 = add nsw i32 %1, 6
  %168 = icmp slt i32 %167, 64
  br i1 %168, label %169, label %61

169:                                              ; preds = %153
  %170 = and i32 %167, 1
  %171 = icmp eq i32 %170, 0
  %172 = shl i64 %166, 4
  %173 = sdiv i32 %167, 2
  %174 = sext i32 %173 to i64
  %175 = getelementptr inbounds [32 x i8], [32 x i8]* %8, i64 0, i64 %174
  %176 = load i8, i8* %175, align 1, !tbaa !51
  %177 = zext i8 %176 to i32
  %178 = lshr i32 %177, 4
  %179 = and i32 %177, 15
  %180 = select i1 %171, i32 %178, i32 %179
  %181 = zext i32 %180 to i64
  %182 = or i64 %172, %181
  %183 = add nsw i32 %1, 7
  %184 = icmp slt i32 %183, 64
  br i1 %184, label %185, label %61

185:                                              ; preds = %169
  %186 = and i32 %183, 1
  %187 = icmp eq i32 %186, 0
  %188 = shl i64 %182, 4
  %189 = sdiv i32 %183, 2
  %190 = sext i32 %189 to i64
  %191 = getelementptr inbounds [32 x i8], [32 x i8]* %8, i64 0, i64 %190
  %192 = load i8, i8* %191, align 1, !tbaa !51
  %193 = zext i8 %192 to i32
  %194 = lshr i32 %193, 4
  %195 = and i32 %193, 15
  %196 = select i1 %187, i32 %194, i32 %195
  %197 = zext i32 %196 to i64
  %198 = or i64 %188, %197
  br label %61
}

declare dso_local i32 @__gxx_personality_v0(...)

; Function Attrs: uwtable
define linkonce_odr dso_local void @_ZN8CryptoPP31IteratedHashWithStaticTransformIjNS_10EnumToTypeINS_9ByteOrderELi1EEELj64ELj32ENS_6SHA256ELj32ELb1EEC2Ev(%"class.CryptoPP::IteratedHashWithStaticTransform"*) unnamed_addr #15 comdat align 2 personality i8* bitcast (i32 (...)* @__gxx_personality_v0 to i8*) {
  %2 = getelementptr inbounds %"class.CryptoPP::IteratedHashWithStaticTransform", %"class.CryptoPP::IteratedHashWithStaticTransform"* %0, i64 0, i32 0, i32 0, i32 0, i32 0, i32 0, i32 0
  tail call void @_ZN8CryptoPP9AlgorithmC2Eb(%"class.CryptoPP::Algorithm"* %2, i1 zeroext true)
  %3 = getelementptr inbounds %"class.CryptoPP::IteratedHashWithStaticTransform", %"class.CryptoPP::IteratedHashWithStaticTransform"* %0, i64 0, i32 0, i32 0, i32 0, i32 0, i32 1
  store i32 0, i32* %3, align 8, !tbaa !52
  %4 = getelementptr inbounds %"class.CryptoPP::IteratedHashWithStaticTransform", %"class.CryptoPP::IteratedHashWithStaticTransform"* %0, i64 0, i32 0, i32 0, i32 0, i32 0, i32 2
  store i32 0, i32* %4, align 4, !tbaa !55
  %5 = getelementptr inbounds %"class.CryptoPP::IteratedHashWithStaticTransform", %"class.CryptoPP::IteratedHashWithStaticTransform"* %0, i64 0, i32 0, i32 0, i32 0, i32 1, i32 0, i32 0, i32 2
  %6 = getelementptr inbounds %"class.CryptoPP::IteratedHashWithStaticTransform", %"class.CryptoPP::IteratedHashWithStaticTransform"* %0, i64 0, i32 0, i32 0, i32 0, i32 1, i32 0, i32 1
  store i64 16, i64* %6, align 8, !tbaa !56
  %7 = getelementptr inbounds %"class.CryptoPP::IteratedHashWithStaticTransform", %"class.CryptoPP::IteratedHashWithStaticTransform"* %0, i64 0, i32 0, i32 0, i32 0, i32 1, i32 0, i32 2
  store i8 1, i8* %5, align 1, !tbaa !61
  %8 = getelementptr inbounds %"class.CryptoPP::IteratedHashWithStaticTransform", %"class.CryptoPP::IteratedHashWithStaticTransform"* %0, i64 0, i32 0, i32 0, i32 0, i32 1, i32 0, i32 0, i32 0, i64 0
  store i32* %8, i32** %7, align 8, !tbaa !62
  %9 = getelementptr inbounds %"class.CryptoPP::IteratedHashWithStaticTransform", %"class.CryptoPP::IteratedHashWithStaticTransform"* %0, i64 0, i32 0, i32 0, i32 0, i32 0, i32 0, i32 0, i32 0, i32 0
  store i32 (...)** bitcast (i8** getelementptr inbounds ({ [27 x i8*] }, { [27 x i8*] }* @_ZTVN8CryptoPP31IteratedHashWithStaticTransformIjNS_10EnumToTypeINS_9ByteOrderELi1EEELj64ELj32ENS_6SHA256ELj32ELb1EEE, i64 0, inrange i32 0, i64 2) to i32 (...)**), i32 (...)*** %9, align 8, !tbaa !41
  %10 = getelementptr inbounds %"class.CryptoPP::IteratedHashWithStaticTransform", %"class.CryptoPP::IteratedHashWithStaticTransform"* %0, i64 0, i32 1
  %11 = getelementptr inbounds %"class.CryptoPP::IteratedHashWithStaticTransform", %"class.CryptoPP::IteratedHashWithStaticTransform"* %0, i64 0, i32 1, i32 0, i32 0, i32 0, i32 2
  %12 = getelementptr inbounds %"class.CryptoPP::IteratedHashWithStaticTransform", %"class.CryptoPP::IteratedHashWithStaticTransform"* %0, i64 0, i32 1, i32 0, i32 0, i32 1
  store i64 16, i64* %12, align 8, !tbaa !63
  %13 = getelementptr inbounds %"class.CryptoPP::IteratedHashWithStaticTransform", %"class.CryptoPP::IteratedHashWithStaticTransform"* %0, i64 0, i32 1, i32 0, i32 0, i32 2
  store i8 1, i8* %11, align 1, !tbaa !66
  %14 = bitcast %"class.CryptoPP::FixedSizeAlignedSecBlock"* %10 to i8*
  %15 = ptrtoint %"class.CryptoPP::FixedSizeAlignedSecBlock"* %10 to i64
  %16 = sub i64 0, %15
  %17 = and i64 %16, 15
  %18 = getelementptr inbounds i8, i8* %14, i64 %17
  %19 = bitcast i32** %13 to i8**
  store i8* %18, i8** %19, align 8, !tbaa !67
  %20 = bitcast i8* %18 to i32*
  invoke void @_ZN8CryptoPP6SHA2569InitStateEPj(i32* nonnull %20)
          to label %21 unwind label %22

21:                                               ; preds = %1
  ret void

22:                                               ; preds = %1
  %23 = landingpad { i8*, i32 }
          cleanup
  %24 = load i8*, i8** %19, align 8, !tbaa !67
  %25 = load i64, i64* %12, align 8, !tbaa !63
  %26 = icmp eq i8* %18, %24
  br i1 %26, label %27, label %34

27:                                               ; preds = %22
  %28 = icmp ult i64 %25, 17
  br i1 %28, label %30, label %29

29:                                               ; preds = %27
  tail call void @__assert_fail(i8* getelementptr inbounds ([10 x i8], [10 x i8]* @.str.2.4, i64 0, i64 0), i8* getelementptr inbounds ([33 x i8], [33 x i8]* @.str.1.5, i64 0, i64 0), i32 370, i8* getelementptr inbounds ([268 x i8], [268 x i8]* @__PRETTY_FUNCTION__._ZN8CryptoPP29FixedSizeAllocatorWithCleanupIjLm16ENS_13NullAllocatorIjEELb1EE10deallocateEPvm, i64 0, i64 0)) #21
  unreachable

30:                                               ; preds = %27
  %31 = load i8, i8* %11, align 1, !tbaa !66, !range !19
  %32 = icmp eq i8 %31, 0
  br i1 %32, label %33, label %35

33:                                               ; preds = %30
  tail call void @__assert_fail(i8* getelementptr inbounds ([12 x i8], [12 x i8]* @.str.3.6, i64 0, i64 0), i8* getelementptr inbounds ([33 x i8], [33 x i8]* @.str.1.5, i64 0, i64 0), i32 371, i8* getelementptr inbounds ([268 x i8], [268 x i8]* @__PRETTY_FUNCTION__._ZN8CryptoPP29FixedSizeAllocatorWithCleanupIjLm16ENS_13NullAllocatorIjEELb1EE10deallocateEPvm, i64 0, i64 0)) #21
  unreachable

34:                                               ; preds = %22
  tail call void @__assert_fail(i8* getelementptr inbounds ([6 x i8], [6 x i8]* @.str.48, i64 0, i64 0), i8* getelementptr inbounds ([33 x i8], [33 x i8]* @.str.1.5, i64 0, i64 0), i32 281, i8* getelementptr inbounds ([118 x i8], [118 x i8]* @__PRETTY_FUNCTION__._ZN8CryptoPP13NullAllocatorIjE10deallocateEPvm, i64 0, i64 0)) #21
  unreachable

35:                                               ; preds = %30
  store i8 0, i8* %11, align 1, !tbaa !66
  %36 = tail call { i64, i32* } asm sideeffect "rep stosl", "={cx},={di},{ax},0,1,~{memory},~{dirflag},~{fpsr},~{flags}"(i32 0, i64 %25, i32* nonnull %20) #11, !srcloc !68
  store i32 (...)** bitcast (i8** getelementptr inbounds ({ [27 x i8*] }, { [27 x i8*] }* @_ZTVN8CryptoPP12IteratedHashIjNS_10EnumToTypeINS_9ByteOrderELi1EEELj64ENS_18HashTransformationEEE, i64 0, inrange i32 0, i64 2) to i32 (...)**), i32 (...)*** %9, align 8, !tbaa !41
  %37 = getelementptr inbounds %"class.CryptoPP::IteratedHashWithStaticTransform", %"class.CryptoPP::IteratedHashWithStaticTransform"* %0, i64 0, i32 0, i32 0, i32 0, i32 1, i32 0
  %38 = bitcast i32** %7 to i8**
  %39 = load i8*, i8** %38, align 8, !tbaa !62
  %40 = load i64, i64* %6, align 8, !tbaa !56
  %41 = bitcast %"class.CryptoPP::SecBlock"* %37 to i8*
  %42 = icmp eq i8* %39, %41
  br i1 %42, label %43, label %50

43:                                               ; preds = %35
  %44 = icmp ult i64 %40, 17
  br i1 %44, label %46, label %45

45:                                               ; preds = %43
  tail call void @__assert_fail(i8* getelementptr inbounds ([10 x i8], [10 x i8]* @.str.2.4, i64 0, i64 0), i8* getelementptr inbounds ([33 x i8], [33 x i8]* @.str.1.5, i64 0, i64 0), i32 370, i8* getelementptr inbounds ([270 x i8], [270 x i8]* @__PRETTY_FUNCTION__._ZN8CryptoPP29FixedSizeAllocatorWithCleanupIjLm16ENS_13NullAllocatorIjEELb0EE10deallocateEPvm, i64 0, i64 0)) #21
  unreachable

46:                                               ; preds = %43
  %47 = load i8, i8* %5, align 1, !tbaa !61, !range !19
  %48 = icmp eq i8 %47, 0
  br i1 %48, label %49, label %51

49:                                               ; preds = %46
  tail call void @__assert_fail(i8* getelementptr inbounds ([12 x i8], [12 x i8]* @.str.3.6, i64 0, i64 0), i8* getelementptr inbounds ([33 x i8], [33 x i8]* @.str.1.5, i64 0, i64 0), i32 371, i8* getelementptr inbounds ([270 x i8], [270 x i8]* @__PRETTY_FUNCTION__._ZN8CryptoPP29FixedSizeAllocatorWithCleanupIjLm16ENS_13NullAllocatorIjEELb0EE10deallocateEPvm, i64 0, i64 0)) #21
  unreachable

50:                                               ; preds = %35
  tail call void @__assert_fail(i8* getelementptr inbounds ([6 x i8], [6 x i8]* @.str.48, i64 0, i64 0), i8* getelementptr inbounds ([33 x i8], [33 x i8]* @.str.1.5, i64 0, i64 0), i32 281, i8* getelementptr inbounds ([118 x i8], [118 x i8]* @__PRETTY_FUNCTION__._ZN8CryptoPP13NullAllocatorIjE10deallocateEPvm, i64 0, i64 0)) #21
  unreachable

51:                                               ; preds = %46
  store i8 0, i8* %5, align 1, !tbaa !61
  %52 = bitcast i8* %39 to i32*
  %53 = tail call { i64, i32* } asm sideeffect "rep stosl", "={cx},={di},{ax},0,1,~{memory},~{dirflag},~{fpsr},~{flags}"(i32 0, i64 %40, i32* %52) #11, !srcloc !68
  resume { i8*, i32 } %23
}

; Function Attrs: nofree nounwind
declare dso_local i32 @vsnprintf(i8* nocapture, i64, i8* nocapture readonly, %struct.__va_list_tag*) #6

; Function Attrs: uwtable
define linkonce_odr dso_local void @_ZN9__gnu_cxx12__to_xstringINSt7__cxx1112basic_stringIcSt11char_traitsIcESaIcEEEcEET_PFiPT0_mPKS8_P13__va_list_tagEmSB_z(%"class.std::__cxx11::basic_string"* noalias sret, i32 (i8*, i64, i8*, %struct.__va_list_tag*)*, i64, i8*, ...) local_unnamed_addr #15 comdat personality i8* bitcast (i32 (...)* @__gxx_personality_v0 to i8*) {
  %5 = alloca i64, align 8
  %6 = alloca [1 x %struct.__va_list_tag], align 16
  %7 = alloca i8, i64 %2, align 16
  %8 = bitcast [1 x %struct.__va_list_tag]* %6 to i8*
  call void @llvm.lifetime.start.p0i8(i64 24, i8* nonnull %8) #11
  %9 = getelementptr inbounds [1 x %struct.__va_list_tag], [1 x %struct.__va_list_tag]* %6, i64 0, i64 0
  call void @llvm.va_start(i8* nonnull %8)
  %10 = call i32 %1(i8* nonnull %7, i64 %2, i8* %3, %struct.__va_list_tag* nonnull %9)
  call void @llvm.va_end(i8* nonnull %8)
  %11 = sext i32 %10 to i64
  %12 = getelementptr inbounds %"class.std::__cxx11::basic_string", %"class.std::__cxx11::basic_string"* %0, i64 0, i32 2
  %13 = bitcast %"class.std::__cxx11::basic_string"* %0 to %union.anon.0**
  store %union.anon.0* %12, %union.anon.0** %13, align 8, !tbaa !69
  %14 = bitcast %union.anon.0* %12 to i8*
  %15 = bitcast i64* %5 to i8*
  call void @llvm.lifetime.start.p0i8(i64 8, i8* nonnull %15) #11
  store i64 %11, i64* %5, align 8, !tbaa !70
  %16 = icmp ugt i32 %10, 15
  br i1 %16, label %17, label %23

17:                                               ; preds = %4
  %18 = invoke i8* @_ZNSt7__cxx1112basic_stringIcSt11char_traitsIcESaIcEE9_M_createERmm(%"class.std::__cxx11::basic_string"* nonnull %0, i64* nonnull dereferenceable(8) %5, i64 0)
          to label %19 unwind label %34

19:                                               ; preds = %17
  %20 = getelementptr inbounds %"class.std::__cxx11::basic_string", %"class.std::__cxx11::basic_string"* %0, i64 0, i32 0, i32 0
  store i8* %18, i8** %20, align 8, !tbaa !44
  %21 = load i64, i64* %5, align 8, !tbaa !70
  %22 = getelementptr inbounds %"class.std::__cxx11::basic_string", %"class.std::__cxx11::basic_string"* %0, i64 0, i32 2, i32 0
  store i64 %21, i64* %22, align 8, !tbaa !51
  br label %23

23:                                               ; preds = %19, %4
  %24 = phi i8* [ %18, %19 ], [ %14, %4 ]
  %25 = getelementptr inbounds %"class.std::__cxx11::basic_string", %"class.std::__cxx11::basic_string"* %0, i64 0, i32 0, i32 0
  switch i64 %11, label %28 [
    i64 1, label %26
    i64 0, label %29
  ]

26:                                               ; preds = %23
  %27 = load i8, i8* %7, align 16, !tbaa !51
  store i8 %27, i8* %24, align 1, !tbaa !51
  br label %29

28:                                               ; preds = %23
  call void @llvm.memcpy.p0i8.p0i8.i64(i8* align 1 %24, i8* nonnull align 16 %7, i64 %11, i1 false) #11
  br label %29

29:                                               ; preds = %28, %26, %23
  %30 = load i64, i64* %5, align 8, !tbaa !70
  %31 = getelementptr inbounds %"class.std::__cxx11::basic_string", %"class.std::__cxx11::basic_string"* %0, i64 0, i32 1
  store i64 %30, i64* %31, align 8, !tbaa !50
  %32 = load i8*, i8** %25, align 8, !tbaa !44
  %33 = getelementptr inbounds i8, i8* %32, i64 %30
  store i8 0, i8* %33, align 1, !tbaa !51
  call void @llvm.lifetime.end.p0i8(i64 8, i8* nonnull %15) #11
  call void @llvm.lifetime.end.p0i8(i64 24, i8* nonnull %8) #11
  ret void

34:                                               ; preds = %17
  %35 = landingpad { i8*, i32 }
          cleanup
  call void @llvm.lifetime.end.p0i8(i64 24, i8* nonnull %8) #11
  resume { i8*, i32 } %35
}

declare dso_local void @_ZN8CryptoPP16IteratedHashBaseIjNS_18HashTransformationEE6UpdateEPKhm(%"class.CryptoPP::IteratedHashBase"*, i8*, i64) unnamed_addr #4

; Function Attrs: nobuiltin nounwind
declare dso_local void @_ZdlPv(i8*) local_unnamed_addr #16

; Function Attrs: inlinehint nounwind uwtable
define linkonce_odr dso_local void @_ZN8CryptoPP31IteratedHashWithStaticTransformIjNS_10EnumToTypeINS_9ByteOrderELi1EEELj64ELj32ENS_6SHA256ELj32ELb1EED2Ev(%"class.CryptoPP::IteratedHashWithStaticTransform"*) unnamed_addr #17 comdat align 2 personality i32 (...)* @__gxx_personality_v0 {
  %2 = getelementptr inbounds %"class.CryptoPP::IteratedHashWithStaticTransform", %"class.CryptoPP::IteratedHashWithStaticTransform"* %0, i64 0, i32 0, i32 0, i32 0, i32 0, i32 0, i32 0, i32 0, i32 0
  store i32 (...)** bitcast (i8** getelementptr inbounds ({ [27 x i8*] }, { [27 x i8*] }* @_ZTVN8CryptoPP31IteratedHashWithStaticTransformIjNS_10EnumToTypeINS_9ByteOrderELi1EEELj64ELj32ENS_6SHA256ELj32ELb1EEE, i64 0, inrange i32 0, i64 2) to i32 (...)**), i32 (...)*** %2, align 8, !tbaa !41
  %3 = getelementptr inbounds %"class.CryptoPP::IteratedHashWithStaticTransform", %"class.CryptoPP::IteratedHashWithStaticTransform"* %0, i64 0, i32 1, i32 0, i32 0
  %4 = getelementptr inbounds %"class.CryptoPP::IteratedHashWithStaticTransform", %"class.CryptoPP::IteratedHashWithStaticTransform"* %0, i64 0, i32 1, i32 0, i32 0, i32 2
  %5 = bitcast i32** %4 to i8**
  %6 = load i8*, i8** %5, align 8, !tbaa !67
  %7 = getelementptr inbounds %"class.CryptoPP::IteratedHashWithStaticTransform", %"class.CryptoPP::IteratedHashWithStaticTransform"* %0, i64 0, i32 1, i32 0, i32 0, i32 1
  %8 = load i64, i64* %7, align 8, !tbaa !63
  %9 = bitcast %"class.CryptoPP::SecBlock.1"* %3 to i8*
  %10 = ptrtoint %"class.CryptoPP::SecBlock.1"* %3 to i64
  %11 = sub i64 0, %10
  %12 = and i64 %11, 15
  %13 = getelementptr inbounds i8, i8* %9, i64 %12
  %14 = icmp eq i8* %13, %6
  br i1 %14, label %15, label %23

15:                                               ; preds = %1
  %16 = icmp ult i64 %8, 17
  br i1 %16, label %18, label %17

17:                                               ; preds = %15
  tail call void @__assert_fail(i8* getelementptr inbounds ([10 x i8], [10 x i8]* @.str.2.4, i64 0, i64 0), i8* getelementptr inbounds ([33 x i8], [33 x i8]* @.str.1.5, i64 0, i64 0), i32 370, i8* getelementptr inbounds ([268 x i8], [268 x i8]* @__PRETTY_FUNCTION__._ZN8CryptoPP29FixedSizeAllocatorWithCleanupIjLm16ENS_13NullAllocatorIjEELb1EE10deallocateEPvm, i64 0, i64 0)) #21
  unreachable

18:                                               ; preds = %15
  %19 = getelementptr inbounds %"class.CryptoPP::IteratedHashWithStaticTransform", %"class.CryptoPP::IteratedHashWithStaticTransform"* %0, i64 0, i32 1, i32 0, i32 0, i32 0, i32 2
  %20 = load i8, i8* %19, align 1, !tbaa !66, !range !19
  %21 = icmp eq i8 %20, 0
  br i1 %21, label %22, label %24

22:                                               ; preds = %18
  tail call void @__assert_fail(i8* getelementptr inbounds ([12 x i8], [12 x i8]* @.str.3.6, i64 0, i64 0), i8* getelementptr inbounds ([33 x i8], [33 x i8]* @.str.1.5, i64 0, i64 0), i32 371, i8* getelementptr inbounds ([268 x i8], [268 x i8]* @__PRETTY_FUNCTION__._ZN8CryptoPP29FixedSizeAllocatorWithCleanupIjLm16ENS_13NullAllocatorIjEELb1EE10deallocateEPvm, i64 0, i64 0)) #21
  unreachable

23:                                               ; preds = %1
  tail call void @__assert_fail(i8* getelementptr inbounds ([6 x i8], [6 x i8]* @.str.48, i64 0, i64 0), i8* getelementptr inbounds ([33 x i8], [33 x i8]* @.str.1.5, i64 0, i64 0), i32 281, i8* getelementptr inbounds ([118 x i8], [118 x i8]* @__PRETTY_FUNCTION__._ZN8CryptoPP13NullAllocatorIjE10deallocateEPvm, i64 0, i64 0)) #21
  unreachable

24:                                               ; preds = %18
  store i8 0, i8* %19, align 1, !tbaa !66
  %25 = bitcast i8* %6 to i32*
  %26 = tail call { i64, i32* } asm sideeffect "rep stosl", "={cx},={di},{ax},0,1,~{memory},~{dirflag},~{fpsr},~{flags}"(i32 0, i64 %8, i32* %25) #11, !srcloc !68
  store i32 (...)** bitcast (i8** getelementptr inbounds ({ [27 x i8*] }, { [27 x i8*] }* @_ZTVN8CryptoPP12IteratedHashIjNS_10EnumToTypeINS_9ByteOrderELi1EEELj64ENS_18HashTransformationEEE, i64 0, inrange i32 0, i64 2) to i32 (...)**), i32 (...)*** %2, align 8, !tbaa !41
  %27 = getelementptr inbounds %"class.CryptoPP::IteratedHashWithStaticTransform", %"class.CryptoPP::IteratedHashWithStaticTransform"* %0, i64 0, i32 0, i32 0, i32 0, i32 1, i32 0
  %28 = getelementptr inbounds %"class.CryptoPP::IteratedHashWithStaticTransform", %"class.CryptoPP::IteratedHashWithStaticTransform"* %0, i64 0, i32 0, i32 0, i32 0, i32 1, i32 0, i32 2
  %29 = bitcast i32** %28 to i8**
  %30 = load i8*, i8** %29, align 8, !tbaa !62
  %31 = getelementptr inbounds %"class.CryptoPP::IteratedHashWithStaticTransform", %"class.CryptoPP::IteratedHashWithStaticTransform"* %0, i64 0, i32 0, i32 0, i32 0, i32 1, i32 0, i32 1
  %32 = load i64, i64* %31, align 8, !tbaa !56
  %33 = bitcast %"class.CryptoPP::SecBlock"* %27 to i8*
  %34 = icmp eq i8* %30, %33
  br i1 %34, label %35, label %43

35:                                               ; preds = %24
  %36 = icmp ult i64 %32, 17
  br i1 %36, label %38, label %37

37:                                               ; preds = %35
  tail call void @__assert_fail(i8* getelementptr inbounds ([10 x i8], [10 x i8]* @.str.2.4, i64 0, i64 0), i8* getelementptr inbounds ([33 x i8], [33 x i8]* @.str.1.5, i64 0, i64 0), i32 370, i8* getelementptr inbounds ([270 x i8], [270 x i8]* @__PRETTY_FUNCTION__._ZN8CryptoPP29FixedSizeAllocatorWithCleanupIjLm16ENS_13NullAllocatorIjEELb0EE10deallocateEPvm, i64 0, i64 0)) #21
  unreachable

38:                                               ; preds = %35
  %39 = getelementptr inbounds %"class.CryptoPP::IteratedHashWithStaticTransform", %"class.CryptoPP::IteratedHashWithStaticTransform"* %0, i64 0, i32 0, i32 0, i32 0, i32 1, i32 0, i32 0, i32 2
  %40 = load i8, i8* %39, align 1, !tbaa !61, !range !19
  %41 = icmp eq i8 %40, 0
  br i1 %41, label %42, label %44

42:                                               ; preds = %38
  tail call void @__assert_fail(i8* getelementptr inbounds ([12 x i8], [12 x i8]* @.str.3.6, i64 0, i64 0), i8* getelementptr inbounds ([33 x i8], [33 x i8]* @.str.1.5, i64 0, i64 0), i32 371, i8* getelementptr inbounds ([270 x i8], [270 x i8]* @__PRETTY_FUNCTION__._ZN8CryptoPP29FixedSizeAllocatorWithCleanupIjLm16ENS_13NullAllocatorIjEELb0EE10deallocateEPvm, i64 0, i64 0)) #21
  unreachable

43:                                               ; preds = %24
  tail call void @__assert_fail(i8* getelementptr inbounds ([6 x i8], [6 x i8]* @.str.48, i64 0, i64 0), i8* getelementptr inbounds ([33 x i8], [33 x i8]* @.str.1.5, i64 0, i64 0), i32 281, i8* getelementptr inbounds ([118 x i8], [118 x i8]* @__PRETTY_FUNCTION__._ZN8CryptoPP13NullAllocatorIjE10deallocateEPvm, i64 0, i64 0)) #21
  unreachable

44:                                               ; preds = %38
  store i8 0, i8* %39, align 1, !tbaa !61
  %45 = bitcast i8* %30 to i32*
  %46 = tail call { i64, i32* } asm sideeffect "rep stosl", "={cx},={di},{ax},0,1,~{memory},~{dirflag},~{fpsr},~{flags}"(i32 0, i64 %32, i32* %45) #11, !srcloc !68
  ret void
}

; Function Attrs: noreturn nounwind
declare dso_local void @__assert_fail(i8*, i8*, i32, i8*) local_unnamed_addr #3

; Function Attrs: inlinehint nounwind uwtable
define linkonce_odr dso_local void @_ZN8CryptoPP12IteratedHashIjNS_10EnumToTypeINS_9ByteOrderELi1EEELj64ENS_18HashTransformationEED2Ev(%"class.CryptoPP::IteratedHash"*) unnamed_addr #17 comdat align 2 personality i32 (...)* @__gxx_personality_v0 {
  %2 = getelementptr inbounds %"class.CryptoPP::IteratedHash", %"class.CryptoPP::IteratedHash"* %0, i64 0, i32 0, i32 0, i32 0, i32 0, i32 0
  store i32 (...)** bitcast (i8** getelementptr inbounds ({ [27 x i8*] }, { [27 x i8*] }* @_ZTVN8CryptoPP12IteratedHashIjNS_10EnumToTypeINS_9ByteOrderELi1EEELj64ENS_18HashTransformationEEE, i64 0, inrange i32 0, i64 2) to i32 (...)**), i32 (...)*** %2, align 8, !tbaa !41
  %3 = getelementptr inbounds %"class.CryptoPP::IteratedHash", %"class.CryptoPP::IteratedHash"* %0, i64 0, i32 1, i32 0
  %4 = getelementptr inbounds %"class.CryptoPP::IteratedHash", %"class.CryptoPP::IteratedHash"* %0, i64 0, i32 1, i32 0, i32 2
  %5 = bitcast i32** %4 to i8**
  %6 = load i8*, i8** %5, align 8, !tbaa !62
  %7 = getelementptr inbounds %"class.CryptoPP::IteratedHash", %"class.CryptoPP::IteratedHash"* %0, i64 0, i32 1, i32 0, i32 1
  %8 = load i64, i64* %7, align 8, !tbaa !56
  %9 = bitcast %"class.CryptoPP::SecBlock"* %3 to i8*
  %10 = icmp eq i8* %6, %9
  br i1 %10, label %11, label %19

11:                                               ; preds = %1
  %12 = icmp ult i64 %8, 17
  br i1 %12, label %14, label %13

13:                                               ; preds = %11
  tail call void @__assert_fail(i8* getelementptr inbounds ([10 x i8], [10 x i8]* @.str.2.4, i64 0, i64 0), i8* getelementptr inbounds ([33 x i8], [33 x i8]* @.str.1.5, i64 0, i64 0), i32 370, i8* getelementptr inbounds ([270 x i8], [270 x i8]* @__PRETTY_FUNCTION__._ZN8CryptoPP29FixedSizeAllocatorWithCleanupIjLm16ENS_13NullAllocatorIjEELb0EE10deallocateEPvm, i64 0, i64 0)) #21
  unreachable

14:                                               ; preds = %11
  %15 = getelementptr inbounds %"class.CryptoPP::IteratedHash", %"class.CryptoPP::IteratedHash"* %0, i64 0, i32 1, i32 0, i32 0, i32 2
  %16 = load i8, i8* %15, align 1, !tbaa !61, !range !19
  %17 = icmp eq i8 %16, 0
  br i1 %17, label %18, label %20

18:                                               ; preds = %14
  tail call void @__assert_fail(i8* getelementptr inbounds ([12 x i8], [12 x i8]* @.str.3.6, i64 0, i64 0), i8* getelementptr inbounds ([33 x i8], [33 x i8]* @.str.1.5, i64 0, i64 0), i32 371, i8* getelementptr inbounds ([270 x i8], [270 x i8]* @__PRETTY_FUNCTION__._ZN8CryptoPP29FixedSizeAllocatorWithCleanupIjLm16ENS_13NullAllocatorIjEELb0EE10deallocateEPvm, i64 0, i64 0)) #21
  unreachable

19:                                               ; preds = %1
  tail call void @__assert_fail(i8* getelementptr inbounds ([6 x i8], [6 x i8]* @.str.48, i64 0, i64 0), i8* getelementptr inbounds ([33 x i8], [33 x i8]* @.str.1.5, i64 0, i64 0), i32 281, i8* getelementptr inbounds ([118 x i8], [118 x i8]* @__PRETTY_FUNCTION__._ZN8CryptoPP13NullAllocatorIjE10deallocateEPvm, i64 0, i64 0)) #21
  unreachable

20:                                               ; preds = %14
  store i8 0, i8* %15, align 1, !tbaa !61
  %21 = bitcast i8* %6 to i32*
  %22 = tail call { i64, i32* } asm sideeffect "rep stosl", "={cx},={di},{ax},0,1,~{memory},~{dirflag},~{fpsr},~{flags}"(i32 0, i64 %8, i32* %21) #11, !srcloc !68
  ret void
}

; Function Attrs: inlinehint nounwind uwtable
define linkonce_odr dso_local void @_ZN8CryptoPP12IteratedHashIjNS_10EnumToTypeINS_9ByteOrderELi1EEELj64ENS_18HashTransformationEED0Ev(%"class.CryptoPP::IteratedHash"*) unnamed_addr #17 comdat align 2 {
  tail call void @llvm.trap() #21
  unreachable
}

; Function Attrs: uwtable
define linkonce_odr dso_local %"class.CryptoPP::Clonable"* @_ZNK8CryptoPP8Clonable5CloneEv(%"class.CryptoPP::Clonable"*) unnamed_addr #15 comdat align 2 personality i8* bitcast (i32 (...)* @__gxx_personality_v0 to i8*) {
  %2 = alloca i64, align 8
  %3 = alloca i64, align 8
  %4 = alloca %"class.std::__cxx11::basic_string", align 8
  %5 = tail call i8* @__cxa_allocate_exception(i64 48) #11
  %6 = bitcast %"class.std::__cxx11::basic_string"* %4 to i8*
  call void @llvm.lifetime.start.p0i8(i64 32, i8* nonnull %6) #11
  %7 = getelementptr inbounds %"class.std::__cxx11::basic_string", %"class.std::__cxx11::basic_string"* %4, i64 0, i32 2
  %8 = bitcast %"class.std::__cxx11::basic_string"* %4 to %union.anon.0**
  store %union.anon.0* %7, %union.anon.0** %8, align 8, !tbaa !69
  %9 = bitcast %union.anon.0* %7 to i8*
  %10 = bitcast i64* %3 to i8*
  call void @llvm.lifetime.start.p0i8(i64 8, i8* nonnull %10) #11
  store i64 31, i64* %3, align 8, !tbaa !70
  %11 = invoke i8* @_ZNSt7__cxx1112basic_stringIcSt11char_traitsIcESaIcEE9_M_createERmm(%"class.std::__cxx11::basic_string"* nonnull %4, i64* nonnull dereferenceable(8) %3, i64 0)
          to label %12 unwind label %55

12:                                               ; preds = %1
  %13 = getelementptr inbounds %"class.std::__cxx11::basic_string", %"class.std::__cxx11::basic_string"* %4, i64 0, i32 0, i32 0
  store i8* %11, i8** %13, align 8, !tbaa !44
  %14 = load i64, i64* %3, align 8, !tbaa !70
  %15 = getelementptr inbounds %"class.std::__cxx11::basic_string", %"class.std::__cxx11::basic_string"* %4, i64 0, i32 2, i32 0
  store i64 %14, i64* %15, align 8, !tbaa !51
  call void @llvm.memcpy.p0i8.p0i8.i64(i8* align 1 %11, i8* nonnull align 1 getelementptr inbounds ([32 x i8], [32 x i8]* @.str.6.50, i64 0, i64 0), i64 31, i1 false) #11
  %16 = getelementptr inbounds %"class.std::__cxx11::basic_string", %"class.std::__cxx11::basic_string"* %4, i64 0, i32 1
  store i64 %14, i64* %16, align 8, !tbaa !50
  %17 = load i8*, i8** %13, align 8, !tbaa !44
  %18 = getelementptr inbounds i8, i8* %17, i64 %14
  store i8 0, i8* %18, align 1, !tbaa !51
  call void @llvm.lifetime.end.p0i8(i64 8, i8* nonnull %10) #11
  %19 = bitcast i8* %5 to %"class.CryptoPP::Clonable"*
  %20 = bitcast i8* %5 to i32 (...)***
  store i32 (...)** bitcast (i8** getelementptr inbounds ({ [5 x i8*] }, { [5 x i8*] }* @_ZTVN8CryptoPP9ExceptionE, i64 0, inrange i32 0, i64 2) to i32 (...)**), i32 (...)*** %20, align 8, !tbaa !41
  %21 = getelementptr inbounds i8, i8* %5, i64 8
  %22 = bitcast i8* %21 to i32*
  store i32 0, i32* %22, align 8, !tbaa !71
  %23 = getelementptr inbounds i8, i8* %5, i64 16
  %24 = bitcast i8* %23 to %"class.std::__cxx11::basic_string"*
  %25 = getelementptr inbounds i8, i8* %5, i64 32
  %26 = bitcast i8* %23 to i8**
  store i8* %25, i8** %26, align 8, !tbaa !69
  %27 = load i8*, i8** %13, align 8, !tbaa !44
  %28 = load i64, i64* %16, align 8, !tbaa !50
  %29 = icmp ne i8* %27, null
  %30 = icmp eq i64 %28, 0
  %31 = or i1 %29, %30
  br i1 %31, label %34, label %32

32:                                               ; preds = %12
  invoke void @_ZSt19__throw_logic_errorPKc(i8* getelementptr inbounds ([42 x i8], [42 x i8]* @.str.5.51, i64 0, i64 0)) #25
          to label %33 unwind label %47

33:                                               ; preds = %32
  unreachable

34:                                               ; preds = %12
  %35 = bitcast i64* %2 to i8*
  call void @llvm.lifetime.start.p0i8(i64 8, i8* nonnull %35) #11
  store i64 %28, i64* %2, align 8, !tbaa !70
  %36 = icmp ugt i64 %28, 15
  br i1 %36, label %37, label %42

37:                                               ; preds = %34
  %38 = invoke i8* @_ZNSt7__cxx1112basic_stringIcSt11char_traitsIcESaIcEE9_M_createERmm(%"class.std::__cxx11::basic_string"* nonnull %24, i64* nonnull dereferenceable(8) %2, i64 0)
          to label %39 unwind label %47

39:                                               ; preds = %37
  store i8* %38, i8** %26, align 8, !tbaa !44
  %40 = load i64, i64* %2, align 8, !tbaa !70
  %41 = bitcast i8* %25 to i64*
  store i64 %40, i64* %41, align 8, !tbaa !51
  br label %42

42:                                               ; preds = %39, %34
  %43 = phi i8* [ %38, %39 ], [ %25, %34 ]
  switch i64 %28, label %46 [
    i64 1, label %44
    i64 0, label %49
  ]

44:                                               ; preds = %42
  %45 = load i8, i8* %27, align 1, !tbaa !51
  store i8 %45, i8* %43, align 1, !tbaa !51
  br label %49

46:                                               ; preds = %42
  call void @llvm.memcpy.p0i8.p0i8.i64(i8* align 1 %43, i8* align 1 %27, i64 %28, i1 false) #11
  br label %49

47:                                               ; preds = %37, %32
  %48 = landingpad { i8*, i32 }
          cleanup
  call void @_ZNSt9exceptionD2Ev(%"class.CryptoPP::Clonable"* %19) #11
  br label %61

49:                                               ; preds = %46, %44, %42
  %50 = load i64, i64* %2, align 8, !tbaa !70
  %51 = getelementptr inbounds i8, i8* %5, i64 24
  %52 = bitcast i8* %51 to i64*
  store i64 %50, i64* %52, align 8, !tbaa !50
  %53 = load i8*, i8** %26, align 8, !tbaa !44
  %54 = getelementptr inbounds i8, i8* %53, i64 %50
  store i8 0, i8* %54, align 1, !tbaa !51
  call void @llvm.lifetime.end.p0i8(i64 8, i8* nonnull %35) #11
  store i32 (...)** bitcast (i8** getelementptr inbounds ({ [5 x i8*] }, { [5 x i8*] }* @_ZTVN8CryptoPP14NotImplementedE, i64 0, inrange i32 0, i64 2) to i32 (...)**), i32 (...)*** %20, align 8, !tbaa !41
  invoke void @__cxa_throw(i8* nonnull %5, i8* bitcast ({ i8*, i8*, i8* }* @_ZTIN8CryptoPP14NotImplementedE to i8*), i8* bitcast (void (%"class.CryptoPP::Exception"*)* @_ZN8CryptoPP9ExceptionD2Ev to i8*)) #25
          to label %78 unwind label %59

55:                                               ; preds = %1
  %56 = landingpad { i8*, i32 }
          cleanup
  %57 = extractvalue { i8*, i32 } %56, 0
  %58 = extractvalue { i8*, i32 } %56, 1
  call void @llvm.lifetime.end.p0i8(i64 32, i8* nonnull %6) #11
  br label %70

59:                                               ; preds = %49
  %60 = landingpad { i8*, i32 }
          cleanup
  br label %61

61:                                               ; preds = %59, %47
  %62 = phi i1 [ false, %59 ], [ true, %47 ]
  %63 = phi { i8*, i32 } [ %60, %59 ], [ %48, %47 ]
  %64 = extractvalue { i8*, i32 } %63, 0
  %65 = extractvalue { i8*, i32 } %63, 1
  %66 = load i8*, i8** %13, align 8, !tbaa !44
  %67 = icmp eq i8* %66, %9
  br i1 %67, label %69, label %68

68:                                               ; preds = %61
  call void @_ZdlPv(i8* %66) #11
  call void @llvm.lifetime.end.p0i8(i64 32, i8* nonnull %6) #11
  br i1 %62, label %70, label %73

69:                                               ; preds = %61
  call void @llvm.lifetime.end.p0i8(i64 32, i8* nonnull %6) #11
  br i1 %62, label %70, label %73

70:                                               ; preds = %69, %68, %55
  %71 = phi i32 [ %58, %55 ], [ %65, %69 ], [ %65, %68 ]
  %72 = phi i8* [ %57, %55 ], [ %64, %69 ], [ %64, %68 ]
  call void @__cxa_free_exception(i8* %5) #11
  br label %73

73:                                               ; preds = %70, %69, %68
  %74 = phi i32 [ %65, %69 ], [ %71, %70 ], [ %65, %68 ]
  %75 = phi i8* [ %64, %69 ], [ %72, %70 ], [ %64, %68 ]
  %76 = insertvalue { i8*, i32 } undef, i8* %75, 0
  %77 = insertvalue { i8*, i32 } %76, i32 %74, 1
  resume { i8*, i32 } %77

78:                                               ; preds = %49
  unreachable
}

; Function Attrs: uwtable
define linkonce_odr dso_local void @_ZNK8CryptoPP9Algorithm13AlgorithmNameB5cxx11Ev(%"class.std::__cxx11::basic_string"* noalias sret, %"class.CryptoPP::Algorithm"*) unnamed_addr #15 comdat align 2 personality i8* bitcast (i32 (...)* @__gxx_personality_v0 to i8*) {
  %3 = getelementptr inbounds %"class.std::__cxx11::basic_string", %"class.std::__cxx11::basic_string"* %0, i64 0, i32 2
  %4 = bitcast %"class.std::__cxx11::basic_string"* %0 to %union.anon.0**
  store %union.anon.0* %3, %union.anon.0** %4, align 8, !tbaa !69
  %5 = bitcast %union.anon.0* %3 to i8*
  tail call void @llvm.memcpy.p0i8.p0i8.i64(i8* nonnull align 8 %5, i8* nonnull align 1 getelementptr inbounds ([8 x i8], [8 x i8]* @.str.4.49, i64 0, i64 0), i64 7, i1 false) #11
  %6 = getelementptr inbounds %"class.std::__cxx11::basic_string", %"class.std::__cxx11::basic_string"* %0, i64 0, i32 1
  store i64 7, i64* %6, align 8, !tbaa !50
  %7 = getelementptr inbounds i8, i8* %5, i64 7
  store i8 0, i8* %7, align 1, !tbaa !51
  ret void
}

declare dso_local i8* @_ZN8CryptoPP16IteratedHashBaseIjNS_18HashTransformationEE17CreateUpdateSpaceERm(%"class.CryptoPP::IteratedHashBase"*, i64* dereferenceable(8)) unnamed_addr #4

; Function Attrs: uwtable
define linkonce_odr dso_local void @_ZN8CryptoPP18HashTransformation5FinalEPh(%"class.CryptoPP::HashTransformation"*, i8*) unnamed_addr #15 comdat align 2 {
  %3 = bitcast %"class.CryptoPP::HashTransformation"* %0 to i32 (%"class.CryptoPP::HashTransformation"*)***
  %4 = load i32 (%"class.CryptoPP::HashTransformation"*)**, i32 (%"class.CryptoPP::HashTransformation"*)*** %3, align 8, !tbaa !41
  %5 = getelementptr inbounds i32 (%"class.CryptoPP::HashTransformation"*)*, i32 (%"class.CryptoPP::HashTransformation"*)** %4, i64 8
  %6 = load i32 (%"class.CryptoPP::HashTransformation"*)*, i32 (%"class.CryptoPP::HashTransformation"*)** %5, align 8
  %7 = tail call i32 %6(%"class.CryptoPP::HashTransformation"* %0)
  %8 = zext i32 %7 to i64
  %9 = bitcast %"class.CryptoPP::HashTransformation"* %0 to void (%"class.CryptoPP::HashTransformation"*, i8*, i64)***
  %10 = load void (%"class.CryptoPP::HashTransformation"*, i8*, i64)**, void (%"class.CryptoPP::HashTransformation"*, i8*, i64)*** %9, align 8, !tbaa !41
  %11 = getelementptr inbounds void (%"class.CryptoPP::HashTransformation"*, i8*, i64)*, void (%"class.CryptoPP::HashTransformation"*, i8*, i64)** %10, i64 15
  %12 = load void (%"class.CryptoPP::HashTransformation"*, i8*, i64)*, void (%"class.CryptoPP::HashTransformation"*, i8*, i64)** %11, align 8
  tail call void %12(%"class.CryptoPP::HashTransformation"* %0, i8* %1, i64 %8)
  ret void
}

declare dso_local void @_ZN8CryptoPP16IteratedHashBaseIjNS_18HashTransformationEE7RestartEv(%"class.CryptoPP::IteratedHashBase"*) unnamed_addr #4

declare dso_local void @__cxa_pure_virtual() unnamed_addr

; Function Attrs: nounwind uwtable
define linkonce_odr dso_local i32 @_ZNK8CryptoPP12IteratedHashIjNS_10EnumToTypeINS_9ByteOrderELi1EEELj64ENS_18HashTransformationEE9BlockSizeEv(%"class.CryptoPP::IteratedHash"*) unnamed_addr #0 comdat align 2 {
  ret i32 64
}

; Function Attrs: uwtable
define linkonce_odr dso_local i32 @_ZNK8CryptoPP16IteratedHashBaseIjNS_18HashTransformationEE16OptimalBlockSizeEv(%"class.CryptoPP::IteratedHashBase"*) unnamed_addr #15 comdat align 2 {
  %2 = getelementptr inbounds %"class.CryptoPP::IteratedHashBase", %"class.CryptoPP::IteratedHashBase"* %0, i64 0, i32 0
  %3 = bitcast %"class.CryptoPP::IteratedHashBase"* %0 to i32 (%"class.CryptoPP::HashTransformation"*)***
  %4 = load i32 (%"class.CryptoPP::HashTransformation"*)**, i32 (%"class.CryptoPP::HashTransformation"*)*** %3, align 8, !tbaa !41
  %5 = getelementptr inbounds i32 (%"class.CryptoPP::HashTransformation"*)*, i32 (%"class.CryptoPP::HashTransformation"*)** %4, i64 9
  %6 = load i32 (%"class.CryptoPP::HashTransformation"*)*, i32 (%"class.CryptoPP::HashTransformation"*)** %5, align 8
  %7 = tail call i32 %6(%"class.CryptoPP::HashTransformation"* %2)
  ret i32 %7
}

; Function Attrs: nounwind uwtable
define linkonce_odr dso_local i32 @_ZNK8CryptoPP16IteratedHashBaseIjNS_18HashTransformationEE20OptimalDataAlignmentEv(%"class.CryptoPP::IteratedHashBase"*) unnamed_addr #0 comdat align 2 {
  ret i32 1
}

; Function Attrs: uwtable
define linkonce_odr dso_local void @_ZN8CryptoPP18HashTransformation15CalculateDigestEPhPKhm(%"class.CryptoPP::HashTransformation"*, i8*, i8*, i64) unnamed_addr #15 comdat align 2 {
  %5 = bitcast %"class.CryptoPP::HashTransformation"* %0 to void (%"class.CryptoPP::HashTransformation"*, i8*, i64)***
  %6 = load void (%"class.CryptoPP::HashTransformation"*, i8*, i64)**, void (%"class.CryptoPP::HashTransformation"*, i8*, i64)*** %5, align 8, !tbaa !41
  %7 = getelementptr inbounds void (%"class.CryptoPP::HashTransformation"*, i8*, i64)*, void (%"class.CryptoPP::HashTransformation"*, i8*, i64)** %6, i64 4
  %8 = load void (%"class.CryptoPP::HashTransformation"*, i8*, i64)*, void (%"class.CryptoPP::HashTransformation"*, i8*, i64)** %7, align 8
  tail call void %8(%"class.CryptoPP::HashTransformation"* %0, i8* %2, i64 %3)
  %9 = bitcast %"class.CryptoPP::HashTransformation"* %0 to void (%"class.CryptoPP::HashTransformation"*, i8*)***
  %10 = load void (%"class.CryptoPP::HashTransformation"*, i8*)**, void (%"class.CryptoPP::HashTransformation"*, i8*)*** %9, align 8, !tbaa !41
  %11 = getelementptr inbounds void (%"class.CryptoPP::HashTransformation"*, i8*)*, void (%"class.CryptoPP::HashTransformation"*, i8*)** %10, i64 6
  %12 = load void (%"class.CryptoPP::HashTransformation"*, i8*)*, void (%"class.CryptoPP::HashTransformation"*, i8*)** %11, align 8
  tail call void %12(%"class.CryptoPP::HashTransformation"* %0, i8* %1)
  ret void
}

; Function Attrs: uwtable
define linkonce_odr dso_local zeroext i1 @_ZN8CryptoPP18HashTransformation6VerifyEPKh(%"class.CryptoPP::HashTransformation"*, i8*) unnamed_addr #15 comdat align 2 {
  %3 = bitcast %"class.CryptoPP::HashTransformation"* %0 to i32 (%"class.CryptoPP::HashTransformation"*)***
  %4 = load i32 (%"class.CryptoPP::HashTransformation"*)**, i32 (%"class.CryptoPP::HashTransformation"*)*** %3, align 8, !tbaa !41
  %5 = getelementptr inbounds i32 (%"class.CryptoPP::HashTransformation"*)*, i32 (%"class.CryptoPP::HashTransformation"*)** %4, i64 8
  %6 = load i32 (%"class.CryptoPP::HashTransformation"*)*, i32 (%"class.CryptoPP::HashTransformation"*)** %5, align 8
  %7 = tail call i32 %6(%"class.CryptoPP::HashTransformation"* %0)
  %8 = zext i32 %7 to i64
  %9 = bitcast %"class.CryptoPP::HashTransformation"* %0 to i1 (%"class.CryptoPP::HashTransformation"*, i8*, i64)***
  %10 = load i1 (%"class.CryptoPP::HashTransformation"*, i8*, i64)**, i1 (%"class.CryptoPP::HashTransformation"*, i8*, i64)*** %9, align 8, !tbaa !41
  %11 = getelementptr inbounds i1 (%"class.CryptoPP::HashTransformation"*, i8*, i64)*, i1 (%"class.CryptoPP::HashTransformation"*, i8*, i64)** %10, i64 17
  %12 = load i1 (%"class.CryptoPP::HashTransformation"*, i8*, i64)*, i1 (%"class.CryptoPP::HashTransformation"*, i8*, i64)** %11, align 8
  %13 = tail call zeroext i1 %12(%"class.CryptoPP::HashTransformation"* %0, i8* %1, i64 %8)
  ret i1 %13
}

; Function Attrs: uwtable
define linkonce_odr dso_local zeroext i1 @_ZN8CryptoPP18HashTransformation12VerifyDigestEPKhS2_m(%"class.CryptoPP::HashTransformation"*, i8*, i8*, i64) unnamed_addr #15 comdat align 2 {
  %5 = bitcast %"class.CryptoPP::HashTransformation"* %0 to void (%"class.CryptoPP::HashTransformation"*, i8*, i64)***
  %6 = load void (%"class.CryptoPP::HashTransformation"*, i8*, i64)**, void (%"class.CryptoPP::HashTransformation"*, i8*, i64)*** %5, align 8, !tbaa !41
  %7 = getelementptr inbounds void (%"class.CryptoPP::HashTransformation"*, i8*, i64)*, void (%"class.CryptoPP::HashTransformation"*, i8*, i64)** %6, i64 4
  %8 = load void (%"class.CryptoPP::HashTransformation"*, i8*, i64)*, void (%"class.CryptoPP::HashTransformation"*, i8*, i64)** %7, align 8
  tail call void %8(%"class.CryptoPP::HashTransformation"* %0, i8* %2, i64 %3)
  %9 = bitcast %"class.CryptoPP::HashTransformation"* %0 to i1 (%"class.CryptoPP::HashTransformation"*, i8*)***
  %10 = load i1 (%"class.CryptoPP::HashTransformation"*, i8*)**, i1 (%"class.CryptoPP::HashTransformation"*, i8*)*** %9, align 8, !tbaa !41
  %11 = getelementptr inbounds i1 (%"class.CryptoPP::HashTransformation"*, i8*)*, i1 (%"class.CryptoPP::HashTransformation"*, i8*)** %10, i64 13
  %12 = load i1 (%"class.CryptoPP::HashTransformation"*, i8*)*, i1 (%"class.CryptoPP::HashTransformation"*, i8*)** %11, align 8
  %13 = tail call zeroext i1 %12(%"class.CryptoPP::HashTransformation"* %0, i8* %1)
  ret i1 %13
}

declare dso_local void @_ZN8CryptoPP16IteratedHashBaseIjNS_18HashTransformationEE14TruncatedFinalEPhm(%"class.CryptoPP::IteratedHashBase"*, i8*, i64) unnamed_addr #4

; Function Attrs: uwtable
define linkonce_odr dso_local void @_ZN8CryptoPP18HashTransformation24CalculateTruncatedDigestEPhmPKhm(%"class.CryptoPP::HashTransformation"*, i8*, i64, i8*, i64) unnamed_addr #15 comdat align 2 {
  %6 = bitcast %"class.CryptoPP::HashTransformation"* %0 to void (%"class.CryptoPP::HashTransformation"*, i8*, i64)***
  %7 = load void (%"class.CryptoPP::HashTransformation"*, i8*, i64)**, void (%"class.CryptoPP::HashTransformation"*, i8*, i64)*** %6, align 8, !tbaa !41
  %8 = getelementptr inbounds void (%"class.CryptoPP::HashTransformation"*, i8*, i64)*, void (%"class.CryptoPP::HashTransformation"*, i8*, i64)** %7, i64 4
  %9 = load void (%"class.CryptoPP::HashTransformation"*, i8*, i64)*, void (%"class.CryptoPP::HashTransformation"*, i8*, i64)** %8, align 8
  tail call void %9(%"class.CryptoPP::HashTransformation"* %0, i8* %3, i64 %4)
  %10 = load void (%"class.CryptoPP::HashTransformation"*, i8*, i64)**, void (%"class.CryptoPP::HashTransformation"*, i8*, i64)*** %6, align 8, !tbaa !41
  %11 = getelementptr inbounds void (%"class.CryptoPP::HashTransformation"*, i8*, i64)*, void (%"class.CryptoPP::HashTransformation"*, i8*, i64)** %10, i64 15
  %12 = load void (%"class.CryptoPP::HashTransformation"*, i8*, i64)*, void (%"class.CryptoPP::HashTransformation"*, i8*, i64)** %11, align 8
  tail call void %12(%"class.CryptoPP::HashTransformation"* %0, i8* %1, i64 %2)
  ret void
}

declare dso_local zeroext i1 @_ZN8CryptoPP18HashTransformation15TruncatedVerifyEPKhm(%"class.CryptoPP::HashTransformation"*, i8*, i64) unnamed_addr #4

; Function Attrs: uwtable
define linkonce_odr dso_local zeroext i1 @_ZN8CryptoPP18HashTransformation21VerifyTruncatedDigestEPKhmS2_m(%"class.CryptoPP::HashTransformation"*, i8*, i64, i8*, i64) unnamed_addr #15 comdat align 2 {
  %6 = bitcast %"class.CryptoPP::HashTransformation"* %0 to void (%"class.CryptoPP::HashTransformation"*, i8*, i64)***
  %7 = load void (%"class.CryptoPP::HashTransformation"*, i8*, i64)**, void (%"class.CryptoPP::HashTransformation"*, i8*, i64)*** %6, align 8, !tbaa !41
  %8 = getelementptr inbounds void (%"class.CryptoPP::HashTransformation"*, i8*, i64)*, void (%"class.CryptoPP::HashTransformation"*, i8*, i64)** %7, i64 4
  %9 = load void (%"class.CryptoPP::HashTransformation"*, i8*, i64)*, void (%"class.CryptoPP::HashTransformation"*, i8*, i64)** %8, align 8
  tail call void %9(%"class.CryptoPP::HashTransformation"* %0, i8* %3, i64 %4)
  %10 = bitcast %"class.CryptoPP::HashTransformation"* %0 to i1 (%"class.CryptoPP::HashTransformation"*, i8*, i64)***
  %11 = load i1 (%"class.CryptoPP::HashTransformation"*, i8*, i64)**, i1 (%"class.CryptoPP::HashTransformation"*, i8*, i64)*** %10, align 8, !tbaa !41
  %12 = getelementptr inbounds i1 (%"class.CryptoPP::HashTransformation"*, i8*, i64)*, i1 (%"class.CryptoPP::HashTransformation"*, i8*, i64)** %11, i64 17
  %13 = load i1 (%"class.CryptoPP::HashTransformation"*, i8*, i64)*, i1 (%"class.CryptoPP::HashTransformation"*, i8*, i64)** %12, align 8
  %14 = tail call zeroext i1 %13(%"class.CryptoPP::HashTransformation"* %0, i8* %1, i64 %2)
  ret i1 %14
}

; Function Attrs: uwtable
define linkonce_odr dso_local i32 @_ZNK8CryptoPP12IteratedHashIjNS_10EnumToTypeINS_9ByteOrderELi1EEELj64ENS_18HashTransformationEE12GetByteOrderEv(%"class.CryptoPP::IteratedHash"*) unnamed_addr #15 comdat align 2 {
  ret i32 1
}

declare dso_local i64 @_ZN8CryptoPP16IteratedHashBaseIjNS_18HashTransformationEE18HashMultipleBlocksEPKjm(%"class.CryptoPP::IteratedHashBase"*, i32*, i64) unnamed_addr #4

; Function Attrs: uwtable
define linkonce_odr dso_local i32* @_ZN8CryptoPP12IteratedHashIjNS_10EnumToTypeINS_9ByteOrderELi1EEELj64ENS_18HashTransformationEE7DataBufEv(%"class.CryptoPP::IteratedHash"*) unnamed_addr #15 comdat align 2 {
  %2 = getelementptr inbounds %"class.CryptoPP::IteratedHash", %"class.CryptoPP::IteratedHash"* %0, i64 0, i32 1, i32 0, i32 2
  %3 = load i32*, i32** %2, align 8, !tbaa !62
  ret i32* %3
}

declare dso_local i8* @__cxa_allocate_exception(i64) local_unnamed_addr

declare dso_local i8* @_ZNSt7__cxx1112basic_stringIcSt11char_traitsIcESaIcEE9_M_createERmm(%"class.std::__cxx11::basic_string"*, i64* dereferenceable(8), i64) local_unnamed_addr #4

; Function Attrs: noreturn
declare dso_local void @_ZSt19__throw_logic_errorPKc(i8*) local_unnamed_addr #13

; Function Attrs: nounwind
declare dso_local void @_ZNSt9exceptionD2Ev(%"class.CryptoPP::Clonable"*) unnamed_addr #1

; Function Attrs: nounwind uwtable
define linkonce_odr dso_local void @_ZN8CryptoPP9ExceptionD2Ev(%"class.CryptoPP::Exception"*) unnamed_addr #0 comdat align 2 personality i32 (...)* @__gxx_personality_v0 {
  %2 = getelementptr inbounds %"class.CryptoPP::Exception", %"class.CryptoPP::Exception"* %0, i64 0, i32 0, i32 0
  store i32 (...)** bitcast (i8** getelementptr inbounds ({ [5 x i8*] }, { [5 x i8*] }* @_ZTVN8CryptoPP9ExceptionE, i64 0, inrange i32 0, i64 2) to i32 (...)**), i32 (...)*** %2, align 8, !tbaa !41
  %3 = getelementptr inbounds %"class.CryptoPP::Exception", %"class.CryptoPP::Exception"* %0, i64 0, i32 2, i32 0, i32 0
  %4 = load i8*, i8** %3, align 8, !tbaa !44
  %5 = getelementptr inbounds %"class.CryptoPP::Exception", %"class.CryptoPP::Exception"* %0, i64 0, i32 2, i32 2
  %6 = bitcast %union.anon.0* %5 to i8*
  %7 = icmp eq i8* %4, %6
  br i1 %7, label %9, label %8

8:                                                ; preds = %1
  tail call void @_ZdlPv(i8* %4) #11
  br label %9

9:                                                ; preds = %8, %1
  %10 = getelementptr inbounds %"class.CryptoPP::Exception", %"class.CryptoPP::Exception"* %0, i64 0, i32 0
  tail call void @_ZNSt9exceptionD2Ev(%"class.CryptoPP::Clonable"* %10) #11
  ret void
}

declare dso_local void @__cxa_throw(i8*, i8*, i8*) local_unnamed_addr

declare dso_local void @__cxa_free_exception(i8*) local_unnamed_addr

; Function Attrs: inlinehint nounwind uwtable
define linkonce_odr dso_local void @_ZN8CryptoPP14NotImplementedD0Ev(%"class.CryptoPP::NotImplemented"*) unnamed_addr #17 comdat align 2 personality i32 (...)* @__gxx_personality_v0 {
  %2 = getelementptr inbounds %"class.CryptoPP::NotImplemented", %"class.CryptoPP::NotImplemented"* %0, i64 0, i32 0, i32 0, i32 0
  store i32 (...)** bitcast (i8** getelementptr inbounds ({ [5 x i8*] }, { [5 x i8*] }* @_ZTVN8CryptoPP9ExceptionE, i64 0, inrange i32 0, i64 2) to i32 (...)**), i32 (...)*** %2, align 8, !tbaa !41
  %3 = getelementptr inbounds %"class.CryptoPP::NotImplemented", %"class.CryptoPP::NotImplemented"* %0, i64 0, i32 0, i32 2, i32 0, i32 0
  %4 = load i8*, i8** %3, align 8, !tbaa !44
  %5 = getelementptr inbounds %"class.CryptoPP::NotImplemented", %"class.CryptoPP::NotImplemented"* %0, i64 0, i32 0, i32 2, i32 2
  %6 = bitcast %union.anon.0* %5 to i8*
  %7 = icmp eq i8* %4, %6
  br i1 %7, label %9, label %8

8:                                                ; preds = %1
  tail call void @_ZdlPv(i8* %4) #11
  br label %9

9:                                                ; preds = %8, %1
  %10 = getelementptr inbounds %"class.CryptoPP::NotImplemented", %"class.CryptoPP::NotImplemented"* %0, i64 0, i32 0, i32 0
  tail call void @_ZNSt9exceptionD2Ev(%"class.CryptoPP::Clonable"* %10) #11
  %11 = bitcast %"class.CryptoPP::NotImplemented"* %0 to i8*
  tail call void @_ZdlPv(i8* %11) #26
  ret void
}

; Function Attrs: nounwind uwtable
define linkonce_odr dso_local i8* @_ZNK8CryptoPP9Exception4whatEv(%"class.CryptoPP::Exception"*) unnamed_addr #0 comdat align 2 personality i32 (...)* @__gxx_personality_v0 {
  %2 = getelementptr inbounds %"class.CryptoPP::Exception", %"class.CryptoPP::Exception"* %0, i64 0, i32 2, i32 0, i32 0
  %3 = load i8*, i8** %2, align 8, !tbaa !44
  ret i8* %3
}

; Function Attrs: nounwind uwtable
define linkonce_odr dso_local void @_ZN8CryptoPP9ExceptionD0Ev(%"class.CryptoPP::Exception"*) unnamed_addr #0 comdat align 2 personality i32 (...)* @__gxx_personality_v0 {
  %2 = getelementptr inbounds %"class.CryptoPP::Exception", %"class.CryptoPP::Exception"* %0, i64 0, i32 0, i32 0
  store i32 (...)** bitcast (i8** getelementptr inbounds ({ [5 x i8*] }, { [5 x i8*] }* @_ZTVN8CryptoPP9ExceptionE, i64 0, inrange i32 0, i64 2) to i32 (...)**), i32 (...)*** %2, align 8, !tbaa !41
  %3 = getelementptr inbounds %"class.CryptoPP::Exception", %"class.CryptoPP::Exception"* %0, i64 0, i32 2, i32 0, i32 0
  %4 = load i8*, i8** %3, align 8, !tbaa !44
  %5 = getelementptr inbounds %"class.CryptoPP::Exception", %"class.CryptoPP::Exception"* %0, i64 0, i32 2, i32 2
  %6 = bitcast %union.anon.0* %5 to i8*
  %7 = icmp eq i8* %4, %6
  br i1 %7, label %9, label %8

8:                                                ; preds = %1
  tail call void @_ZdlPv(i8* %4) #11
  br label %9

9:                                                ; preds = %8, %1
  %10 = getelementptr inbounds %"class.CryptoPP::Exception", %"class.CryptoPP::Exception"* %0, i64 0, i32 0
  tail call void @_ZNSt9exceptionD2Ev(%"class.CryptoPP::Clonable"* %10) #11
  %11 = bitcast %"class.CryptoPP::Exception"* %0 to i8*
  tail call void @_ZdlPv(i8* %11) #26
  ret void
}

; Function Attrs: cold noreturn nounwind
declare void @llvm.trap() #18

; Function Attrs: inlinehint nounwind uwtable
define linkonce_odr dso_local void @_ZN8CryptoPP31IteratedHashWithStaticTransformIjNS_10EnumToTypeINS_9ByteOrderELi1EEELj64ELj32ENS_6SHA256ELj32ELb1EED0Ev(%"class.CryptoPP::IteratedHashWithStaticTransform"*) unnamed_addr #17 comdat align 2 {
  tail call void @_ZN8CryptoPP31IteratedHashWithStaticTransformIjNS_10EnumToTypeINS_9ByteOrderELi1EEELj64ELj32ENS_6SHA256ELj32ELb1EED2Ev(%"class.CryptoPP::IteratedHashWithStaticTransform"* %0) #11
  %2 = bitcast %"class.CryptoPP::IteratedHashWithStaticTransform"* %0 to i8*
  tail call void @_ZdlPv(i8* %2) #26
  ret void
}

; Function Attrs: uwtable
define linkonce_odr dso_local %"class.CryptoPP::Clonable"* @_ZNK8CryptoPP12ClonableImplINS_6SHA256ENS_13AlgorithmImplINS_12IteratedHashIjNS_10EnumToTypeINS_9ByteOrderELi1EEELj64ENS_18HashTransformationEEES1_EEE5CloneEv(%"class.CryptoPP::ClonableImpl"*) unnamed_addr #15 comdat align 2 personality i8* bitcast (i32 (...)* @__gxx_personality_v0 to i8*) {
  %2 = tail call i8* @_Znwm(i64 200) #27
  %3 = bitcast i8* %2 to %"class.CryptoPP::IteratedHashWithStaticTransform"*
  %4 = bitcast %"class.CryptoPP::ClonableImpl"* %0 to %"class.CryptoPP::IteratedHashWithStaticTransform"*
  invoke void @_ZN8CryptoPP31IteratedHashWithStaticTransformIjNS_10EnumToTypeINS_9ByteOrderELi1EEELj64ELj32ENS_6SHA256ELj32ELb1EEC2ERKS5_(%"class.CryptoPP::IteratedHashWithStaticTransform"* nonnull %3, %"class.CryptoPP::IteratedHashWithStaticTransform"* nonnull dereferenceable(200) %4)
          to label %5 unwind label %8

5:                                                ; preds = %1
  %6 = bitcast i8* %2 to i32 (...)***
  store i32 (...)** bitcast (i8** getelementptr inbounds ({ [27 x i8*] }, { [27 x i8*] }* @_ZTVN8CryptoPP6SHA256E, i64 0, inrange i32 0, i64 2) to i32 (...)**), i32 (...)*** %6, align 8, !tbaa !41
  %7 = bitcast i8* %2 to %"class.CryptoPP::Clonable"*
  ret %"class.CryptoPP::Clonable"* %7

8:                                                ; preds = %1
  %9 = landingpad { i8*, i32 }
          cleanup
  tail call void @_ZdlPv(i8* nonnull %2) #26
  resume { i8*, i32 } %9
}

; Function Attrs: uwtable
define linkonce_odr dso_local void @_ZNK8CryptoPP13AlgorithmImplINS_12IteratedHashIjNS_10EnumToTypeINS_9ByteOrderELi1EEELj64ENS_18HashTransformationEEENS_6SHA256EE13AlgorithmNameB5cxx11Ev(%"class.std::__cxx11::basic_string"* noalias sret, %"class.CryptoPP::AlgorithmImpl"*) unnamed_addr #15 comdat align 2 personality i8* bitcast (i32 (...)* @__gxx_personality_v0 to i8*) {
  %3 = getelementptr inbounds %"class.std::__cxx11::basic_string", %"class.std::__cxx11::basic_string"* %0, i64 0, i32 2
  %4 = bitcast %"class.std::__cxx11::basic_string"* %0 to %union.anon.0**
  store %union.anon.0* %3, %union.anon.0** %4, align 8, !tbaa !69
  %5 = bitcast %union.anon.0* %3 to i8*
  tail call void @llvm.memcpy.p0i8.p0i8.i64(i8* nonnull align 8 %5, i8* nonnull align 1 getelementptr inbounds ([8 x i8], [8 x i8]* @.str.13.52, i64 0, i64 0), i64 7, i1 false) #11
  %6 = getelementptr inbounds %"class.std::__cxx11::basic_string", %"class.std::__cxx11::basic_string"* %0, i64 0, i32 1
  store i64 7, i64* %6, align 8, !tbaa !50
  %7 = getelementptr inbounds i8, i8* %5, i64 7
  store i8 0, i8* %7, align 1, !tbaa !51
  ret void
}

; Function Attrs: nounwind uwtable
define linkonce_odr dso_local i32 @_ZNK8CryptoPP31IteratedHashWithStaticTransformIjNS_10EnumToTypeINS_9ByteOrderELi1EEELj64ELj32ENS_6SHA256ELj32ELb1EE10DigestSizeEv(%"class.CryptoPP::IteratedHashWithStaticTransform"*) unnamed_addr #0 comdat align 2 {
  ret i32 32
}

; Function Attrs: uwtable
define linkonce_odr dso_local void @_ZN8CryptoPP31IteratedHashWithStaticTransformIjNS_10EnumToTypeINS_9ByteOrderELi1EEELj64ELj32ENS_6SHA256ELj32ELb1EE4InitEv(%"class.CryptoPP::IteratedHashWithStaticTransform"*) unnamed_addr #15 comdat align 2 {
  %2 = getelementptr inbounds %"class.CryptoPP::IteratedHashWithStaticTransform", %"class.CryptoPP::IteratedHashWithStaticTransform"* %0, i64 0, i32 1, i32 0, i32 0, i32 2
  %3 = load i32*, i32** %2, align 8, !tbaa !67
  tail call void @_ZN8CryptoPP6SHA2569InitStateEPj(i32* %3)
  ret void
}

; Function Attrs: uwtable
define linkonce_odr dso_local void @_ZN8CryptoPP31IteratedHashWithStaticTransformIjNS_10EnumToTypeINS_9ByteOrderELi1EEELj64ELj32ENS_6SHA256ELj32ELb1EE24HashEndianCorrectedBlockEPKj(%"class.CryptoPP::IteratedHashWithStaticTransform"*, i32*) unnamed_addr #15 comdat align 2 {
  %3 = getelementptr inbounds %"class.CryptoPP::IteratedHashWithStaticTransform", %"class.CryptoPP::IteratedHashWithStaticTransform"* %0, i64 0, i32 1, i32 0, i32 0, i32 2
  %4 = load i32*, i32** %3, align 8, !tbaa !67
  tail call void @_ZN8CryptoPP6SHA2569TransformEPjPKj(i32* %4, i32* %1)
  ret void
}

; Function Attrs: nounwind uwtable
define linkonce_odr dso_local i32* @_ZN8CryptoPP31IteratedHashWithStaticTransformIjNS_10EnumToTypeINS_9ByteOrderELi1EEELj64ELj32ENS_6SHA256ELj32ELb1EE8StateBufEv(%"class.CryptoPP::IteratedHashWithStaticTransform"*) unnamed_addr #0 comdat align 2 {
  %2 = getelementptr inbounds %"class.CryptoPP::IteratedHashWithStaticTransform", %"class.CryptoPP::IteratedHashWithStaticTransform"* %0, i64 0, i32 1, i32 0, i32 0, i32 2
  %3 = load i32*, i32** %2, align 8, !tbaa !67
  ret i32* %3
}

declare dso_local void @_ZN8CryptoPP6SHA2569TransformEPjPKj(i32*, i32*) local_unnamed_addr #4

declare dso_local void @_ZN8CryptoPP6SHA2569InitStateEPj(i32*) local_unnamed_addr #4

; Function Attrs: nobuiltin nofree
declare dso_local noalias nonnull i8* @_Znwm(i64) local_unnamed_addr #19

; Function Attrs: inlinehint uwtable
define linkonce_odr dso_local void @_ZN8CryptoPP31IteratedHashWithStaticTransformIjNS_10EnumToTypeINS_9ByteOrderELi1EEELj64ELj32ENS_6SHA256ELj32ELb1EEC2ERKS5_(%"class.CryptoPP::IteratedHashWithStaticTransform"*, %"class.CryptoPP::IteratedHashWithStaticTransform"* dereferenceable(200)) unnamed_addr #20 comdat align 2 personality i8* bitcast (i32 (...)* @__gxx_personality_v0 to i8*) {
  %3 = getelementptr inbounds %"class.CryptoPP::IteratedHashWithStaticTransform", %"class.CryptoPP::IteratedHashWithStaticTransform"* %0, i64 0, i32 0, i32 0, i32 0, i32 0, i32 0, i32 0, i32 0, i32 0
  store i32 (...)** bitcast (i8** getelementptr inbounds ({ [27 x i8*] }, { [27 x i8*] }* @_ZTVN8CryptoPP16IteratedHashBaseIjNS_18HashTransformationEEE, i64 0, inrange i32 0, i64 2) to i32 (...)**), i32 (...)*** %3, align 8, !tbaa !41
  %4 = getelementptr inbounds %"class.CryptoPP::IteratedHashWithStaticTransform", %"class.CryptoPP::IteratedHashWithStaticTransform"* %0, i64 0, i32 0, i32 0, i32 0, i32 0, i32 1
  %5 = getelementptr inbounds %"class.CryptoPP::IteratedHashWithStaticTransform", %"class.CryptoPP::IteratedHashWithStaticTransform"* %1, i64 0, i32 0, i32 0, i32 0, i32 0, i32 1
  %6 = bitcast i32* %5 to i64*
  %7 = bitcast i32* %4 to i64*
  %8 = load i64, i64* %6, align 8
  store i64 %8, i64* %7, align 8
  store i32 (...)** bitcast (i8** getelementptr inbounds ({ [27 x i8*] }, { [27 x i8*] }* @_ZTVN8CryptoPP12IteratedHashIjNS_10EnumToTypeINS_9ByteOrderELi1EEELj64ENS_18HashTransformationEEE, i64 0, inrange i32 0, i64 2) to i32 (...)**), i32 (...)*** %3, align 8, !tbaa !41
  %9 = getelementptr inbounds %"class.CryptoPP::IteratedHashWithStaticTransform", %"class.CryptoPP::IteratedHashWithStaticTransform"* %0, i64 0, i32 0, i32 0, i32 0, i32 1
  %10 = getelementptr inbounds %"class.CryptoPP::IteratedHashWithStaticTransform", %"class.CryptoPP::IteratedHashWithStaticTransform"* %0, i64 0, i32 0, i32 0, i32 0, i32 1, i32 0, i32 0, i32 2
  store i8 0, i8* %10, align 1, !tbaa !61
  %11 = getelementptr inbounds %"class.CryptoPP::IteratedHashWithStaticTransform", %"class.CryptoPP::IteratedHashWithStaticTransform"* %0, i64 0, i32 0, i32 0, i32 0, i32 1, i32 0, i32 1
  %12 = getelementptr inbounds %"class.CryptoPP::IteratedHashWithStaticTransform", %"class.CryptoPP::IteratedHashWithStaticTransform"* %1, i64 0, i32 0, i32 0, i32 0, i32 1, i32 0, i32 1
  %13 = load i64, i64* %12, align 8, !tbaa !56
  store i64 %13, i64* %11, align 8, !tbaa !56
  %14 = load i64, i64* %12, align 8, !tbaa !56
  %15 = icmp ult i64 %14, 17
  br i1 %15, label %17, label %16

16:                                               ; preds = %2
  tail call void @__assert_fail(i8* getelementptr inbounds ([6 x i8], [6 x i8]* @.str.48, i64 0, i64 0), i8* getelementptr inbounds ([33 x i8], [33 x i8]* @.str.1.5, i64 0, i64 0), i32 275, i8* getelementptr inbounds ([150 x i8], [150 x i8]* @__PRETTY_FUNCTION__._ZN8CryptoPP13NullAllocatorIjE8allocateEmPKv, i64 0, i64 0)) #21
  unreachable

17:                                               ; preds = %2
  %18 = getelementptr inbounds %"class.CryptoPP::IteratedHashWithStaticTransform", %"class.CryptoPP::IteratedHashWithStaticTransform"* %0, i64 0, i32 0, i32 0, i32 0, i32 1, i32 0, i32 2
  store i8 1, i8* %10, align 1, !tbaa !61
  %19 = getelementptr inbounds %"class.CryptoPP::FixedSizeSecBlock", %"class.CryptoPP::FixedSizeSecBlock"* %9, i64 0, i32 0, i32 0, i32 0, i64 0
  store i32* %19, i32** %18, align 8, !tbaa !62
  %20 = getelementptr inbounds %"class.CryptoPP::IteratedHashWithStaticTransform", %"class.CryptoPP::IteratedHashWithStaticTransform"* %1, i64 0, i32 0, i32 0, i32 0, i32 1, i32 0, i32 2
  %21 = load i32*, i32** %20, align 8, !tbaa !62
  %22 = icmp eq i32* %21, null
  %23 = icmp eq i64 %13, 0
  %24 = bitcast %"class.CryptoPP::FixedSizeSecBlock"* %9 to i8*
  br i1 %22, label %25, label %26

25:                                               ; preds = %17
  br i1 %23, label %35, label %27

26:                                               ; preds = %17
  br i1 %23, label %27, label %28

27:                                               ; preds = %26, %25
  tail call void @__assert_fail(i8* getelementptr inbounds ([45 x i8], [45 x i8]* @.str.7.53, i64 0, i64 0), i8* getelementptr inbounds ([33 x i8], [33 x i8]* @.str.1.5, i64 0, i64 0), i32 458, i8* getelementptr inbounds ([301 x i8], [301 x i8]* @__PRETTY_FUNCTION__._ZN8CryptoPP8SecBlockIjNS_29FixedSizeAllocatorWithCleanupIjLm16ENS_13NullAllocatorIjEELb0EEEEC2ERKS5_, i64 0, i64 0)) #21
  unreachable

28:                                               ; preds = %26
  %29 = shl i64 %14, 2
  %30 = shl i64 %13, 2
  %31 = icmp ult i64 %30, %29
  br i1 %31, label %32, label %33

32:                                               ; preds = %28
  tail call void @__assert_fail(i8* getelementptr inbounds ([21 x i8], [21 x i8]* @.str.11.54, i64 0, i64 0), i8* getelementptr inbounds ([29 x i8], [29 x i8]* @.str.9.55, i64 0, i64 0), i32 363, i8* getelementptr inbounds ([62 x i8], [62 x i8]* @__PRETTY_FUNCTION__._ZN8CryptoPP8memcpy_sEPvmPKvm, i64 0, i64 0)) #21
  unreachable

33:                                               ; preds = %28
  %34 = bitcast i32* %21 to i8*
