	.text
	.file	"ld-temp.o"
	.p2align	4, 0x90         # -- Begin function usage
	.type	usage,@function
usage:                                  # @usage
	.cfi_startproc
# %bb.0:
	pushq	%rbp
	.cfi_def_cfa_offset 16
	.cfi_offset %rbp, -16
	movq	%rsp, %rbp
	.cfi_def_cfa_register %rbp
	subq	$16, %rsp
	movl	%edi, -4(%rbp)
	cmpl	$0, -4(%rbp)
	jne	.LBB0_4
# %bb.1:
	movl	x, %eax
	movl	y, %ecx
	movl	%eax, %edx
	subl	$1, %edx
	imull	%edx, %eax
	andl	$1, %eax
	cmpl	$0, %eax
	sete	%al
	cmpl	$10, %ecx
	setl	%cl
	orb	%cl, %al
	testb	$1, %al
	jne	.LBB0_2
	jmp	.LBB0_6
.LBB0_2:                                # %originalBB
	movl	x, %eax
	movl	y, %ecx
	movl	%eax, %edx
	subl	$1, %edx
	imull	%edx, %eax
	andl	$1, %eax
	cmpl	$0, %eax
	sete	%al
	cmpl	$10, %ecx
	setl	%cl
	orb	%cl, %al
	testb	$1, %al
	jne	.LBB0_3
	jmp	.LBB0_6
.LBB0_3:                                # %originalBBpart2
	jmp	.LBB0_5
.LBB0_4:
	movabsq	$.L.str, %rdi
	movabsq	$.L.str.1, %rsi
	movl	$40, %edx
	movabsq	$.L__PRETTY_FUNCTION__.usage, %rcx
	callq	__assert_fail
.LBB0_5:
	movabsq	$.L.str.2, %rdi
	callq	gettext
	movq	program_name, %rsi
	movq	program_name, %rdx
	movq	%rax, %rdi
	movb	$0, %al
	callq	printf
	movabsq	$.L.str.3, %rdi
	callq	gettext
	movq	stdout, %rsi
	movq	%rax, %rdi
	callq	fputs_unlocked
	movabsq	$.L.str.4, %rdi
	callq	gettext
	movq	stdout, %rsi
	movq	%rax, %rdi
	callq	fputs_unlocked
	movabsq	$.L.str.5, %rdi
	callq	gettext
	movq	stdout, %rsi
	movq	%rax, %rdi
	callq	fputs_unlocked
	movabsq	$.L.str.6, %rdi
	callq	gettext
	movq	stdout, %rsi
	movq	%rax, %rdi
	callq	fputs_unlocked
	movabsq	$.L.str.7, %rdi
	callq	gettext
	movq	stdout, %rsi
	movq	%rax, %rdi
	callq	fputs_unlocked
	movabsq	$.L.str.8, %rdi
	callq	gettext
	movq	stdout, %rsi
	movq	%rax, %rdi
	callq	fputs_unlocked
	movabsq	$.L.str.9, %rdi
	callq	gettext
	movq	stdout, %rsi
	movq	%rax, %rdi
	callq	fputs_unlocked
	movabsq	$.L.str.10, %rdi
	callq	gettext
	movq	%rax, %rdi
	movabsq	$.L.str.11, %rsi
	movb	$0, %al
	callq	printf
	movabsq	$.L.str.11, %rdi
	callq	emit_ancillary_info
	movl	-4(%rbp), %edi
	callq	exit
.LBB0_6:                                # %originalBBalteredBB
	jmp	.LBB0_2
.Lfunc_end0:
	.size	usage, .Lfunc_end0-usage
	.cfi_endproc
                                        # -- End function
	.p2align	4, 0x90         # -- Begin function emit_ancillary_info
	.type	emit_ancillary_info,@function
emit_ancillary_info:                    # @emit_ancillary_info
	.cfi_startproc
# %bb.0:
	pushq	%rbp
	.cfi_def_cfa_offset 16
	.cfi_offset %rbp, -16
	movq	%rsp, %rbp
	.cfi_def_cfa_register %rbp
	pushq	%r15
	pushq	%r14
	pushq	%r13
	pushq	%r12
	pushq	%rbx
	pushq	%rax
	.cfi_offset %rbx, -56
	.cfi_offset %r12, -48
	.cfi_offset %r13, -40
	.cfi_offset %r14, -32
	.cfi_offset %r15, -24
	movq	%rdi, -48(%rbp)         # 8-byte Spill
	movl	x.1, %eax
	movl	y.2, %ecx
	movl	%eax, %edx
	subl	$1, %edx
	imull	%edx, %eax
	andl	$1, %eax
	cmpl	$0, %eax
	sete	%al
	cmpl	$10, %ecx
	setl	%cl
	orb	%cl, %al
	testb	$1, %al
	jne	.LBB1_1
	jmp	.LBB1_23
.LBB1_1:                                # %originalBB
	movabsq	$.L__const.emit_ancillary_info.infomap, %rsi
	movq	%rsp, %r15
	addq	$-16, %r15
	movq	%r15, %rsp
	movq	%rsp, %rbx
	addq	$-112, %rbx
	movq	%rbx, %rsp
	movq	%rsp, %r12
	addq	$-16, %r12
	movq	%r12, %rsp
	movq	%rsp, %r14
	addq	$-16, %r14
	movq	%r14, %rsp
	movq	%rsp, %r13
	addq	$-16, %r13
	movq	%r13, %rsp
	movq	-48(%rbp), %rax         # 8-byte Reload
	movq	%rax, (%r15)
	movq	%rbx, %rdi
	movl	$112, %edx
	callq	memcpy
	movq	(%r15), %rax
	movq	%rax, (%r12)
	movq	%rbx, (%r14)
	movl	x.1, %eax
	movl	y.2, %ecx
	movl	%eax, %edx
	subl	$1, %edx
	imull	%edx, %eax
	andl	$1, %eax
	cmpl	$0, %eax
	sete	%al
	cmpl	$10, %ecx
	setl	%cl
	orb	%cl, %al
	testb	$1, %al
	jne	.LBB1_2
	jmp	.LBB1_23
.LBB1_2:                                # %originalBBpart2
	jmp	.LBB1_3
.LBB1_3:                                # =>This Inner Loop Header: Depth=1
	xorl	%eax, %eax
	movq	(%r14), %rcx
	cmpq	$0, (%rcx)
	je	.LBB1_5
# %bb.4:                                #   in Loop: Header=BB1_3 Depth=1
	movq	(%r15), %rdi
	movq	(%r14), %rax
	movq	(%rax), %rsi
	callq	strcmp
	cmpl	$0, %eax
	sete	%al
	xorb	$-1, %al
.LBB1_5:                                #   in Loop: Header=BB1_3 Depth=1
	testb	$1, %al
	jne	.LBB1_6
	jmp	.LBB1_9
.LBB1_6:                                #   in Loop: Header=BB1_3 Depth=1
	movl	x.1, %eax
	movl	y.2, %ecx
	movl	%eax, %edx
	subl	$1, %edx
	imull	%edx, %eax
	andl	$1, %eax
	cmpl	$0, %eax
	sete	%al
	cmpl	$10, %ecx
	setl	%cl
	orb	%cl, %al
	testb	$1, %al
	jne	.LBB1_7
	jmp	.LBB1_24
.LBB1_7:                                # %originalBB1
                                        #   in Loop: Header=BB1_3 Depth=1
	movq	(%r14), %rax
	addq	$16, %rax
	movq	%rax, (%r14)
	movl	x.1, %eax
	movl	y.2, %ecx
	movl	%eax, %edx
	subl	$1, %edx
	imull	%edx, %eax
	andl	$1, %eax
	cmpl	$0, %eax
	sete	%al
	cmpl	$10, %ecx
	setl	%cl
	orb	%cl, %al
	testb	$1, %al
	jne	.LBB1_8
	jmp	.LBB1_24
.LBB1_8:                                # %originalBBpart24
                                        #   in Loop: Header=BB1_3 Depth=1
	jmp	.LBB1_3
.LBB1_9:
	movq	(%r14), %rax
	cmpq	$0, 8(%rax)
	je	.LBB1_13
# %bb.10:
	movl	x.1, %eax
	movl	y.2, %ecx
	movl	%eax, %edx
	subl	$1, %edx
	imull	%edx, %eax
	andl	$1, %eax
	cmpl	$0, %eax
	sete	%al
	cmpl	$10, %ecx
	setl	%cl
	orb	%cl, %al
	testb	$1, %al
	jne	.LBB1_11
	jmp	.LBB1_25
.LBB1_11:                               # %originalBB6
	movq	(%r14), %rax
	movq	8(%rax), %rax
	movq	%rax, (%r12)
	movl	x.1, %eax
	movl	y.2, %ecx
	movl	%eax, %edx
	subl	$1, %edx
	imull	%edx, %eax
	andl	$1, %eax
	cmpl	$0, %eax
	sete	%al
	cmpl	$10, %ecx
	setl	%cl
	orb	%cl, %al
	testb	$1, %al
	jne	.LBB1_12
	jmp	.LBB1_25
.LBB1_12:                               # %originalBBpart28
	jmp	.LBB1_13
.LBB1_13:
	movl	x.1, %eax
	movl	y.2, %ecx
	movl	%eax, %edx
	subl	$1, %edx
	imull	%edx, %eax
	andl	$1, %eax
	cmpl	$0, %eax
	sete	%al
	cmpl	$10, %ecx
	setl	%cl
	orb	%cl, %al
	testb	$1, %al
	jne	.LBB1_14
	jmp	.LBB1_26
.LBB1_14:                               # %originalBB10
	movabsq	$.L.str.30, %rdi
	callq	gettext
	movq	%rax, %rdi
	movabsq	$.L.str.19, %rsi
	movabsq	$.L.str.31, %rdx
	movb	$0, %al
	callq	printf
	movl	$5, %edi
	xorl	%esi, %esi
	callq	setlocale
	movq	%rax, (%r13)
	cmpq	$0, (%r13)
	setne	%al
	movl	x.1, %ecx
	movl	y.2, %edx
	movl	%ecx, %esi
	subl	$1, %esi
	imull	%esi, %ecx
	andl	$1, %ecx
	cmpl	$0, %ecx
	sete	%cl
	cmpl	$10, %edx
	setl	%dl
	orb	%dl, %cl
	testb	$1, %cl
	jne	.LBB1_15
	jmp	.LBB1_26
.LBB1_15:                               # %originalBBpart212
	testb	$1, %al
	jne	.LBB1_16
	jmp	.LBB1_20
.LBB1_16:
	movq	(%r13), %rdi
	movabsq	$.L.str.32, %rsi
	movl	$3, %edx
	callq	strncmp
	cmpl	$0, %eax
	je	.LBB1_20
# %bb.17:
	movl	x.1, %eax
	movl	y.2, %ecx
	movl	%eax, %edx
	subl	$1, %edx
	imull	%edx, %eax
	andl	$1, %eax
	cmpl	$0, %eax
	sete	%al
	cmpl	$10, %ecx
	setl	%cl
	orb	%cl, %al
	testb	$1, %al
	jne	.LBB1_18
	jmp	.LBB1_27
.LBB1_18:                               # %originalBB14
	movabsq	$.L.str.33, %rdi
	callq	gettext
	movq	stdout, %rsi
	movq	%rax, %rdi
	callq	fputs_unlocked
	movl	x.1, %eax
	movl	y.2, %ecx
	movl	%eax, %edx
	subl	$1, %edx
	imull	%edx, %eax
	andl	$1, %eax
	cmpl	$0, %eax
	sete	%al
	cmpl	$10, %ecx
	setl	%cl
	orb	%cl, %al
	testb	$1, %al
	jne	.LBB1_19
	jmp	.LBB1_27
.LBB1_19:                               # %originalBBpart216
	jmp	.LBB1_20
.LBB1_20:
	movl	x.1, %eax
	movl	y.2, %ecx
	movl	%eax, %edx
	subl	$1, %edx
	imull	%edx, %eax
	andl	$1, %eax
	cmpl	$0, %eax
	sete	%al
	cmpl	$10, %ecx
	setl	%cl
	orb	%cl, %al
	testb	$1, %al
	jne	.LBB1_21
	jmp	.LBB1_28
.LBB1_21:                               # %originalBB18
	movabsq	$.L.str.34, %rdi
	callq	gettext
	movq	(%r15), %rdx
	movq	%rax, %rdi
	movabsq	$.L.str.31, %rsi
	movb	$0, %al
	callq	printf
	movabsq	$.L.str.35, %rdi
	callq	gettext
	movq	(%r12), %rsi
	movq	(%r12), %rcx
	movq	(%r15), %rdx
	cmpq	%rdx, %rcx
	movabsq	$.L.str.36, %rcx
	movabsq	$.L.str.14, %rdx
	cmoveq	%rcx, %rdx
	movq	%rax, %rdi
	movb	$0, %al
	callq	printf
	movl	x.1, %eax
	movl	y.2, %ecx
	movl	%eax, %edx
	subl	$1, %edx
	imull	%edx, %eax
	andl	$1, %eax
	cmpl	$0, %eax
	sete	%al
	cmpl	$10, %ecx
	setl	%cl
	orb	%cl, %al
	testb	$1, %al
	jne	.LBB1_22
	jmp	.LBB1_28
.LBB1_22:                               # %originalBBpart220
	leaq	-40(%rbp), %rsp
	popq	%rbx
	popq	%r12
	popq	%r13
	popq	%r14
	popq	%r15
	popq	%rbp
	.cfi_def_cfa %rsp, 8
	retq
.LBB1_23:                               # %originalBBalteredBB
	.cfi_def_cfa %rbp, 16
	movabsq	$.L__const.emit_ancillary_info.infomap, %rsi
	movq	%rsp, %r14
	addq	$-16, %r14
	movq	%r14, %rsp
	movq	%rsp, %r12
	addq	$-112, %r12
	movq	%r12, %rsp
	movq	%rsp, %r15
	addq	$-16, %r15
	movq	%r15, %rsp
	movq	%rsp, %rbx
	addq	$-16, %rbx
	movq	%rbx, %rsp
	movq	-48(%rbp), %rax         # 8-byte Reload
	movq	%rax, (%r14)
	movq	%r12, %rdi
	movl	$112, %edx
	callq	memcpy
	movq	(%r14), %rax
	movq	%rax, (%r15)
	movq	%r12, (%rbx)
	jmp	.LBB1_1
.LBB1_24:                               # %originalBB1alteredBB
                                        #   in Loop: Header=BB1_3 Depth=1
	movq	(%r14), %rax
	addq	$16, %rax
	movq	%rax, (%r14)
	jmp	.LBB1_7
.LBB1_25:                               # %originalBB6alteredBB
	movq	(%r14), %rax
	movq	8(%rax), %rax
	movq	%rax, (%r12)
	jmp	.LBB1_11
.LBB1_26:                               # %originalBB10alteredBB
	movabsq	$.L.str.30, %rdi
	callq	gettext
	movq	%rax, %rdi
	movabsq	$.L.str.19, %rsi
	movabsq	$.L.str.31, %rdx
	movb	$0, %al
	callq	printf
	movl	$5, %edi
	xorl	%esi, %esi
	callq	setlocale
	movq	%rax, (%r13)
	jmp	.LBB1_14
.LBB1_27:                               # %originalBB14alteredBB
	movabsq	$.L.str.33, %rdi
	callq	gettext
	movq	stdout, %rsi
	movq	%rax, %rdi
	callq	fputs_unlocked
	jmp	.LBB1_18
.LBB1_28:                               # %originalBB18alteredBB
	movabsq	$.L.str.34, %rdi
	callq	gettext
	movq	(%r15), %rdx
	movq	%rax, %rdi
	movabsq	$.L.str.31, %rsi
	movb	$0, %al
	callq	printf
	movabsq	$.L.str.35, %rdi
	callq	gettext
	movq	(%r12), %rsi
	movq	(%r12), %rcx
	movq	(%r15), %rdx
	cmpq	%rdx, %rcx
	movabsq	$.L.str.36, %rcx
	movabsq	$.L.str.14, %rdx
	cmoveq	%rcx, %rdx
	movq	%rax, %rdi
	movb	$0, %al
	callq	printf
	jmp	.LBB1_21
.Lfunc_end1:
	.size	emit_ancillary_info, .Lfunc_end1-emit_ancillary_info
	.cfi_endproc
                                        # -- End function
	.globl	main                    # -- Begin function main
	.p2align	4, 0x90
	.type	main,@function
main:                                   # @main
	.cfi_startproc
# %bb.0:
	pushq	%rbp
	.cfi_def_cfa_offset 16
	.cfi_offset %rbp, -16
	movq	%rsp, %rbp
	.cfi_def_cfa_register %rbp
	pushq	%r14
	pushq	%rbx
	subq	$64, %rsp
	.cfi_offset %rbx, -32
	.cfi_offset %r14, -24
	movq	%rsi, inVal1
	movl	%edi, inVal0
	movl	$0, -56(%rbp)
	movl	%edi, -24(%rbp)
	movq	%rsi, -48(%rbp)
	movb	$1, -26(%rbp)
	movabsq	$.L.str.12, %rdi
	callq	getenv
	cmpq	$0, %rax
	setne	%al
	andb	$1, %al
	movb	%al, -49(%rbp)
	testb	$1, -49(%rbp)
	movb	$1, %bl
	je	.LBB2_6
# %bb.1:
	xorl	%ebx, %ebx
	movl	$1, %eax
	cmpl	-24(%rbp), %eax
	jge	.LBB2_3
# %bb.2:
	movq	-48(%rbp), %rax
	movq	8(%rax), %rdi
	movl	$.L.str.13, %esi
	callq	strcmp
	cmpl	$0, %eax
	sete	%bl
.LBB2_3:
	movl	x.3, %eax
	movl	y.4, %ecx
	movl	%eax, %edx
	subl	$1, %edx
	imull	%edx, %eax
	andl	$1, %eax
	cmpl	$0, %eax
	sete	%al
	cmpl	$10, %ecx
	setl	%cl
	orb	%cl, %al
	testb	$1, %al
	jne	.LBB2_4
	jmp	.LBB2_248
.LBB2_4:                                # %originalBB
	movl	x.3, %eax
	movl	y.4, %ecx
	movl	%eax, %edx
	subl	$1, %edx
	imull	%edx, %eax
	andl	$1, %eax
	cmpl	$0, %eax
	sete	%al
	cmpl	$10, %ecx
	setl	%cl
	orb	%cl, %al
	testb	$1, %al
	jne	.LBB2_5
	jmp	.LBB2_248
.LBB2_5:                                # %originalBBpart2
	jmp	.LBB2_6
.LBB2_6:
	movl	x.3, %eax
	movl	y.4, %ecx
	movl	%eax, %edx
	subl	$1, %edx
	imull	%edx, %eax
	andl	$1, %eax
	cmpl	$0, %eax
	sete	%al
	cmpl	$10, %ecx
	setl	%cl
	orb	%cl, %al
	testb	$1, %al
	jne	.LBB2_7
	jmp	.LBB2_249
.LBB2_7:                                # %originalBB1
	movb	%bl, %al
	andb	$1, %al
	movb	%al, -25(%rbp)
	movb	$0, -19(%rbp)
	movq	-48(%rbp), %rax
	movq	(%rax), %rdi
	callq	set_program_name
	movl	$6, %edi
	movabsq	$.L.str.14, %rsi
	callq	setlocale
	movabsq	$.L.str.15, %rdi
	movabsq	$.L.str.16, %rsi
	callq	bindtextdomain
	movabsq	$.L.str.15, %rdi
	callq	textdomain
	movabsq	$close_stdout, %rdi
	callq	atexit
	movb	-25(%rbp), %al
	movl	x.3, %ecx
	movl	y.4, %edx
	movl	%ecx, %esi
	subl	$1, %esi
	imull	%esi, %ecx
	andl	$1, %ecx
	cmpl	$0, %ecx
	sete	%cl
	cmpl	$10, %edx
	setl	%dl
	orb	%dl, %cl
	testb	$1, %cl
	jne	.LBB2_8
	jmp	.LBB2_249
.LBB2_8:                                # %originalBBpart24
	testb	$1, %al
	jne	.LBB2_9
	jmp	.LBB2_75
.LBB2_9:
	movl	x.3, %eax
	movl	y.4, %ecx
	movl	%eax, %edx
	subl	$1, %edx
	imull	%edx, %eax
	andl	$1, %eax
	cmpl	$0, %eax
	sete	%al
	cmpl	$10, %ecx
	setl	%cl
	orb	%cl, %al
	testb	$1, %al
	jne	.LBB2_10
	jmp	.LBB2_250
.LBB2_10:                               # %originalBB6
	movl	-24(%rbp), %r14d
	movl	x.3, %eax
	movl	y.4, %ecx
	movl	%eax, %edx
	subl	$1, %edx
	imull	%edx, %eax
	andl	$1, %eax
	cmpl	$0, %eax
	sete	%al
	cmpl	$10, %ecx
	setl	%cl
	orb	%cl, %al
	testb	$1, %al
	jne	.LBB2_11
	jmp	.LBB2_250
.LBB2_11:                               # %originalBBpart28
	jmp	.LBB2_12
.LBB2_12:
	movl	x.3, %eax
	movl	y.4, %ecx
	movl	%eax, %edx
	subl	$1, %edx
	imull	%edx, %eax
	andl	$1, %eax
	cmpl	$0, %eax
	sete	%al
	cmpl	$10, %ecx
	setl	%cl
	orb	%cl, %al
	testb	$1, %al
	jne	.LBB2_13
	jmp	.LBB2_251
.LBB2_13:                               # %originalBB10
	movq	%rsp, %rbx
	addq	$-16, %rbx
	movq	%rbx, %rsp
	movl	x.3, %eax
	movl	y.4, %ecx
	movl	%eax, %edx
	subl	$1, %edx
	imull	%edx, %eax
	andl	$1, %eax
	cmpl	$0, %eax
	sete	%al
	cmpl	$10, %ecx
	setl	%cl
	orb	%cl, %al
	testb	$1, %al
	jne	.LBB2_14
	jmp	.LBB2_251
.LBB2_14:                               # %originalBBpart212
	jmp	.LBB2_15
.LBB2_15:
	movl	x.3, %eax
	movl	y.4, %ecx
	movl	%eax, %edx
	subl	$1, %edx
	imull	%edx, %eax
	andl	$1, %eax
	cmpl	$0, %eax
	sete	%al
	cmpl	$10, %ecx
	setl	%cl
	orb	%cl, %al
	testb	$1, %al
	jne	.LBB2_16
	jmp	.LBB2_252
.LBB2_16:                               # %originalBB14
	cmpl	$1, inVal0
	setg	%al
	movl	x.3, %ecx
	movl	y.4, %edx
	movl	%ecx, %esi
	subl	$1, %esi
	imull	%esi, %ecx
	andl	$1, %ecx
	cmpl	$0, %ecx
	sete	%cl
	cmpl	$10, %edx
	setl	%dl
	orb	%dl, %cl
	testb	$1, %cl
	jne	.LBB2_17
	jmp	.LBB2_252
.LBB2_17:                               # %originalBBpart216
	testb	$1, %al
	jne	.LBB2_19
	jmp	.LBB2_18
.LBB2_18:
	movl	$51, (%rbx)
.LBB2_19:
	movq	inVal1, %rax
	movq	8(%rax), %rdi
	movl	$2, %esi
	callq	.Lcontrole
	movl	%eax, (%rbx)
.LBB2_20:                               # =>This Inner Loop Header: Depth=1
	cmpl	$1, (%rbx)
	jle	.LBB2_74
# %bb.21:                               #   in Loop: Header=BB2_20 Depth=1
	movl	x.3, %eax
	movl	y.4, %ecx
	movl	%eax, %edx
	subl	$1, %edx
	imull	%edx, %eax
	andl	$1, %eax
	cmpl	$0, %eax
	sete	%al
	cmpl	$10, %ecx
	setl	%cl
	orb	%cl, %al
	testb	$1, %al
	jne	.LBB2_22
	jmp	.LBB2_253
.LBB2_22:                               # %originalBB18
                                        #   in Loop: Header=BB2_20 Depth=1
	movl	(%rbx), %eax
	cltd
	movl	$2, %ecx
	idivl	%ecx
	cmpl	$0, %edx
	sete	%al
	movl	x.3, %ecx
	movl	y.4, %edx
	movl	%ecx, %esi
	subl	$1, %esi
	imull	%esi, %ecx
	andl	$1, %ecx
	cmpl	$0, %ecx
	sete	%cl
	cmpl	$10, %edx
	setl	%dl
	orb	%dl, %cl
	testb	$1, %cl
	jne	.LBB2_23
	jmp	.LBB2_253
.LBB2_23:                               # %originalBBpart227
                                        #   in Loop: Header=BB2_20 Depth=1
	testb	$1, %al
	jne	.LBB2_24
	jmp	.LBB2_25
.LBB2_24:                               #   in Loop: Header=BB2_20 Depth=1
	movl	(%rbx), %eax
	cltd
	movl	$2, %ecx
	idivl	%ecx
	movl	%eax, (%rbx)
	jmp	.LBB2_26
.LBB2_25:                               #   in Loop: Header=BB2_20 Depth=1
	imull	$3, (%rbx), %eax
	addl	$1, %eax
	movl	%eax, (%rbx)
.LBB2_26:                               #   in Loop: Header=BB2_20 Depth=1
	movl	%r14d, %eax
	subl	(%rbx), %eax
	cmpl	$0, %eax
	jg	.LBB2_28
.LBB2_27:                               # %.backedge3
                                        #   in Loop: Header=BB2_20 Depth=1
	jmp	.LBB2_20
.LBB2_28:                               #   in Loop: Header=BB2_20 Depth=1
	movl	%r14d, %eax
	addl	(%rbx), %eax
	cmpl	$4, %eax
	jge	.LBB2_27
# %bb.29:
	movq	-48(%rbp), %rax
	movq	8(%rax), %rdi
	movl	$.L.str.17, %esi
	callq	strcmp
	movl	%eax, %r14d
# %bb.30:
	movq	%rsp, %rbx
	addq	$-16, %rbx
	movq	%rbx, %rsp
# %bb.31:
	cmpl	$1, inVal0
	jg	.LBB2_33
# %bb.32:
	movl	$18, (%rbx)
.LBB2_33:
	movl	x.3, %eax
	movl	y.4, %ecx
	movl	%eax, %edx
	subl	$1, %edx
	imull	%edx, %eax
	andl	$1, %eax
	cmpl	$0, %eax
	sete	%al
	cmpl	$10, %ecx
	setl	%cl
	orb	%cl, %al
	testb	$1, %al
	jne	.LBB2_34
	jmp	.LBB2_254
.LBB2_34:                               # %originalBB29
	movq	inVal1, %rax
	movq	8(%rax), %rdi
	xorl	%esi, %esi
	callq	.Lcontrole
	movl	%eax, (%rbx)
	movl	x.3, %eax
	movl	y.4, %ecx
	movl	%eax, %edx
	subl	$1, %edx
	imull	%edx, %eax
	andl	$1, %eax
	cmpl	$0, %eax
	sete	%al
	cmpl	$10, %ecx
	setl	%cl
	orb	%cl, %al
	testb	$1, %al
	jne	.LBB2_35
	jmp	.LBB2_254
.LBB2_35:                               # %originalBBpart231
	jmp	.LBB2_36
.LBB2_36:                               # =>This Inner Loop Header: Depth=1
	cmpl	$1, (%rbx)
	jle	.LBB2_50
# %bb.37:                               #   in Loop: Header=BB2_36 Depth=1
	movl	x.3, %eax
	movl	y.4, %ecx
	movl	%eax, %edx
	subl	$1, %edx
	imull	%edx, %eax
	andl	$1, %eax
	cmpl	$0, %eax
	sete	%al
	cmpl	$10, %ecx
	setl	%cl
	orb	%cl, %al
	testb	$1, %al
	jne	.LBB2_38
	jmp	.LBB2_255
.LBB2_38:                               # %originalBB33
                                        #   in Loop: Header=BB2_36 Depth=1
	movl	(%rbx), %eax
	cltd
	movl	$2, %ecx
	idivl	%ecx
	cmpl	$0, %edx
	sete	%al
	movl	x.3, %ecx
	movl	y.4, %edx
	movl	%ecx, %esi
	subl	$1, %esi
	imull	%esi, %ecx
	andl	$1, %ecx
	cmpl	$0, %ecx
	sete	%cl
	cmpl	$10, %edx
	setl	%dl
	orb	%dl, %cl
	testb	$1, %cl
	jne	.LBB2_39
	jmp	.LBB2_255
.LBB2_39:                               # %originalBBpart239
                                        #   in Loop: Header=BB2_36 Depth=1
	testb	$1, %al
	jne	.LBB2_40
	jmp	.LBB2_43
.LBB2_40:                               #   in Loop: Header=BB2_36 Depth=1
	movl	x.3, %eax
	movl	y.4, %ecx
	movl	%eax, %edx
	subl	$1, %edx
	imull	%edx, %eax
	andl	$1, %eax
	cmpl	$0, %eax
	sete	%al
	cmpl	$10, %ecx
	setl	%cl
	orb	%cl, %al
	testb	$1, %al
	jne	.LBB2_41
	jmp	.LBB2_256
.LBB2_41:                               # %originalBB41
                                        #   in Loop: Header=BB2_36 Depth=1
	movl	(%rbx), %eax
	cltd
	movl	$2, %ecx
	idivl	%ecx
	movl	%eax, (%rbx)
	movl	x.3, %eax
	movl	y.4, %ecx
	movl	%eax, %edx
	subl	$1, %edx
	imull	%edx, %eax
	andl	$1, %eax
	cmpl	$0, %eax
	sete	%al
	cmpl	$10, %ecx
	setl	%cl
	orb	%cl, %al
	testb	$1, %al
	jne	.LBB2_42
	jmp	.LBB2_256
.LBB2_42:                               # %originalBBpart245
                                        #   in Loop: Header=BB2_36 Depth=1
	jmp	.LBB2_44
.LBB2_43:                               #   in Loop: Header=BB2_36 Depth=1
	imull	$3, (%rbx), %eax
	addl	$1, %eax
	movl	%eax, (%rbx)
.LBB2_44:                               #   in Loop: Header=BB2_36 Depth=1
	movl	%r14d, %eax
	subl	(%rbx), %eax
	cmpl	$-2, %eax
	jg	.LBB2_46
.LBB2_45:                               # %.backedge2
                                        #   in Loop: Header=BB2_36 Depth=1
	jmp	.LBB2_36
.LBB2_46:                               #   in Loop: Header=BB2_36 Depth=1
	movl	x.3, %eax
	movl	y.4, %ecx
	movl	%eax, %edx
	subl	$1, %edx
	imull	%edx, %eax
	andl	$1, %eax
	cmpl	$0, %eax
	sete	%al
	cmpl	$10, %ecx
	setl	%cl
	orb	%cl, %al
	testb	$1, %al
	jne	.LBB2_47
	jmp	.LBB2_257
.LBB2_47:                               # %originalBB47
                                        #   in Loop: Header=BB2_36 Depth=1
	movl	%r14d, %eax
	addl	(%rbx), %eax
	cmpl	$2, %eax
	setl	%al
	movl	x.3, %ecx
	movl	y.4, %edx
	movl	%ecx, %esi
	subl	$1, %esi
	imull	%esi, %ecx
	andl	$1, %ecx
	cmpl	$0, %ecx
	sete	%cl
	cmpl	$10, %edx
	setl	%dl
	orb	%dl, %cl
	testb	$1, %cl
	jne	.LBB2_48
	jmp	.LBB2_257
.LBB2_48:                               # %originalBBpart252
                                        #   in Loop: Header=BB2_36 Depth=1
	testb	$1, %al
	jne	.LBB2_49
	jmp	.LBB2_45
.LBB2_49:
	xorl	%edi, %edi
	callq	usage
.LBB2_50:
	movl	x.3, %eax
	movl	y.4, %ecx
	movl	%eax, %edx
	subl	$1, %edx
	imull	%edx, %eax
	andl	$1, %eax
	cmpl	$0, %eax
	sete	%al
	cmpl	$10, %ecx
	setl	%cl
	orb	%cl, %al
	testb	$1, %al
	jne	.LBB2_51
	jmp	.LBB2_258
.LBB2_51:                               # %originalBB54
	movq	-48(%rbp), %rax
	movq	8(%rax), %rdi
	movl	$.L.str.18, %esi
	callq	strcmp
	movl	%eax, %r14d
	movl	x.3, %eax
	movl	y.4, %ecx
	movl	%eax, %edx
	subl	$1, %edx
	imull	%edx, %eax
	andl	$1, %eax
	cmpl	$0, %eax
	sete	%al
	cmpl	$10, %ecx
	setl	%cl
	orb	%cl, %al
	testb	$1, %al
	jne	.LBB2_52
	jmp	.LBB2_258
.LBB2_52:                               # %originalBBpart256
	jmp	.LBB2_53
.LBB2_53:
	movq	%rsp, %rbx
	addq	$-16, %rbx
	movq	%rbx, %rsp
# %bb.54:
	cmpl	$1, inVal0
	jg	.LBB2_56
# %bb.55:
	movl	$5, (%rbx)
.LBB2_56:
	movl	x.3, %eax
	movl	y.4, %ecx
	movl	%eax, %edx
	subl	$1, %edx
	imull	%edx, %eax
	andl	$1, %eax
	cmpl	$0, %eax
	sete	%al
	cmpl	$10, %ecx
	setl	%cl
	orb	%cl, %al
	testb	$1, %al
	jne	.LBB2_57
	jmp	.LBB2_259
.LBB2_57:                               # %originalBB58
	movq	inVal1, %rax
	movq	8(%rax), %rdi
	xorl	%esi, %esi
	callq	.Lcontrole
	movl	%eax, (%rbx)
	movl	x.3, %eax
	movl	y.4, %ecx
	movl	%eax, %edx
	subl	$1, %edx
	imull	%edx, %eax
	andl	$1, %eax
	cmpl	$0, %eax
	sete	%al
	cmpl	$10, %ecx
	setl	%cl
	orb	%cl, %al
	testb	$1, %al
	jne	.LBB2_58
	jmp	.LBB2_259
.LBB2_58:                               # %originalBBpart260
	jmp	.LBB2_59
.LBB2_59:                               # =>This Inner Loop Header: Depth=1
	movl	x.3, %eax
	movl	y.4, %ecx
	movl	%eax, %edx
	subl	$1, %edx
	imull	%edx, %eax
	andl	$1, %eax
	cmpl	$0, %eax
	sete	%al
	cmpl	$10, %ecx
	setl	%cl
	orb	%cl, %al
	testb	$1, %al
	jne	.LBB2_60
	jmp	.LBB2_260
.LBB2_60:                               # %originalBB62
                                        #   in Loop: Header=BB2_59 Depth=1
	cmpl	$1, (%rbx)
	setg	%al
	movl	x.3, %ecx
	movl	y.4, %edx
	movl	%ecx, %esi
	subl	$1, %esi
	imull	%esi, %ecx
	andl	$1, %ecx
	cmpl	$0, %ecx
	sete	%cl
	cmpl	$10, %edx
	setl	%dl
	orb	%dl, %cl
	testb	$1, %cl
	jne	.LBB2_61
	jmp	.LBB2_260
.LBB2_61:                               # %originalBBpart264
                                        #   in Loop: Header=BB2_59 Depth=1
	testb	$1, %al
	jne	.LBB2_62
	jmp	.LBB2_73
.LBB2_62:                               #   in Loop: Header=BB2_59 Depth=1
	movl	x.3, %eax
	movl	y.4, %ecx
	movl	%eax, %edx
	subl	$1, %edx
	imull	%edx, %eax
	andl	$1, %eax
	cmpl	$0, %eax
	sete	%al
	cmpl	$10, %ecx
	setl	%cl
	orb	%cl, %al
	testb	$1, %al
	jne	.LBB2_63
	jmp	.LBB2_261
.LBB2_63:                               # %originalBB66
                                        #   in Loop: Header=BB2_59 Depth=1
	movl	(%rbx), %eax
	cltd
	movl	$2, %ecx
	idivl	%ecx
	cmpl	$0, %edx
	sete	%al
	movl	x.3, %ecx
	movl	y.4, %edx
	movl	%ecx, %esi
	subl	$1, %esi
	imull	%esi, %ecx
	andl	$1, %ecx
	cmpl	$0, %ecx
	sete	%cl
	cmpl	$10, %edx
	setl	%dl
	orb	%dl, %cl
	testb	$1, %cl
	jne	.LBB2_64
	jmp	.LBB2_261
.LBB2_64:                               # %originalBBpart281
                                        #   in Loop: Header=BB2_59 Depth=1
	testb	$1, %al
	jne	.LBB2_65
	jmp	.LBB2_66
.LBB2_65:                               #   in Loop: Header=BB2_59 Depth=1
	movl	(%rbx), %eax
	cltd
	movl	$2, %ecx
	idivl	%ecx
	movl	%eax, (%rbx)
	jmp	.LBB2_67
.LBB2_66:                               #   in Loop: Header=BB2_59 Depth=1
	imull	$3, (%rbx), %eax
	addl	$1, %eax
	movl	%eax, (%rbx)
.LBB2_67:                               #   in Loop: Header=BB2_59 Depth=1
	movl	%r14d, %eax
	subl	(%rbx), %eax
	cmpl	$-2, %eax
	jg	.LBB2_69
.LBB2_68:                               # %.backedge1
                                        #   in Loop: Header=BB2_59 Depth=1
	jmp	.LBB2_59
.LBB2_69:                               #   in Loop: Header=BB2_59 Depth=1
	movl	%r14d, %eax
	addl	(%rbx), %eax
	cmpl	$2, %eax
	jge	.LBB2_68
# %bb.70:
	movl	x.3, %eax
	movl	y.4, %ecx
	movl	%eax, %edx
	subl	$1, %edx
	imull	%edx, %eax
	andl	$1, %eax
	cmpl	$0, %eax
	sete	%al
	cmpl	$10, %ecx
	setl	%cl
	orb	%cl, %al
	testb	$1, %al
	jne	.LBB2_71
	jmp	.LBB2_262
.LBB2_71:                               # %originalBB83
	movq	stdout, %rdi
	movq	Version, %rcx
	subq	$16, %rsp
	movabsq	$.L.str.11, %rsi
	movabsq	$.L.str.19, %rdx
	movabsq	$.L.str.20, %r8
	movabsq	$.L.str.21, %r9
	movq	$0, (%rsp)
	movb	$0, %al
	callq	version_etc
	addq	$16, %rsp
	movl	$0, -56(%rbp)
	movl	x.3, %eax
	movl	y.4, %ecx
	movl	%eax, %edx
	subl	$1, %edx
	imull	%edx, %eax
	andl	$1, %eax
	cmpl	$0, %eax
	sete	%al
	cmpl	$10, %ecx
	setl	%cl
	orb	%cl, %al
	testb	$1, %al
	jne	.LBB2_72
	jmp	.LBB2_262
.LBB2_72:                               # %originalBBpart285
	jmp	.LBB2_245
.LBB2_73:
	jmp	.LBB2_75
.LBB2_74:                               # %.loopexit
	jmp	.LBB2_75
.LBB2_75:
	movl	x.3, %eax
	movl	y.4, %ecx
	movl	%eax, %edx
	subl	$1, %edx
	imull	%edx, %eax
	andl	$1, %eax
	cmpl	$0, %eax
	sete	%al
	cmpl	$10, %ecx
	setl	%cl
	orb	%cl, %al
	testb	$1, %al
	jne	.LBB2_76
	jmp	.LBB2_263
.LBB2_76:                               # %originalBB87
	movl	-24(%rbp), %eax
	addl	$-1, %eax
	movl	%eax, -24(%rbp)
	movq	-48(%rbp), %rax
	addq	$8, %rax
	movq	%rax, -48(%rbp)
	movb	-25(%rbp), %al
	movl	x.3, %ecx
	movl	y.4, %edx
	movl	%ecx, %esi
	subl	$1, %esi
	imull	%esi, %ecx
	andl	$1, %ecx
	cmpl	$0, %ecx
	sete	%cl
	cmpl	$10, %edx
	setl	%dl
	orb	%dl, %cl
	testb	$1, %cl
	jne	.LBB2_77
	jmp	.LBB2_263
.LBB2_77:                               # %originalBBpart2100
	testb	$1, %al
	jne	.LBB2_78
	jmp	.LBB2_141
.LBB2_78:
	jmp	.LBB2_79
.LBB2_79:                               # =>This Loop Header: Depth=1
                                        #     Child Loop BB2_89 Depth 2
                                        #     Child Loop BB2_108 Depth 2
                                        #     Child Loop BB2_123 Depth 2
	movl	x.3, %eax
	movl	y.4, %ecx
	movl	%eax, %edx
	subl	$1, %edx
	imull	%edx, %eax
	andl	$1, %eax
	cmpl	$0, %eax
	sete	%al
	cmpl	$10, %ecx
	setl	%cl
	orb	%cl, %al
	testb	$1, %al
	jne	.LBB2_80
	jmp	.LBB2_264
.LBB2_80:                               # %originalBB102
                                        #   in Loop: Header=BB2_79 Depth=1
	cmpl	$0, -24(%rbp)
	setg	%cl
	movl	x.3, %eax
	movl	y.4, %edx
	movl	%eax, %esi
	subl	$1, %esi
	imull	%esi, %eax
	andl	$1, %eax
	cmpl	$0, %eax
	sete	%al
	cmpl	$10, %edx
	setl	%dl
	orb	%dl, %al
	testb	$1, %al
	jne	.LBB2_81
	jmp	.LBB2_264
.LBB2_81:                               # %originalBBpart2104
                                        #   in Loop: Header=BB2_79 Depth=1
	xorl	%eax, %eax
	testb	$1, %cl
	jne	.LBB2_82
	jmp	.LBB2_83
.LBB2_82:                               #   in Loop: Header=BB2_79 Depth=1
	movq	-48(%rbp), %rax
	movq	(%rax), %rax
	movsbl	(%rax), %eax
	cmpl	$45, %eax
	sete	%al
.LBB2_83:                               #   in Loop: Header=BB2_79 Depth=1
	movl	x.3, %ecx
	movl	y.4, %edx
	movl	%ecx, %esi
	subl	$1, %esi
	imull	%esi, %ecx
	andl	$1, %ecx
	cmpl	$0, %ecx
	sete	%cl
	cmpl	$10, %edx
	setl	%dl
	orb	%dl, %cl
	testb	$1, %cl
	jne	.LBB2_84
	jmp	.LBB2_265
.LBB2_84:                               # %originalBB106
                                        #   in Loop: Header=BB2_79 Depth=1
	movl	x.3, %ecx
	movl	y.4, %edx
	movl	%ecx, %esi
	subl	$1, %esi
	imull	%esi, %ecx
	andl	$1, %ecx
	cmpl	$0, %ecx
	sete	%cl
	cmpl	$10, %edx
	setl	%dl
	orb	%dl, %cl
	testb	$1, %cl
	jne	.LBB2_85
	jmp	.LBB2_265
.LBB2_85:                               # %originalBBpart2108
                                        #   in Loop: Header=BB2_79 Depth=1
	testb	$1, %al
	jne	.LBB2_86
	jmp	.LBB2_140
.LBB2_86:                               #   in Loop: Header=BB2_79 Depth=1
	movl	x.3, %eax
	movl	y.4, %ecx
	movl	%eax, %edx
	subl	$1, %edx
	imull	%edx, %eax
	andl	$1, %eax
	cmpl	$0, %eax
	sete	%al
	cmpl	$10, %ecx
	setl	%cl
	orb	%cl, %al
	testb	$1, %al
	jne	.LBB2_87
	jmp	.LBB2_266
.LBB2_87:                               # %originalBB110
                                        #   in Loop: Header=BB2_79 Depth=1
	movq	-48(%rbp), %rax
	movq	(%rax), %rax
	addq	$1, %rax
	movq	%rax, -72(%rbp)
	movq	$0, -64(%rbp)
	movl	x.3, %eax
	movl	y.4, %ecx
	movl	%eax, %edx
	subl	$1, %edx
	imull	%edx, %eax
	andl	$1, %eax
	cmpl	$0, %eax
	sete	%al
	cmpl	$10, %ecx
	setl	%cl
	orb	%cl, %al
	testb	$1, %al
	jne	.LBB2_88
	jmp	.LBB2_266
.LBB2_88:                               # %originalBBpart2112
                                        #   in Loop: Header=BB2_79 Depth=1
	jmp	.LBB2_89
.LBB2_89:                               #   Parent Loop BB2_79 Depth=1
                                        # =>  This Inner Loop Header: Depth=2
	movq	-72(%rbp), %rax
	movq	-64(%rbp), %rcx
	cmpb	$0, (%rax,%rcx)
	je	.LBB2_97
# %bb.90:                               #   in Loop: Header=BB2_89 Depth=2
	movq	-72(%rbp), %rax
	movq	-64(%rbp), %rcx
	movsbl	(%rax,%rcx), %eax
	movl	%eax, %ecx
	subl	$69, %ecx
	je	.LBB2_93
	jmp	.LBB2_91
.LBB2_91:                               #   in Loop: Header=BB2_89 Depth=2
	movl	%eax, %ecx
	subl	$101, %ecx
	je	.LBB2_93
	jmp	.LBB2_92
.LBB2_92:                               #   in Loop: Header=BB2_89 Depth=2
	subl	$110, %eax
	jne	.LBB2_94
	jmp	.LBB2_93
.LBB2_93:                               #   in Loop: Header=BB2_89 Depth=2
	jmp	.LBB2_95
.LBB2_94:
	jmp	.LBB2_144
.LBB2_95:                               #   in Loop: Header=BB2_89 Depth=2
	jmp	.LBB2_96
.LBB2_96:                               #   in Loop: Header=BB2_89 Depth=2
	movq	-64(%rbp), %rax
	addq	$1, %rax
	movq	%rax, -64(%rbp)
	jmp	.LBB2_89
.LBB2_97:                               #   in Loop: Header=BB2_79 Depth=1
	movq	-64(%rbp), %r14
# %bb.98:                               #   in Loop: Header=BB2_79 Depth=1
	movq	%rsp, %rbx
	addq	$-16, %rbx
	movq	%rbx, %rsp
# %bb.99:                               #   in Loop: Header=BB2_79 Depth=1
	movl	x.3, %eax
	movl	y.4, %ecx
	movl	%eax, %edx
	subl	$1, %edx
	imull	%edx, %eax
	andl	$1, %eax
	cmpl	$0, %eax
	sete	%al
	cmpl	$10, %ecx
	setl	%cl
	orb	%cl, %al
	testb	$1, %al
	jne	.LBB2_100
	jmp	.LBB2_267
.LBB2_100:                              # %originalBB114
                                        #   in Loop: Header=BB2_79 Depth=1
	cmpl	$1, inVal0
	setg	%al
	movl	x.3, %ecx
	movl	y.4, %edx
	movl	%ecx, %esi
	subl	$1, %esi
	imull	%esi, %ecx
	andl	$1, %ecx
	cmpl	$0, %ecx
	sete	%cl
	cmpl	$10, %edx
	setl	%dl
	orb	%dl, %cl
	testb	$1, %cl
	jne	.LBB2_101
	jmp	.LBB2_267
.LBB2_101:                              # %originalBBpart2116
                                        #   in Loop: Header=BB2_79 Depth=1
	testb	$1, %al
	jne	.LBB2_105
	jmp	.LBB2_102
.LBB2_102:                              #   in Loop: Header=BB2_79 Depth=1
	movl	x.3, %eax
	movl	y.4, %ecx
	movl	%eax, %edx
	subl	$1, %edx
	imull	%edx, %eax
	andl	$1, %eax
	cmpl	$0, %eax
	sete	%al
	cmpl	$10, %ecx
	setl	%cl
	orb	%cl, %al
	testb	$1, %al
	jne	.LBB2_103
	jmp	.LBB2_268
.LBB2_103:                              # %originalBB118
                                        #   in Loop: Header=BB2_79 Depth=1
	movl	$43, (%rbx)
	movl	x.3, %eax
	movl	y.4, %ecx
	movl	%eax, %edx
	subl	$1, %edx
	imull	%edx, %eax
	andl	$1, %eax
	cmpl	$0, %eax
	sete	%al
	cmpl	$10, %ecx
	setl	%cl
	orb	%cl, %al
	testb	$1, %al
	jne	.LBB2_104
	jmp	.LBB2_268
.LBB2_104:                              # %originalBBpart2120
                                        #   in Loop: Header=BB2_79 Depth=1
	jmp	.LBB2_105
.LBB2_105:                              #   in Loop: Header=BB2_79 Depth=1
	movl	x.3, %eax
	movl	y.4, %ecx
	movl	%eax, %edx
	subl	$1, %edx
	imull	%edx, %eax
	andl	$1, %eax
	cmpl	$0, %eax
	sete	%al
	cmpl	$10, %ecx
	setl	%cl
	orb	%cl, %al
	testb	$1, %al
	jne	.LBB2_106
	jmp	.LBB2_269
.LBB2_106:                              # %originalBB122
                                        #   in Loop: Header=BB2_79 Depth=1
	movq	inVal1, %rax
	movq	8(%rax), %rdi
	xorl	%esi, %esi
	callq	.Lcontrole
	movl	%eax, (%rbx)
	movl	x.3, %eax
	movl	y.4, %ecx
	movl	%eax, %edx
	subl	$1, %edx
	imull	%edx, %eax
	andl	$1, %eax
	cmpl	$0, %eax
	sete	%al
	cmpl	$10, %ecx
	setl	%cl
	orb	%cl, %al
	testb	$1, %al
	jne	.LBB2_107
	jmp	.LBB2_269
.LBB2_107:                              # %originalBBpart2124
                                        #   in Loop: Header=BB2_79 Depth=1
	jmp	.LBB2_108
.LBB2_108:                              #   Parent Loop BB2_79 Depth=1
                                        # =>  This Inner Loop Header: Depth=2
	cmpl	$1, (%rbx)
	jle	.LBB2_122
# %bb.109:                              #   in Loop: Header=BB2_108 Depth=2
	movl	x.3, %eax
	movl	y.4, %ecx
	movl	%eax, %edx
	subl	$1, %edx
	imull	%edx, %eax
	andl	$1, %eax
	cmpl	$0, %eax
	sete	%al
	cmpl	$10, %ecx
	setl	%cl
	orb	%cl, %al
	testb	$1, %al
	jne	.LBB2_110
	jmp	.LBB2_270
.LBB2_110:                              # %originalBB126
                                        #   in Loop: Header=BB2_108 Depth=2
	movl	(%rbx), %eax
	cltd
	movl	$2, %ecx
	idivl	%ecx
	cmpl	$0, %edx
	sete	%al
	movl	x.3, %ecx
	movl	y.4, %edx
	movl	%ecx, %esi
	subl	$1, %esi
	imull	%esi, %ecx
	andl	$1, %ecx
	cmpl	$0, %ecx
	sete	%cl
	cmpl	$10, %edx
	setl	%dl
	orb	%dl, %cl
	testb	$1, %cl
	jne	.LBB2_111
	jmp	.LBB2_270
.LBB2_111:                              # %originalBBpart2142
                                        #   in Loop: Header=BB2_108 Depth=2
	testb	$1, %al
	jne	.LBB2_112
	jmp	.LBB2_113
.LBB2_112:                              #   in Loop: Header=BB2_108 Depth=2
	movl	(%rbx), %eax
	cltd
	movl	$2, %ecx
	idivl	%ecx
	movl	%eax, (%rbx)
	jmp	.LBB2_116
.LBB2_113:                              #   in Loop: Header=BB2_108 Depth=2
	movl	x.3, %eax
	movl	y.4, %ecx
	movl	%eax, %edx
	subl	$1, %edx
	imull	%edx, %eax
	andl	$1, %eax
	cmpl	$0, %eax
	sete	%al
	cmpl	$10, %ecx
	setl	%cl
	orb	%cl, %al
	testb	$1, %al
	jne	.LBB2_114
	jmp	.LBB2_271
.LBB2_114:                              # %originalBB144
                                        #   in Loop: Header=BB2_108 Depth=2
	imull	$3, (%rbx), %eax
	addl	$1, %eax
	movl	%eax, (%rbx)
	movl	x.3, %eax
	movl	y.4, %ecx
	movl	%eax, %edx
	subl	$1, %edx
	imull	%edx, %eax
	andl	$1, %eax
	cmpl	$0, %eax
	sete	%al
	cmpl	$10, %ecx
	setl	%cl
	orb	%cl, %al
	testb	$1, %al
	jne	.LBB2_115
	jmp	.LBB2_271
.LBB2_115:                              # %originalBBpart2173
                                        #   in Loop: Header=BB2_108 Depth=2
	jmp	.LBB2_116
.LBB2_116:                              #   in Loop: Header=BB2_108 Depth=2
	movl	x.3, %eax
	movl	y.4, %ecx
	movl	%eax, %edx
	subl	$1, %edx
	imull	%edx, %eax
	andl	$1, %eax
	cmpl	$0, %eax
	sete	%al
	cmpl	$10, %ecx
	setl	%cl
	orb	%cl, %al
	testb	$1, %al
	jne	.LBB2_117
	jmp	.LBB2_272
.LBB2_117:                              # %originalBB175
                                        #   in Loop: Header=BB2_108 Depth=2
	movslq	(%rbx), %rax
	movl	$4294967294, %ecx       # imm = 0xFFFFFFFE
	movslq	%ecx, %rcx
	movq	%r14, %rdx
	subq	%rax, %rdx
	cmpq	%rcx, %rdx
	setg	%al
	movl	x.3, %ecx
	movl	y.4, %edx
	movl	%ecx, %esi
	subl	$1, %esi
	imull	%esi, %ecx
	andl	$1, %ecx
	cmpl	$0, %ecx
	sete	%cl
	cmpl	$10, %edx
	setl	%dl
	orb	%dl, %cl
	testb	$1, %cl
	jne	.LBB2_118
	jmp	.LBB2_272
.LBB2_118:                              # %originalBBpart2182
                                        #   in Loop: Header=BB2_108 Depth=2
	testb	$1, %al
	jne	.LBB2_120
	jmp	.LBB2_119
.LBB2_119:                              # %.backedge
                                        #   in Loop: Header=BB2_108 Depth=2
	jmp	.LBB2_108
.LBB2_120:                              #   in Loop: Header=BB2_108 Depth=2
	movslq	(%rbx), %rax
	movl	$2, %ecx
	movslq	%ecx, %rcx
	movq	%r14, %rdx
	addq	%rax, %rdx
	cmpq	%rcx, %rdx
	jge	.LBB2_119
# %bb.121:
	jmp	.LBB2_144
.LBB2_122:                              #   in Loop: Header=BB2_79 Depth=1
	jmp	.LBB2_123
.LBB2_123:                              #   Parent Loop BB2_79 Depth=1
                                        # =>  This Inner Loop Header: Depth=2
	movl	x.3, %eax
	movl	y.4, %ecx
	movl	%eax, %edx
	subl	$1, %edx
	imull	%edx, %eax
	andl	$1, %eax
	cmpl	$0, %eax
	sete	%al
	cmpl	$10, %ecx
	setl	%cl
	orb	%cl, %al
	testb	$1, %al
	jne	.LBB2_124
	jmp	.LBB2_273
.LBB2_124:                              # %originalBB184
                                        #   in Loop: Header=BB2_123 Depth=2
	movq	-72(%rbp), %rax
	cmpb	$0, (%rax)
	setne	%al
	movl	x.3, %ecx
	movl	y.4, %edx
	movl	%ecx, %esi
	subl	$1, %esi
	imull	%esi, %ecx
	andl	$1, %ecx
	cmpl	$0, %ecx
	sete	%cl
	cmpl	$10, %edx
	setl	%dl
	orb	%dl, %cl
	testb	$1, %cl
	jne	.LBB2_125
	jmp	.LBB2_273
.LBB2_125:                              # %originalBBpart2186
                                        #   in Loop: Header=BB2_123 Depth=2
	testb	$1, %al
	jne	.LBB2_126
	jmp	.LBB2_137
.LBB2_126:                              #   in Loop: Header=BB2_123 Depth=2
	movq	-72(%rbp), %rax
	movq	%rax, %rcx
	addq	$1, %rcx
	movq	%rcx, -72(%rbp)
	movsbl	(%rax), %eax
	movl	%eax, %ecx
	subl	$69, %ecx
	je	.LBB2_130
	jmp	.LBB2_127
.LBB2_127:                              #   in Loop: Header=BB2_123 Depth=2
	movl	%eax, %ecx
	subl	$101, %ecx
	je	.LBB2_129
	jmp	.LBB2_128
.LBB2_128:                              #   in Loop: Header=BB2_123 Depth=2
	subl	$110, %eax
	je	.LBB2_133
	jmp	.LBB2_136
.LBB2_129:                              #   in Loop: Header=BB2_123 Depth=2
	movb	$1, -19(%rbp)
	jmp	.LBB2_136
.LBB2_130:                              #   in Loop: Header=BB2_123 Depth=2
	movl	x.3, %eax
	movl	y.4, %ecx
	movl	%eax, %edx
	subl	$1, %edx
	imull	%edx, %eax
	andl	$1, %eax
	cmpl	$0, %eax
	sete	%al
	cmpl	$10, %ecx
	setl	%cl
	orb	%cl, %al
	testb	$1, %al
	jne	.LBB2_131
	jmp	.LBB2_274
.LBB2_131:                              # %originalBB188
                                        #   in Loop: Header=BB2_123 Depth=2
	movb	$0, -19(%rbp)
	movl	x.3, %eax
	movl	y.4, %ecx
	movl	%eax, %edx
	subl	$1, %edx
	imull	%edx, %eax
	andl	$1, %eax
	cmpl	$0, %eax
	sete	%al
	cmpl	$10, %ecx
	setl	%cl
	orb	%cl, %al
	testb	$1, %al
	jne	.LBB2_132
	jmp	.LBB2_274
.LBB2_132:                              # %originalBBpart2190
                                        #   in Loop: Header=BB2_123 Depth=2
	jmp	.LBB2_136
.LBB2_133:                              #   in Loop: Header=BB2_123 Depth=2
	movl	x.3, %eax
	movl	y.4, %ecx
	movl	%eax, %edx
	subl	$1, %edx
	imull	%edx, %eax
	andl	$1, %eax
	cmpl	$0, %eax
	sete	%al
	cmpl	$10, %ecx
	setl	%cl
	orb	%cl, %al
	testb	$1, %al
	jne	.LBB2_134
	jmp	.LBB2_275
.LBB2_134:                              # %originalBB192
                                        #   in Loop: Header=BB2_123 Depth=2
	movb	$0, -26(%rbp)
	movl	x.3, %eax
	movl	y.4, %ecx
	movl	%eax, %edx
	subl	$1, %edx
	imull	%edx, %eax
	andl	$1, %eax
	cmpl	$0, %eax
	sete	%al
	cmpl	$10, %ecx
	setl	%cl
	orb	%cl, %al
	testb	$1, %al
	jne	.LBB2_135
	jmp	.LBB2_275
.LBB2_135:                              # %originalBBpart2194
                                        #   in Loop: Header=BB2_123 Depth=2
	jmp	.LBB2_136
.LBB2_136:                              #   in Loop: Header=BB2_123 Depth=2
	jmp	.LBB2_123
.LBB2_137:                              #   in Loop: Header=BB2_79 Depth=1
	movl	x.3, %eax
	movl	y.4, %ecx
	movl	%eax, %edx
	subl	$1, %edx
	imull	%edx, %eax
	andl	$1, %eax
	cmpl	$0, %eax
	sete	%al
	cmpl	$10, %ecx
	setl	%cl
	orb	%cl, %al
	testb	$1, %al
	jne	.LBB2_138
	jmp	.LBB2_276
.LBB2_138:                              # %originalBB196
                                        #   in Loop: Header=BB2_79 Depth=1
	movl	-24(%rbp), %eax
	addl	$-1, %eax
	movl	%eax, -24(%rbp)
	movq	-48(%rbp), %rax
	addq	$8, %rax
	movq	%rax, -48(%rbp)
	movl	x.3, %eax
	movl	y.4, %ecx
	movl	%eax, %edx
	subl	$1, %edx
	imull	%edx, %eax
	andl	$1, %eax
	cmpl	$0, %eax
	sete	%al
	cmpl	$10, %ecx
	setl	%cl
	orb	%cl, %al
	testb	$1, %al
	jne	.LBB2_139
	jmp	.LBB2_276
.LBB2_139:                              # %originalBBpart2212
                                        #   in Loop: Header=BB2_79 Depth=1
	jmp	.LBB2_79
.LBB2_140:
	jmp	.LBB2_141
.LBB2_141:
	movl	x.3, %eax
	movl	y.4, %ecx
	movl	%eax, %edx
	subl	$1, %edx
	imull	%edx, %eax
	andl	$1, %eax
	cmpl	$0, %eax
	sete	%al
	cmpl	$10, %ecx
	setl	%cl
	orb	%cl, %al
	testb	$1, %al
	jne	.LBB2_142
	jmp	.LBB2_277
.LBB2_142:                              # %originalBB214
	movl	x.3, %eax
	movl	y.4, %ecx
	movl	%eax, %edx
	subl	$1, %edx
	imull	%edx, %eax
	andl	$1, %eax
	cmpl	$0, %eax
	sete	%al
	cmpl	$10, %ecx
	setl	%cl
	orb	%cl, %al
	testb	$1, %al
	jne	.LBB2_143
	jmp	.LBB2_277
.LBB2_143:                              # %originalBBpart2216
	jmp	.LBB2_144
.LBB2_144:
	movl	x.3, %eax
	movl	y.4, %ecx
	movl	%eax, %edx
	subl	$1, %edx
	imull	%edx, %eax
	andl	$1, %eax
	cmpl	$0, %eax
	sete	%al
	cmpl	$10, %ecx
	setl	%cl
	orb	%cl, %al
	testb	$1, %al
	jne	.LBB2_145
	jmp	.LBB2_278
.LBB2_145:                              # %originalBB218
	movb	-19(%rbp), %al
	movl	x.3, %ecx
	movl	y.4, %edx
	movl	%ecx, %esi
	subl	$1, %esi
	imull	%esi, %ecx
	andl	$1, %ecx
	cmpl	$0, %ecx
	sete	%cl
	cmpl	$10, %edx
	setl	%dl
	orb	%dl, %cl
	testb	$1, %cl
	jne	.LBB2_146
	jmp	.LBB2_278
.LBB2_146:                              # %originalBBpart2220
	testb	$1, %al
	jne	.LBB2_148
	jmp	.LBB2_147
.LBB2_147:
	testb	$1, -49(%rbp)
	je	.LBB2_228
.LBB2_148:
	jmp	.LBB2_149
.LBB2_149:                              # =>This Loop Header: Depth=1
                                        #     Child Loop BB2_153 Depth 2
	cmpl	$0, -24(%rbp)
	jle	.LBB2_227
# %bb.150:                              #   in Loop: Header=BB2_149 Depth=1
	movl	x.3, %eax
	movl	y.4, %ecx
	movl	%eax, %edx
	subl	$1, %edx
	imull	%edx, %eax
	andl	$1, %eax
	cmpl	$0, %eax
	sete	%al
	cmpl	$10, %ecx
	setl	%cl
	orb	%cl, %al
	testb	$1, %al
	jne	.LBB2_151
	jmp	.LBB2_279
.LBB2_151:                              # %originalBB222
                                        #   in Loop: Header=BB2_149 Depth=1
	movq	-48(%rbp), %rax
	movq	(%rax), %rax
	movq	%rax, -40(%rbp)
	movl	x.3, %eax
	movl	y.4, %ecx
	movl	%eax, %edx
	subl	$1, %edx
	imull	%edx, %eax
	andl	$1, %eax
	cmpl	$0, %eax
	sete	%al
	cmpl	$10, %ecx
	setl	%cl
	orb	%cl, %al
	testb	$1, %al
	jne	.LBB2_152
	jmp	.LBB2_279
.LBB2_152:                              # %originalBBpart2224
                                        #   in Loop: Header=BB2_149 Depth=1
	jmp	.LBB2_153
.LBB2_153:                              #   Parent Loop BB2_149 Depth=1
                                        # =>  This Inner Loop Header: Depth=2
	movq	-40(%rbp), %rax
	movq	%rax, %rcx
	addq	$1, %rcx
	movq	%rcx, -40(%rbp)
	movb	(%rax), %al
	movb	%al, -17(%rbp)
	cmpb	$0, %al
	je	.LBB2_222
# %bb.154:                              #   in Loop: Header=BB2_153 Depth=2
	movl	x.3, %eax
	movl	y.4, %ecx
	movl	%eax, %edx
	subl	$1, %edx
	imull	%edx, %eax
	andl	$1, %eax
	cmpl	$0, %eax
	sete	%al
	cmpl	$10, %ecx
	setl	%cl
	orb	%cl, %al
	testb	$1, %al
	jne	.LBB2_155
	jmp	.LBB2_280
.LBB2_155:                              # %originalBB226
                                        #   in Loop: Header=BB2_153 Depth=2
	movzbl	-17(%rbp), %eax
	cmpl	$92, %eax
	sete	%al
	movl	x.3, %ecx
	movl	y.4, %edx
	movl	%ecx, %esi
	subl	$1, %esi
	imull	%esi, %ecx
	andl	$1, %ecx
	cmpl	$0, %ecx
	sete	%cl
	cmpl	$10, %edx
	setl	%dl
	orb	%dl, %cl
	testb	$1, %cl
	jne	.LBB2_156
	jmp	.LBB2_280
.LBB2_156:                              # %originalBBpart2228
                                        #   in Loop: Header=BB2_153 Depth=2
	testb	$1, %al
	jne	.LBB2_157
	jmp	.LBB2_221
.LBB2_157:                              #   in Loop: Header=BB2_153 Depth=2
	movl	x.3, %eax
	movl	y.4, %ecx
	movl	%eax, %edx
	subl	$1, %edx
	imull	%edx, %eax
	andl	$1, %eax
	cmpl	$0, %eax
	sete	%al
	cmpl	$10, %ecx
	setl	%cl
	orb	%cl, %al
	testb	$1, %al
	jne	.LBB2_158
	jmp	.LBB2_281
.LBB2_158:                              # %originalBB230
                                        #   in Loop: Header=BB2_153 Depth=2
	movq	-40(%rbp), %rax
	movsbl	(%rax), %eax
	cmpl	$0, %eax
	setne	%al
	movl	x.3, %ecx
	movl	y.4, %edx
	movl	%ecx, %esi
	subl	$1, %esi
	imull	%esi, %ecx
	andl	$1, %ecx
	cmpl	$0, %ecx
	sete	%cl
	cmpl	$10, %edx
	setl	%dl
	orb	%dl, %cl
	testb	$1, %cl
	jne	.LBB2_159
	jmp	.LBB2_281
.LBB2_159:                              # %originalBBpart2232
                                        #   in Loop: Header=BB2_153 Depth=2
	testb	$1, %al
	jne	.LBB2_160
	jmp	.LBB2_221
.LBB2_160:                              #   in Loop: Header=BB2_153 Depth=2
	movq	-40(%rbp), %rax
	movq	%rax, %rcx
	addq	$1, %rcx
	movq	%rcx, -40(%rbp)
	movzbl	(%rax), %eax
	movb	%al, -17(%rbp)
	addl	$-48, %eax
	movl	%eax, %ecx
	subl	$72, %ecx
	ja	.LBB2_215
# %bb.161:                              #   in Loop: Header=BB2_153 Depth=2
	movq	.LJTI2_0(,%rax,8), %rax
	jmpq	*%rax
.LBB2_162:                              #   in Loop: Header=BB2_153 Depth=2
	movb	$7, -17(%rbp)
	jmp	.LBB2_218
.LBB2_163:                              #   in Loop: Header=BB2_153 Depth=2
	movl	x.3, %eax
	movl	y.4, %ecx
	movl	%eax, %edx
	subl	$1, %edx
	imull	%edx, %eax
	andl	$1, %eax
	cmpl	$0, %eax
	sete	%al
	cmpl	$10, %ecx
	setl	%cl
	orb	%cl, %al
	testb	$1, %al
	jne	.LBB2_164
	jmp	.LBB2_282
.LBB2_164:                              # %originalBB234
                                        #   in Loop: Header=BB2_153 Depth=2
	movb	$8, -17(%rbp)
	movl	x.3, %eax
	movl	y.4, %ecx
	movl	%eax, %edx
	subl	$1, %edx
	imull	%edx, %eax
	andl	$1, %eax
	cmpl	$0, %eax
	sete	%al
	cmpl	$10, %ecx
	setl	%cl
	orb	%cl, %al
	testb	$1, %al
	jne	.LBB2_165
	jmp	.LBB2_282
.LBB2_165:                              # %originalBBpart2236
                                        #   in Loop: Header=BB2_153 Depth=2
	jmp	.LBB2_218
.LBB2_166:
	movl	$0, -56(%rbp)
	jmp	.LBB2_245
.LBB2_167:                              #   in Loop: Header=BB2_153 Depth=2
	movb	$27, -17(%rbp)
	jmp	.LBB2_218
.LBB2_168:                              #   in Loop: Header=BB2_153 Depth=2
	movl	x.3, %eax
	movl	y.4, %ecx
	movl	%eax, %edx
	subl	$1, %edx
	imull	%edx, %eax
	andl	$1, %eax
	cmpl	$0, %eax
	sete	%al
	cmpl	$10, %ecx
	setl	%cl
	orb	%cl, %al
	testb	$1, %al
	jne	.LBB2_169
	jmp	.LBB2_283
.LBB2_169:                              # %originalBB238
                                        #   in Loop: Header=BB2_153 Depth=2
	movb	$12, -17(%rbp)
	movl	x.3, %eax
	movl	y.4, %ecx
	movl	%eax, %edx
	subl	$1, %edx
	imull	%edx, %eax
	andl	$1, %eax
	cmpl	$0, %eax
	sete	%al
	cmpl	$10, %ecx
	setl	%cl
	orb	%cl, %al
	testb	$1, %al
	jne	.LBB2_170
	jmp	.LBB2_283
.LBB2_170:                              # %originalBBpart2240
                                        #   in Loop: Header=BB2_153 Depth=2
	jmp	.LBB2_218
.LBB2_171:                              #   in Loop: Header=BB2_153 Depth=2
	movb	$10, -17(%rbp)
	jmp	.LBB2_218
.LBB2_172:                              #   in Loop: Header=BB2_153 Depth=2
	movb	$13, -17(%rbp)
	jmp	.LBB2_218
.LBB2_173:                              #   in Loop: Header=BB2_153 Depth=2
	movl	x.3, %eax
	movl	y.4, %ecx
	movl	%eax, %edx
	subl	$1, %edx
	imull	%edx, %eax
	andl	$1, %eax
	cmpl	$0, %eax
	sete	%al
	cmpl	$10, %ecx
	setl	%cl
	orb	%cl, %al
	testb	$1, %al
	jne	.LBB2_174
	jmp	.LBB2_284
.LBB2_174:                              # %originalBB242
                                        #   in Loop: Header=BB2_153 Depth=2
	movb	$9, -17(%rbp)
	movl	x.3, %eax
	movl	y.4, %ecx
	movl	%eax, %edx
	subl	$1, %edx
	imull	%edx, %eax
	andl	$1, %eax
	cmpl	$0, %eax
	sete	%al
	cmpl	$10, %ecx
	setl	%cl
	orb	%cl, %al
	testb	$1, %al
	jne	.LBB2_175
	jmp	.LBB2_284
.LBB2_175:                              # %originalBBpart2244
                                        #   in Loop: Header=BB2_153 Depth=2
	jmp	.LBB2_218
.LBB2_176:                              #   in Loop: Header=BB2_153 Depth=2
	movl	x.3, %eax
	movl	y.4, %ecx
	movl	%eax, %edx
	subl	$1, %edx
	imull	%edx, %eax
	andl	$1, %eax
	cmpl	$0, %eax
	sete	%al
	cmpl	$10, %ecx
	setl	%cl
	orb	%cl, %al
	testb	$1, %al
	jne	.LBB2_177
	jmp	.LBB2_285
.LBB2_177:                              # %originalBB246
                                        #   in Loop: Header=BB2_153 Depth=2
	movb	$11, -17(%rbp)
	movl	x.3, %eax
	movl	y.4, %ecx
	movl	%eax, %edx
	subl	$1, %edx
	imull	%edx, %eax
	andl	$1, %eax
	cmpl	$0, %eax
	sete	%al
	cmpl	$10, %ecx
	setl	%cl
	orb	%cl, %al
	testb	$1, %al
	jne	.LBB2_178
	jmp	.LBB2_285
.LBB2_178:                              # %originalBBpart2248
                                        #   in Loop: Header=BB2_153 Depth=2
	jmp	.LBB2_218
.LBB2_179:                              #   in Loop: Header=BB2_153 Depth=2
	movl	x.3, %eax
	movl	y.4, %ecx
	movl	%eax, %edx
	subl	$1, %edx
	imull	%edx, %eax
	andl	$1, %eax
	cmpl	$0, %eax
	sete	%al
	cmpl	$10, %ecx
	setl	%cl
	orb	%cl, %al
	testb	$1, %al
	jne	.LBB2_180
	jmp	.LBB2_286
.LBB2_180:                              # %originalBB250
                                        #   in Loop: Header=BB2_153 Depth=2
	movq	-40(%rbp), %rax
	movb	(%rax), %al
	movb	%al, -18(%rbp)
	callq	__ctype_b_loc
	movq	(%rax), %rax
	movzbl	-18(%rbp), %ecx
	movslq	%ecx, %rcx
	movzwl	(%rax,%rcx,2), %eax
	andl	$4096, %eax             # imm = 0x1000
	cmpl	$0, %eax
	setne	%al
	movl	x.3, %ecx
	movl	y.4, %edx
	movl	%ecx, %esi
	subl	$1, %esi
	imull	%esi, %ecx
	andl	$1, %ecx
	cmpl	$0, %ecx
	sete	%cl
	cmpl	$10, %edx
	setl	%dl
	orb	%dl, %cl
	testb	$1, %cl
	jne	.LBB2_181
	jmp	.LBB2_286
.LBB2_181:                              # %originalBBpart2267
                                        #   in Loop: Header=BB2_153 Depth=2
	testb	$1, %al
	jne	.LBB2_185
	jmp	.LBB2_182
.LBB2_182:                              #   in Loop: Header=BB2_153 Depth=2
	movl	x.3, %eax
	movl	y.4, %ecx
	movl	%eax, %edx
	subl	$1, %edx
	imull	%edx, %eax
	andl	$1, %eax
	cmpl	$0, %eax
	sete	%al
	cmpl	$10, %ecx
	setl	%cl
	orb	%cl, %al
	testb	$1, %al
	jne	.LBB2_183
	jmp	.LBB2_287
.LBB2_183:                              # %originalBB269
                                        #   in Loop: Header=BB2_153 Depth=2
	movl	x.3, %eax
	movl	y.4, %ecx
	movl	%eax, %edx
	subl	$1, %edx
	imull	%edx, %eax
	andl	$1, %eax
	cmpl	$0, %eax
	sete	%al
	cmpl	$10, %ecx
	setl	%cl
	orb	%cl, %al
	testb	$1, %al
	jne	.LBB2_184
	jmp	.LBB2_287
.LBB2_184:                              # %originalBBpart2271
                                        #   in Loop: Header=BB2_153 Depth=2
	jmp	.LBB2_214
.LBB2_185:                              #   in Loop: Header=BB2_153 Depth=2
	movq	-40(%rbp), %rax
	addq	$1, %rax
	movq	%rax, -40(%rbp)
	movzbl	-18(%rbp), %edi
	callq	hextobin
	movb	%al, -17(%rbp)
	movq	-40(%rbp), %rax
	movb	(%rax), %al
	movb	%al, -18(%rbp)
	callq	__ctype_b_loc
	movq	(%rax), %rax
	movzbl	-18(%rbp), %ecx
	movslq	%ecx, %rcx
	movzwl	(%rax,%rcx,2), %eax
	andl	$4096, %eax             # imm = 0x1000
	cmpl	$0, %eax
	je	.LBB2_187
# %bb.186:                              #   in Loop: Header=BB2_153 Depth=2
	movq	-40(%rbp), %rax
	addq	$1, %rax
	movq	%rax, -40(%rbp)
	movzbl	-17(%rbp), %ebx
	shll	$4, %ebx
	movzbl	-18(%rbp), %edi
	callq	hextobin
	addl	%eax, %ebx
	movb	%bl, -17(%rbp)
.LBB2_187:                              #   in Loop: Header=BB2_153 Depth=2
	jmp	.LBB2_218
.LBB2_188:                              #   in Loop: Header=BB2_153 Depth=2
	movl	x.3, %eax
	movl	y.4, %ecx
	movl	%eax, %edx
	subl	$1, %edx
	imull	%edx, %eax
	andl	$1, %eax
	cmpl	$0, %eax
	sete	%al
	cmpl	$10, %ecx
	setl	%cl
	orb	%cl, %al
	testb	$1, %al
	jne	.LBB2_189
	jmp	.LBB2_288
.LBB2_189:                              # %originalBB273
                                        #   in Loop: Header=BB2_153 Depth=2
	movb	$0, -17(%rbp)
	movq	-40(%rbp), %rax
	movsbl	(%rax), %eax
	movl	$48, %ecx
	cmpl	%eax, %ecx
	setle	%al
	movl	x.3, %ecx
	movl	y.4, %edx
	movl	%ecx, %esi
	subl	$1, %esi
	imull	%esi, %ecx
	andl	$1, %ecx
	cmpl	$0, %ecx
	sete	%cl
	cmpl	$10, %edx
	setl	%dl
	orb	%dl, %cl
	testb	$1, %cl
	jne	.LBB2_190
	jmp	.LBB2_288
.LBB2_190:                              # %originalBBpart2275
                                        #   in Loop: Header=BB2_153 Depth=2
	testb	$1, %al
	jne	.LBB2_191
	jmp	.LBB2_194
.LBB2_191:                              #   in Loop: Header=BB2_153 Depth=2
	movl	x.3, %eax
	movl	y.4, %ecx
	movl	%eax, %edx
	subl	$1, %edx
	imull	%edx, %eax
	andl	$1, %eax
	cmpl	$0, %eax
	sete	%al
	cmpl	$10, %ecx
	setl	%cl
	orb	%cl, %al
	testb	$1, %al
	jne	.LBB2_192
	jmp	.LBB2_289
.LBB2_192:                              # %originalBB277
                                        #   in Loop: Header=BB2_153 Depth=2
	movq	-40(%rbp), %rax
	movsbl	(%rax), %eax
	cmpl	$55, %eax
	setle	%al
	movl	x.3, %ecx
	movl	y.4, %edx
	movl	%ecx, %esi
	subl	$1, %esi
	imull	%esi, %ecx
	andl	$1, %ecx
	cmpl	$0, %ecx
	sete	%cl
	cmpl	$10, %edx
	setl	%dl
	orb	%dl, %cl
	testb	$1, %cl
	jne	.LBB2_193
	jmp	.LBB2_289
.LBB2_193:                              # %originalBBpart2279
                                        #   in Loop: Header=BB2_153 Depth=2
	testb	$1, %al
	jne	.LBB2_195
	jmp	.LBB2_194
.LBB2_194:                              #   in Loop: Header=BB2_153 Depth=2
	jmp	.LBB2_218
.LBB2_195:                              #   in Loop: Header=BB2_153 Depth=2
	movq	-40(%rbp), %rax
	movq	%rax, %rcx
	addq	$1, %rcx
	movq	%rcx, -40(%rbp)
	movb	(%rax), %al
	movb	%al, -17(%rbp)
.LBB2_196:                              #   in Loop: Header=BB2_153 Depth=2
	movzbl	-17(%rbp), %eax
	subl	$48, %eax
	movb	%al, -17(%rbp)
	movq	-40(%rbp), %rax
	movsbl	(%rax), %eax
	movl	$48, %ecx
	cmpl	%eax, %ecx
	jg	.LBB2_201
# %bb.197:                              #   in Loop: Header=BB2_153 Depth=2
	movq	-40(%rbp), %rax
	movsbl	(%rax), %eax
	cmpl	$55, %eax
	jg	.LBB2_201
# %bb.198:                              #   in Loop: Header=BB2_153 Depth=2
	movl	x.3, %eax
	movl	y.4, %ecx
	movl	%eax, %edx
	subl	$1, %edx
	imull	%edx, %eax
	andl	$1, %eax
	cmpl	$0, %eax
	sete	%al
	cmpl	$10, %ecx
	setl	%cl
	orb	%cl, %al
	testb	$1, %al
	jne	.LBB2_199
	jmp	.LBB2_290
.LBB2_199:                              # %originalBB281
                                        #   in Loop: Header=BB2_153 Depth=2
	movzbl	-17(%rbp), %eax
	shll	$3, %eax
	movq	-40(%rbp), %rcx
	movq	%rcx, %rdx
	addq	$1, %rdx
	movq	%rdx, -40(%rbp)
	movsbl	(%rcx), %ecx
	subl	$48, %ecx
	addl	%ecx, %eax
	movb	%al, -17(%rbp)
	movl	x.3, %eax
	movl	y.4, %ecx
	movl	%eax, %edx
	subl	$1, %edx
	imull	%edx, %eax
	andl	$1, %eax
	cmpl	$0, %eax
	sete	%al
	cmpl	$10, %ecx
	setl	%cl
	orb	%cl, %al
	testb	$1, %al
	jne	.LBB2_200
	jmp	.LBB2_290
.LBB2_200:                              # %originalBBpart2306
                                        #   in Loop: Header=BB2_153 Depth=2
	jmp	.LBB2_201
.LBB2_201:                              #   in Loop: Header=BB2_153 Depth=2
	movl	x.3, %eax
	movl	y.4, %ecx
	movl	%eax, %edx
	subl	$1, %edx
	imull	%edx, %eax
	andl	$1, %eax
	cmpl	$0, %eax
	sete	%al
	cmpl	$10, %ecx
	setl	%cl
	orb	%cl, %al
	testb	$1, %al
	jne	.LBB2_202
	jmp	.LBB2_291
.LBB2_202:                              # %originalBB308
                                        #   in Loop: Header=BB2_153 Depth=2
	movq	-40(%rbp), %rax
	movsbl	(%rax), %eax
	movl	$48, %ecx
	cmpl	%eax, %ecx
	setle	%al
	movl	x.3, %ecx
	movl	y.4, %edx
	movl	%ecx, %esi
	subl	$1, %esi
	imull	%esi, %ecx
	andl	$1, %ecx
	cmpl	$0, %ecx
	sete	%cl
	cmpl	$10, %edx
	setl	%dl
	orb	%dl, %cl
	testb	$1, %cl
	jne	.LBB2_203
	jmp	.LBB2_291
.LBB2_203:                              # %originalBBpart2310
                                        #   in Loop: Header=BB2_153 Depth=2
	testb	$1, %al
	jne	.LBB2_204
	jmp	.LBB2_210
.LBB2_204:                              #   in Loop: Header=BB2_153 Depth=2
	movl	x.3, %eax
	movl	y.4, %ecx
	movl	%eax, %edx
	subl	$1, %edx
	imull	%edx, %eax
	andl	$1, %eax
	cmpl	$0, %eax
	sete	%al
	cmpl	$10, %ecx
	setl	%cl
	orb	%cl, %al
	testb	$1, %al
	jne	.LBB2_205
	jmp	.LBB2_292
.LBB2_205:                              # %originalBB312
                                        #   in Loop: Header=BB2_153 Depth=2
	movq	-40(%rbp), %rax
	movsbl	(%rax), %eax
	cmpl	$55, %eax
	setle	%al
	movl	x.3, %ecx
	movl	y.4, %edx
	movl	%ecx, %esi
	subl	$1, %esi
	imull	%esi, %ecx
	andl	$1, %ecx
	cmpl	$0, %ecx
	sete	%cl
	cmpl	$10, %edx
	setl	%dl
	orb	%dl, %cl
	testb	$1, %cl
	jne	.LBB2_206
	jmp	.LBB2_292
.LBB2_206:                              # %originalBBpart2314
                                        #   in Loop: Header=BB2_153 Depth=2
	testb	$1, %al
	jne	.LBB2_207
	jmp	.LBB2_210
.LBB2_207:                              #   in Loop: Header=BB2_153 Depth=2
	movl	x.3, %eax
	movl	y.4, %ecx
	movl	%eax, %edx
	subl	$1, %edx
	imull	%edx, %eax
	andl	$1, %eax
	cmpl	$0, %eax
	sete	%al
	cmpl	$10, %ecx
	setl	%cl
	orb	%cl, %al
	testb	$1, %al
	jne	.LBB2_208
	jmp	.LBB2_293
.LBB2_208:                              # %originalBB316
                                        #   in Loop: Header=BB2_153 Depth=2
	movzbl	-17(%rbp), %eax
	shll	$3, %eax
	movq	-40(%rbp), %rcx
	movq	%rcx, %rdx
	addq	$1, %rdx
	movq	%rdx, -40(%rbp)
	movsbl	(%rcx), %ecx
	subl	$48, %ecx
	addl	%ecx, %eax
	movb	%al, -17(%rbp)
	movl	x.3, %eax
	movl	y.4, %ecx
	movl	%eax, %edx
	subl	$1, %edx
	imull	%edx, %eax
	andl	$1, %eax
	cmpl	$0, %eax
	sete	%al
	cmpl	$10, %ecx
	setl	%cl
	orb	%cl, %al
	testb	$1, %al
	jne	.LBB2_209
	jmp	.LBB2_293
.LBB2_209:                              # %originalBBpart2326
                                        #   in Loop: Header=BB2_153 Depth=2
	jmp	.LBB2_210
.LBB2_210:                              #   in Loop: Header=BB2_153 Depth=2
	jmp	.LBB2_218
.LBB2_211:                              #   in Loop: Header=BB2_153 Depth=2
	movl	x.3, %eax
	movl	y.4, %ecx
	movl	%eax, %edx
	subl	$1, %edx
	imull	%edx, %eax
	andl	$1, %eax
	cmpl	$0, %eax
	sete	%al
	cmpl	$10, %ecx
	setl	%cl
	orb	%cl, %al
	testb	$1, %al
	jne	.LBB2_212
	jmp	.LBB2_294
.LBB2_212:                              # %originalBB328
                                        #   in Loop: Header=BB2_153 Depth=2
	movl	x.3, %eax
	movl	y.4, %ecx
	movl	%eax, %edx
	subl	$1, %edx
	imull	%edx, %eax
	andl	$1, %eax
	cmpl	$0, %eax
	sete	%al
	cmpl	$10, %ecx
	setl	%cl
	orb	%cl, %al
	testb	$1, %al
	jne	.LBB2_213
	jmp	.LBB2_294
.LBB2_213:                              # %originalBBpart2330
                                        #   in Loop: Header=BB2_153 Depth=2
	jmp	.LBB2_218
.LBB2_214:                              #   in Loop: Header=BB2_153 Depth=2
	jmp	.LBB2_215
.LBB2_215:                              #   in Loop: Header=BB2_153 Depth=2
	movl	x.3, %eax
	movl	y.4, %ecx
	movl	%eax, %edx
	subl	$1, %edx
	imull	%edx, %eax
	andl	$1, %eax
	cmpl	$0, %eax
	sete	%al
	cmpl	$10, %ecx
	setl	%cl
	orb	%cl, %al
	testb	$1, %al
	jne	.LBB2_216
	jmp	.LBB2_295
.LBB2_216:                              # %originalBB332
                                        #   in Loop: Header=BB2_153 Depth=2
	movl	$92, %edi
	callq	putchar_unlocked
	movl	x.3, %eax
	movl	y.4, %ecx
	movl	%eax, %edx
	subl	$1, %edx
	imull	%edx, %eax
	andl	$1, %eax
	cmpl	$0, %eax
	sete	%al
	cmpl	$10, %ecx
	setl	%cl
	orb	%cl, %al
	testb	$1, %al
	jne	.LBB2_217
	jmp	.LBB2_295
.LBB2_217:                              # %originalBBpart2334
                                        #   in Loop: Header=BB2_153 Depth=2
	jmp	.LBB2_218
.LBB2_218:                              #   in Loop: Header=BB2_153 Depth=2
	movl	x.3, %eax
	movl	y.4, %ecx
	movl	%eax, %edx
	subl	$1, %edx
	imull	%edx, %eax
	andl	$1, %eax
	cmpl	$0, %eax
	sete	%al
	cmpl	$10, %ecx
	setl	%cl
	orb	%cl, %al
	testb	$1, %al
	jne	.LBB2_219
	jmp	.LBB2_296
.LBB2_219:                              # %originalBB336
                                        #   in Loop: Header=BB2_153 Depth=2
	movl	x.3, %eax
	movl	y.4, %ecx
	movl	%eax, %edx
	subl	$1, %edx
	imull	%edx, %eax
	andl	$1, %eax
	cmpl	$0, %eax
	sete	%al
	cmpl	$10, %ecx
	setl	%cl
	orb	%cl, %al
	testb	$1, %al
	jne	.LBB2_220
	jmp	.LBB2_296
.LBB2_220:                              # %originalBBpart2338
                                        #   in Loop: Header=BB2_153 Depth=2
	jmp	.LBB2_221
.LBB2_221:                              #   in Loop: Header=BB2_153 Depth=2
	movzbl	-17(%rbp), %edi
	callq	putchar_unlocked
	jmp	.LBB2_153
.LBB2_222:                              #   in Loop: Header=BB2_149 Depth=1
	movl	-24(%rbp), %eax
	addl	$-1, %eax
	movl	%eax, -24(%rbp)
	movq	-48(%rbp), %rax
	addq	$8, %rax
	movq	%rax, -48(%rbp)
	cmpl	$0, -24(%rbp)
	jle	.LBB2_226
# %bb.223:                              #   in Loop: Header=BB2_149 Depth=1
	movl	x.3, %eax
	movl	y.4, %ecx
	movl	%eax, %edx
	subl	$1, %edx
	imull	%edx, %eax
	andl	$1, %eax
	cmpl	$0, %eax
	sete	%al
	cmpl	$10, %ecx
	setl	%cl
	orb	%cl, %al
	testb	$1, %al
	jne	.LBB2_224
	jmp	.LBB2_297
.LBB2_224:                              # %originalBB340
                                        #   in Loop: Header=BB2_149 Depth=1
	movl	$32, %edi
	callq	putchar_unlocked
	movl	x.3, %eax
	movl	y.4, %ecx
	movl	%eax, %edx
	subl	$1, %edx
	imull	%edx, %eax
	andl	$1, %eax
	cmpl	$0, %eax
	sete	%al
	cmpl	$10, %ecx
	setl	%cl
	orb	%cl, %al
	testb	$1, %al
	jne	.LBB2_225
	jmp	.LBB2_297
.LBB2_225:                              # %originalBBpart2342
                                        #   in Loop: Header=BB2_149 Depth=1
	jmp	.LBB2_226
.LBB2_226:                              #   in Loop: Header=BB2_149 Depth=1
	jmp	.LBB2_149
.LBB2_227:
	jmp	.LBB2_240
.LBB2_228:
	jmp	.LBB2_229
.LBB2_229:                              # =>This Inner Loop Header: Depth=1
	movl	x.3, %eax
	movl	y.4, %ecx
	movl	%eax, %edx
	subl	$1, %edx
	imull	%edx, %eax
	andl	$1, %eax
	cmpl	$0, %eax
	sete	%al
	cmpl	$10, %ecx
	setl	%cl
	orb	%cl, %al
	testb	$1, %al
	jne	.LBB2_230
	jmp	.LBB2_298
.LBB2_230:                              # %originalBB344
                                        #   in Loop: Header=BB2_229 Depth=1
	cmpl	$0, -24(%rbp)
	setg	%al
	movl	x.3, %ecx
	movl	y.4, %edx
	movl	%ecx, %esi
	subl	$1, %esi
	imull	%esi, %ecx
	andl	$1, %ecx
	cmpl	$0, %ecx
	sete	%cl
	cmpl	$10, %edx
	setl	%dl
	orb	%dl, %cl
	testb	$1, %cl
	jne	.LBB2_231
	jmp	.LBB2_298
.LBB2_231:                              # %originalBBpart2346
                                        #   in Loop: Header=BB2_229 Depth=1
	testb	$1, %al
	jne	.LBB2_232
	jmp	.LBB2_237
.LBB2_232:                              #   in Loop: Header=BB2_229 Depth=1
	movl	x.3, %eax
	movl	y.4, %ecx
	movl	%eax, %edx
	subl	$1, %edx
	imull	%edx, %eax
	andl	$1, %eax
	cmpl	$0, %eax
	sete	%al
	cmpl	$10, %ecx
	setl	%cl
	orb	%cl, %al
	testb	$1, %al
	jne	.LBB2_233
	jmp	.LBB2_299
.LBB2_233:                              # %originalBB348
                                        #   in Loop: Header=BB2_229 Depth=1
	movq	-48(%rbp), %rax
	movq	(%rax), %rdi
	movq	stdout, %rsi
	callq	fputs_unlocked
	movl	-24(%rbp), %eax
	addl	$-1, %eax
	movl	%eax, -24(%rbp)
	movq	-48(%rbp), %rax
	addq	$8, %rax
	movq	%rax, -48(%rbp)
	cmpl	$0, -24(%rbp)
	setg	%al
	movl	x.3, %ecx
	movl	y.4, %edx
	movl	%ecx, %esi
	subl	$1, %esi
	imull	%esi, %ecx
	andl	$1, %ecx
	cmpl	$0, %ecx
	sete	%cl
	cmpl	$10, %edx
	setl	%dl
	orb	%dl, %cl
	testb	$1, %cl
	jne	.LBB2_234
	jmp	.LBB2_299
.LBB2_234:                              # %originalBBpart2364
                                        #   in Loop: Header=BB2_229 Depth=1
	testb	$1, %al
	jne	.LBB2_235
	jmp	.LBB2_236
.LBB2_235:                              #   in Loop: Header=BB2_229 Depth=1
	movl	$32, %edi
	callq	putchar_unlocked
.LBB2_236:                              #   in Loop: Header=BB2_229 Depth=1
	jmp	.LBB2_229
.LBB2_237:
	movl	x.3, %eax
	movl	y.4, %ecx
	movl	%eax, %edx
	subl	$1, %edx
	imull	%edx, %eax
	andl	$1, %eax
	cmpl	$0, %eax
	sete	%al
	cmpl	$10, %ecx
	setl	%cl
	orb	%cl, %al
	testb	$1, %al
	jne	.LBB2_238
	jmp	.LBB2_300
.LBB2_238:                              # %originalBB366
	movl	x.3, %eax
	movl	y.4, %ecx
	movl	%eax, %edx
	subl	$1, %edx
	imull	%edx, %eax
	andl	$1, %eax
	cmpl	$0, %eax
	sete	%al
	cmpl	$10, %ecx
	setl	%cl
	orb	%cl, %al
	testb	$1, %al
	jne	.LBB2_239
	jmp	.LBB2_300
.LBB2_239:                              # %originalBBpart2368
	jmp	.LBB2_240
.LBB2_240:
	movl	x.3, %eax
	movl	y.4, %ecx
	movl	%eax, %edx
	subl	$1, %edx
	imull	%edx, %eax
	andl	$1, %eax
	cmpl	$0, %eax
	sete	%al
	cmpl	$10, %ecx
	setl	%cl
	orb	%cl, %al
	testb	$1, %al
	jne	.LBB2_241
	jmp	.LBB2_301
.LBB2_241:                              # %originalBB370
	movb	-26(%rbp), %al
	movl	x.3, %ecx
	movl	y.4, %edx
	movl	%ecx, %esi
	subl	$1, %esi
	imull	%esi, %ecx
	andl	$1, %ecx
	cmpl	$0, %ecx
	sete	%cl
	cmpl	$10, %edx
	setl	%dl
	orb	%dl, %cl
	testb	$1, %cl
	jne	.LBB2_242
	jmp	.LBB2_301
.LBB2_242:                              # %originalBBpart2372
	testb	$1, %al
	jne	.LBB2_243
	jmp	.LBB2_244
.LBB2_243:
	movl	$10, %edi
	callq	putchar_unlocked
.LBB2_244:
	movl	$0, -56(%rbp)
.LBB2_245:
	movl	x.3, %eax
	movl	y.4, %ecx
	movl	%eax, %edx
	subl	$1, %edx
	imull	%edx, %eax
	andl	$1, %eax
	cmpl	$0, %eax
	sete	%al
	cmpl	$10, %ecx
	setl	%cl
	orb	%cl, %al
	testb	$1, %al
	jne	.LBB2_246
	jmp	.LBB2_302
.LBB2_246:                              # %originalBB374
	movl	-56(%rbp), %eax
	movl	x.3, %ecx
	movl	y.4, %edx
	movl	%ecx, %esi
	subl	$1, %esi
	imull	%esi, %ecx
	andl	$1, %ecx
	cmpl	$0, %ecx
	sete	%cl
	cmpl	$10, %edx
	setl	%dl
	orb	%dl, %cl
	testb	$1, %cl
	jne	.LBB2_247
	jmp	.LBB2_302
.LBB2_247:                              # %originalBBpart2376
	leaq	-16(%rbp), %rsp
	popq	%rbx
	popq	%r14
	popq	%rbp
	.cfi_def_cfa %rsp, 8
	retq
.LBB2_248:                              # %originalBBalteredBB
	.cfi_def_cfa %rbp, 16
	jmp	.LBB2_4
.LBB2_249:                              # %originalBB1alteredBB
	movb	%bl, %al
	andb	$1, %al
	movb	%al, -25(%rbp)
	movb	$0, -19(%rbp)
	movq	-48(%rbp), %rax
	movq	(%rax), %rdi
	callq	set_program_name
	movl	$6, %edi
	movabsq	$.L.str.14, %rsi
	callq	setlocale
	movabsq	$.L.str.15, %rdi
	movabsq	$.L.str.16, %rsi
	callq	bindtextdomain
	movabsq	$.L.str.15, %rdi
	callq	textdomain
	movabsq	$close_stdout, %rdi
	callq	atexit
	jmp	.LBB2_7
.LBB2_250:                              # %originalBB6alteredBB
	jmp	.LBB2_10
.LBB2_251:                              # %originalBB10alteredBB
	jmp	.LBB2_13
.LBB2_252:                              # %originalBB14alteredBB
	jmp	.LBB2_16
.LBB2_253:                              # %originalBB18alteredBB
                                        #   in Loop: Header=BB2_20 Depth=1
	jmp	.LBB2_22
.LBB2_254:                              # %originalBB29alteredBB
	movq	inVal1, %rax
	movq	8(%rax), %rdi
	xorl	%esi, %esi
	callq	.Lcontrole
	movl	%eax, (%rbx)
	jmp	.LBB2_34
.LBB2_255:                              # %originalBB33alteredBB
                                        #   in Loop: Header=BB2_36 Depth=1
	jmp	.LBB2_38
.LBB2_256:                              # %originalBB41alteredBB
                                        #   in Loop: Header=BB2_36 Depth=1
	movl	(%rbx), %eax
	cltd
	movl	$2, %ecx
	idivl	%ecx
	movl	%eax, (%rbx)
	jmp	.LBB2_41
.LBB2_257:                              # %originalBB47alteredBB
                                        #   in Loop: Header=BB2_36 Depth=1
	jmp	.LBB2_47
.LBB2_258:                              # %originalBB54alteredBB
	jmp	.LBB2_51
.LBB2_259:                              # %originalBB58alteredBB
	movq	inVal1, %rax
	movq	8(%rax), %rdi
	xorl	%esi, %esi
	callq	.Lcontrole
	movl	%eax, (%rbx)
	jmp	.LBB2_57
.LBB2_260:                              # %originalBB62alteredBB
                                        #   in Loop: Header=BB2_59 Depth=1
	jmp	.LBB2_60
.LBB2_261:                              # %originalBB66alteredBB
                                        #   in Loop: Header=BB2_59 Depth=1
	jmp	.LBB2_63
.LBB2_262:                              # %originalBB83alteredBB
	movq	stdout, %rdi
	movq	Version, %rcx
	subq	$16, %rsp
	movabsq	$.L.str.11, %rsi
	movabsq	$.L.str.19, %rdx
	movabsq	$.L.str.20, %r8
	movabsq	$.L.str.21, %r9
	movq	$0, (%rsp)
	movb	$0, %al
	callq	version_etc
	addq	$16, %rsp
	movl	$0, -56(%rbp)
	jmp	.LBB2_71
.LBB2_263:                              # %originalBB87alteredBB
	movl	-24(%rbp), %eax
	addl	$-1, %eax
	movl	%eax, -24(%rbp)
	movq	-48(%rbp), %rax
	addq	$8, %rax
	movq	%rax, -48(%rbp)
	jmp	.LBB2_76
.LBB2_264:                              # %originalBB102alteredBB
                                        #   in Loop: Header=BB2_79 Depth=1
	jmp	.LBB2_80
.LBB2_265:                              # %originalBB106alteredBB
                                        #   in Loop: Header=BB2_79 Depth=1
	jmp	.LBB2_84
.LBB2_266:                              # %originalBB110alteredBB
                                        #   in Loop: Header=BB2_79 Depth=1
	movq	-48(%rbp), %rax
	movq	(%rax), %rax
	addq	$1, %rax
	movq	%rax, -72(%rbp)
	movq	$0, -64(%rbp)
	jmp	.LBB2_87
.LBB2_267:                              # %originalBB114alteredBB
                                        #   in Loop: Header=BB2_79 Depth=1
	jmp	.LBB2_100
.LBB2_268:                              # %originalBB118alteredBB
                                        #   in Loop: Header=BB2_79 Depth=1
	movl	$43, (%rbx)
	jmp	.LBB2_103
.LBB2_269:                              # %originalBB122alteredBB
                                        #   in Loop: Header=BB2_79 Depth=1
	movq	inVal1, %rax
	movq	8(%rax), %rdi
	xorl	%esi, %esi
	callq	.Lcontrole
	movl	%eax, (%rbx)
	jmp	.LBB2_106
.LBB2_270:                              # %originalBB126alteredBB
                                        #   in Loop: Header=BB2_108 Depth=2
	jmp	.LBB2_110
.LBB2_271:                              # %originalBB144alteredBB
                                        #   in Loop: Header=BB2_108 Depth=2
	movl	(%rbx), %eax
	imull	$3, %eax, %eax
	addl	$1, %eax
	movl	%eax, (%rbx)
	jmp	.LBB2_114
.LBB2_272:                              # %originalBB175alteredBB
                                        #   in Loop: Header=BB2_108 Depth=2
	jmp	.LBB2_117
.LBB2_273:                              # %originalBB184alteredBB
                                        #   in Loop: Header=BB2_123 Depth=2
	jmp	.LBB2_124
.LBB2_274:                              # %originalBB188alteredBB
                                        #   in Loop: Header=BB2_123 Depth=2
	movb	$0, -19(%rbp)
	jmp	.LBB2_131
.LBB2_275:                              # %originalBB192alteredBB
                                        #   in Loop: Header=BB2_123 Depth=2
	movb	$0, -26(%rbp)
	jmp	.LBB2_134
.LBB2_276:                              # %originalBB196alteredBB
                                        #   in Loop: Header=BB2_79 Depth=1
	movl	-24(%rbp), %eax
	addl	$-1, %eax
	movl	%eax, -24(%rbp)
	movq	-48(%rbp), %rax
	addq	$8, %rax
	movq	%rax, -48(%rbp)
	jmp	.LBB2_138
.LBB2_277:                              # %originalBB214alteredBB
	jmp	.LBB2_142
.LBB2_278:                              # %originalBB218alteredBB
	jmp	.LBB2_145
.LBB2_279:                              # %originalBB222alteredBB
                                        #   in Loop: Header=BB2_149 Depth=1
	movq	-48(%rbp), %rax
	movq	(%rax), %rax
	movq	%rax, -40(%rbp)
	jmp	.LBB2_151
.LBB2_280:                              # %originalBB226alteredBB
                                        #   in Loop: Header=BB2_153 Depth=2
	jmp	.LBB2_155
.LBB2_281:                              # %originalBB230alteredBB
                                        #   in Loop: Header=BB2_153 Depth=2
	jmp	.LBB2_158
.LBB2_282:                              # %originalBB234alteredBB
                                        #   in Loop: Header=BB2_153 Depth=2
	movb	$8, -17(%rbp)
	jmp	.LBB2_164
.LBB2_283:                              # %originalBB238alteredBB
                                        #   in Loop: Header=BB2_153 Depth=2
	movb	$12, -17(%rbp)
	jmp	.LBB2_169
.LBB2_284:                              # %originalBB242alteredBB
                                        #   in Loop: Header=BB2_153 Depth=2
	movb	$9, -17(%rbp)
	jmp	.LBB2_174
.LBB2_285:                              # %originalBB246alteredBB
                                        #   in Loop: Header=BB2_153 Depth=2
	movb	$11, -17(%rbp)
	jmp	.LBB2_177
.LBB2_286:                              # %originalBB250alteredBB
                                        #   in Loop: Header=BB2_153 Depth=2
	movq	-40(%rbp), %rax
	movb	(%rax), %al
	movb	%al, -18(%rbp)
	jmp	.LBB2_180
.LBB2_287:                              # %originalBB269alteredBB
                                        #   in Loop: Header=BB2_153 Depth=2
	jmp	.LBB2_183
.LBB2_288:                              # %originalBB273alteredBB
                                        #   in Loop: Header=BB2_153 Depth=2
	movb	$0, -17(%rbp)
	jmp	.LBB2_189
.LBB2_289:                              # %originalBB277alteredBB
                                        #   in Loop: Header=BB2_153 Depth=2
	jmp	.LBB2_192
.LBB2_290:                              # %originalBB281alteredBB
                                        #   in Loop: Header=BB2_153 Depth=2
	movzbl	-17(%rbp), %eax
	shll	$3, %eax
	movq	-40(%rbp), %rcx
	movq	%rcx, %rdx
	addq	$1, %rdx
	movq	%rdx, -40(%rbp)
	movsbl	(%rcx), %ecx
	subl	$48, %ecx
	addl	%ecx, %eax
	movb	%al, -17(%rbp)
	jmp	.LBB2_199
.LBB2_291:                              # %originalBB308alteredBB
                                        #   in Loop: Header=BB2_153 Depth=2
	jmp	.LBB2_202
.LBB2_292:                              # %originalBB312alteredBB
                                        #   in Loop: Header=BB2_153 Depth=2
	jmp	.LBB2_205
.LBB2_293:                              # %originalBB316alteredBB
                                        #   in Loop: Header=BB2_153 Depth=2
	movzbl	-17(%rbp), %eax
	shll	$3, %eax
	movq	-40(%rbp), %rcx
	movq	%rcx, %rdx
	addq	$1, %rdx
	movq	%rdx, -40(%rbp)
	movsbl	(%rcx), %ecx
	subl	$48, %ecx
	addl	%ecx, %eax
	movb	%al, -17(%rbp)
	jmp	.LBB2_208
.LBB2_294:                              # %originalBB328alteredBB
                                        #   in Loop: Header=BB2_153 Depth=2
	jmp	.LBB2_212
.LBB2_295:                              # %originalBB332alteredBB
                                        #   in Loop: Header=BB2_153 Depth=2
	movl	$92, %edi
	callq	putchar_unlocked
	jmp	.LBB2_216
.LBB2_296:                              # %originalBB336alteredBB
                                        #   in Loop: Header=BB2_153 Depth=2
	jmp	.LBB2_219
.LBB2_297:                              # %originalBB340alteredBB
                                        #   in Loop: Header=BB2_149 Depth=1
	movl	$32, %edi
	callq	putchar_unlocked
	jmp	.LBB2_224
.LBB2_298:                              # %originalBB344alteredBB
                                        #   in Loop: Header=BB2_229 Depth=1
	jmp	.LBB2_230
.LBB2_299:                              # %originalBB348alteredBB
                                        #   in Loop: Header=BB2_229 Depth=1
	movq	-48(%rbp), %rax
	movq	(%rax), %rdi
	movq	stdout, %rsi
	callq	fputs_unlocked
	movl	-24(%rbp), %eax
	addl	$-1, %eax
	movl	%eax, -24(%rbp)
	movq	-48(%rbp), %rax
	addq	$8, %rax
	movq	%rax, -48(%rbp)
	jmp	.LBB2_233
.LBB2_300:                              # %originalBB366alteredBB
	jmp	.LBB2_238
.LBB2_301:                              # %originalBB370alteredBB
	jmp	.LBB2_241
.LBB2_302:                              # %originalBB374alteredBB
	jmp	.LBB2_246
.Lfunc_end2:
	.size	main, .Lfunc_end2-main
	.cfi_endproc
	.section	.rodata,"a",@progbits
	.p2align	3
.LJTI2_0:
	.quad	.LBB2_188
	.quad	.LBB2_196
	.quad	.LBB2_196
	.quad	.LBB2_196
	.quad	.LBB2_196
	.quad	.LBB2_196
	.quad	.LBB2_196
	.quad	.LBB2_196
	.quad	.LBB2_215
	.quad	.LBB2_215
	.quad	.LBB2_215
	.quad	.LBB2_215
	.quad	.LBB2_215
	.quad	.LBB2_215
	.quad	.LBB2_215
	.quad	.LBB2_215
	.quad	.LBB2_215
	.quad	.LBB2_215
	.quad	.LBB2_215
	.quad	.LBB2_215
	.quad	.LBB2_215
	.quad	.LBB2_215
	.quad	.LBB2_215
	.quad	.LBB2_215
	.quad	.LBB2_215
	.quad	.LBB2_215
	.quad	.LBB2_215
	.quad	.LBB2_215
	.quad	.LBB2_215
	.quad	.LBB2_215
	.quad	.LBB2_215
	.quad	.LBB2_215
	.quad	.LBB2_215
	.quad	.LBB2_215
	.quad	.LBB2_215
	.quad	.LBB2_215
	.quad	.LBB2_215
	.quad	.LBB2_215
	.quad	.LBB2_215
	.quad	.LBB2_215
	.quad	.LBB2_215
	.quad	.LBB2_215
	.quad	.LBB2_215
	.quad	.LBB2_215
	.quad	.LBB2_211
	.quad	.LBB2_215
	.quad	.LBB2_215
	.quad	.LBB2_215
	.quad	.LBB2_215
	.quad	.LBB2_162
	.quad	.LBB2_163
	.quad	.LBB2_166
	.quad	.LBB2_215
	.quad	.LBB2_167
	.quad	.LBB2_168
	.quad	.LBB2_215
	.quad	.LBB2_215
	.quad	.LBB2_215
	.quad	.LBB2_215
	.quad	.LBB2_215
	.quad	.LBB2_215
	.quad	.LBB2_215
	.quad	.LBB2_171
	.quad	.LBB2_215
	.quad	.LBB2_215
	.quad	.LBB2_215
	.quad	.LBB2_172
	.quad	.LBB2_215
	.quad	.LBB2_173
	.quad	.LBB2_215
	.quad	.LBB2_176
	.quad	.LBB2_215
	.quad	.LBB2_179
                                        # -- End function
	.text
	.p2align	4, 0x90         # -- Begin function hextobin
	.type	hextobin,@function
hextobin:                               # @hextobin
	.cfi_startproc
# %bb.0:
	pushq	%rbp
	.cfi_def_cfa_offset 16
	.cfi_offset %rbp, -16
	movq	%rsp, %rbp
	.cfi_def_cfa_register %rbp
	movb	%dil, -1(%rbp)
	movzbl	-1(%rbp), %eax
	addl	$-65, %eax
	movl	%eax, %ecx
	subl	$37, %ecx
	ja	.LBB3_2
# %bb.1:
	movq	.LJTI3_0(,%rax,8), %rax
	jmpq	*%rax
.LBB3_2:
	movl	x.5, %eax
	movl	y.6, %ecx
	movl	%eax, %edx
	subl	$1, %edx
	imull	%edx, %eax
	andl	$1, %eax
	cmpl	$0, %eax
	sete	%al
	cmpl	$10, %ecx
	setl	%cl
	orb	%cl, %al
	testb	$1, %al
	jne	.LBB3_3
	jmp	.LBB3_20
.LBB3_3:                                # %originalBB
	movzbl	-1(%rbp), %eax
	subl	$48, %eax
	movl	%eax, -8(%rbp)
	movl	x.5, %eax
	movl	y.6, %ecx
	movl	%eax, %edx
	subl	$1, %edx
	imull	%edx, %eax
	andl	$1, %eax
	cmpl	$0, %eax
	sete	%al
	cmpl	$10, %ecx
	setl	%cl
	orb	%cl, %al
	testb	$1, %al
	jne	.LBB3_4
	jmp	.LBB3_20
.LBB3_4:                                # %originalBBpart2
	jmp	.LBB3_17
.LBB3_5:
	movl	x.5, %eax
	movl	y.6, %ecx
	movl	%eax, %edx
	subl	$1, %edx
	imull	%edx, %eax
	andl	$1, %eax
	cmpl	$0, %eax
	sete	%al
	cmpl	$10, %ecx
	setl	%cl
	orb	%cl, %al
	testb	$1, %al
	jne	.LBB3_6
	jmp	.LBB3_21
.LBB3_6:                                # %originalBB6
	movl	$10, -8(%rbp)
	movl	x.5, %eax
	movl	y.6, %ecx
	movl	%eax, %edx
	subl	$1, %edx
	imull	%edx, %eax
	andl	$1, %eax
	cmpl	$0, %eax
	sete	%al
	cmpl	$10, %ecx
	setl	%cl
	orb	%cl, %al
	testb	$1, %al
	jne	.LBB3_7
	jmp	.LBB3_21
.LBB3_7:                                # %originalBBpart28
	jmp	.LBB3_17
.LBB3_8:
	movl	x.5, %eax
	movl	y.6, %ecx
	movl	%eax, %edx
	subl	$1, %edx
	imull	%edx, %eax
	andl	$1, %eax
	cmpl	$0, %eax
	sete	%al
	cmpl	$10, %ecx
	setl	%cl
	orb	%cl, %al
	testb	$1, %al
	jne	.LBB3_9
	jmp	.LBB3_22
.LBB3_9:                                # %originalBB10
	movl	$11, -8(%rbp)
	movl	x.5, %eax
	movl	y.6, %ecx
	movl	%eax, %edx
	subl	$1, %edx
	imull	%edx, %eax
	andl	$1, %eax
	cmpl	$0, %eax
	sete	%al
	cmpl	$10, %ecx
	setl	%cl
	orb	%cl, %al
	testb	$1, %al
	jne	.LBB3_10
	jmp	.LBB3_22
.LBB3_10:                               # %originalBBpart212
	jmp	.LBB3_17
.LBB3_11:
	movl	$12, -8(%rbp)
	jmp	.LBB3_17
.LBB3_12:
	movl	x.5, %eax
	movl	y.6, %ecx
	movl	%eax, %edx
	subl	$1, %edx
	imull	%edx, %eax
	andl	$1, %eax
	cmpl	$0, %eax
	sete	%al
	cmpl	$10, %ecx
	setl	%cl
	orb	%cl, %al
	testb	$1, %al
	jne	.LBB3_13
	jmp	.LBB3_23
.LBB3_13:                               # %originalBB14
	movl	$13, -8(%rbp)
	movl	x.5, %eax
	movl	y.6, %ecx
	movl	%eax, %edx
	subl	$1, %edx
	imull	%edx, %eax
	andl	$1, %eax
	cmpl	$0, %eax
	sete	%al
	cmpl	$10, %ecx
	setl	%cl
	orb	%cl, %al
	testb	$1, %al
	jne	.LBB3_14
	jmp	.LBB3_23
.LBB3_14:                               # %originalBBpart216
	jmp	.LBB3_17
.LBB3_15:
	movl	$14, -8(%rbp)
	jmp	.LBB3_17
.LBB3_16:
	movl	$15, -8(%rbp)
.LBB3_17:
	movl	x.5, %eax
	movl	y.6, %ecx
	movl	%eax, %edx
	subl	$1, %edx
	imull	%edx, %eax
	andl	$1, %eax
	cmpl	$0, %eax
	sete	%al
	cmpl	$10, %ecx
	setl	%cl
	orb	%cl, %al
	testb	$1, %al
	jne	.LBB3_18
	jmp	.LBB3_24
.LBB3_18:                               # %originalBB18
	movl	-8(%rbp), %eax
	movl	x.5, %ecx
	movl	y.6, %edx
	movl	%ecx, %esi
	subl	$1, %esi
	imull	%esi, %ecx
	andl	$1, %ecx
	cmpl	$0, %ecx
	sete	%cl
	cmpl	$10, %edx
	setl	%dl
	orb	%dl, %cl
	testb	$1, %cl
	jne	.LBB3_19
	jmp	.LBB3_24
.LBB3_19:                               # %originalBBpart220
	popq	%rbp
	.cfi_def_cfa %rsp, 8
	retq
.LBB3_20:                               # %originalBBalteredBB
	.cfi_def_cfa %rbp, 16
	movzbl	-1(%rbp), %eax
	subl	$48, %eax
	movl	%eax, -8(%rbp)
	jmp	.LBB3_3
.LBB3_21:                               # %originalBB6alteredBB
	movl	$10, -8(%rbp)
	jmp	.LBB3_6
.LBB3_22:                               # %originalBB10alteredBB
	movl	$11, -8(%rbp)
	jmp	.LBB3_9
.LBB3_23:                               # %originalBB14alteredBB
	movl	$13, -8(%rbp)
	jmp	.LBB3_13
.LBB3_24:                               # %originalBB18alteredBB
	jmp	.LBB3_18
.Lfunc_end3:
	.size	hextobin, .Lfunc_end3-hextobin
	.cfi_endproc
	.section	.rodata,"a",@progbits
	.p2align	3
.LJTI3_0:
	.quad	.LBB3_5
	.quad	.LBB3_8
	.quad	.LBB3_11
	.quad	.LBB3_12
	.quad	.LBB3_15
	.quad	.LBB3_16
	.quad	.LBB3_2
	.quad	.LBB3_2
	.quad	.LBB3_2
	.quad	.LBB3_2
	.quad	.LBB3_2
	.quad	.LBB3_2
	.quad	.LBB3_2
	.quad	.LBB3_2
	.quad	.LBB3_2
	.quad	.LBB3_2
	.quad	.LBB3_2
	.quad	.LBB3_2
	.quad	.LBB3_2
	.quad	.LBB3_2
	.quad	.LBB3_2
	.quad	.LBB3_2
	.quad	.LBB3_2
	.quad	.LBB3_2
	.quad	.LBB3_2
	.quad	.LBB3_2
	.quad	.LBB3_2
	.quad	.LBB3_2
	.quad	.LBB3_2
	.quad	.LBB3_2
	.quad	.LBB3_2
	.quad	.LBB3_2
	.quad	.LBB3_5
	.quad	.LBB3_8
	.quad	.LBB3_11
	.quad	.LBB3_12
	.quad	.LBB3_15
	.quad	.LBB3_16
                                        # -- End function
	.text
	.p2align	4, 0x90         # -- Begin function close_stdout
	.type	close_stdout,@function
close_stdout:                           # @close_stdout
	.cfi_startproc
# %bb.0:
	pushq	%rbp
	.cfi_def_cfa_offset 16
	.cfi_offset %rbp, -16
	movq	%rsp, %rbp
	.cfi_def_cfa_register %rbp
	pushq	%rbx
	pushq	%rax
	.cfi_offset %rbx, -24
	movq	stdout, %rdi
	callq	close_stream
	cmpl	$0, %eax
	je	.LBB4_13
# %bb.1:
	movl	x.7, %eax
	movl	y.8, %ecx
	movl	%eax, %edx
	subl	$1, %edx
	imull	%edx, %eax
	andl	$1, %eax
	cmpl	$0, %eax
	sete	%al
	cmpl	$10, %ecx
	setl	%cl
	orb	%cl, %al
	testb	$1, %al
	jne	.LBB4_2
	jmp	.LBB4_18
.LBB4_2:                                # %originalBB
	movb	ignore_EPIPE, %al
	movl	x.7, %ecx
	movl	y.8, %edx
	movl	%ecx, %esi
	subl	$1, %esi
	imull	%esi, %ecx
	andl	$1, %ecx
	cmpl	$0, %ecx
	sete	%cl
	cmpl	$10, %edx
	setl	%dl
	orb	%dl, %cl
	testb	$1, %cl
	jne	.LBB4_3
	jmp	.LBB4_18
.LBB4_3:                                # %originalBBpart2
	testb	$1, %al
	jne	.LBB4_4
	jmp	.LBB4_5
.LBB4_4:
	callq	__errno_location
	cmpl	$32, (%rax)
	je	.LBB4_13
.LBB4_5:
	movabsq	$.L.str.40, %rdi
	callq	gettext
	movq	%rax, -16(%rbp)
	cmpq	$0, file_name
	je	.LBB4_7
# %bb.6:
	callq	__errno_location
	movl	(%rax), %ebx
	movq	file_name, %rdi
	callq	quotearg_colon
	movq	-16(%rbp), %r8
	xorl	%edi, %edi
	movl	%ebx, %esi
	movabsq	$.L.str.1.41, %rdx
	movq	%rax, %rcx
	movb	$0, %al
	callq	error
	jmp	.LBB4_10
.LBB4_7:
	movl	x.7, %eax
	movl	y.8, %ecx
	movl	%eax, %edx
	subl	$1, %edx
	imull	%edx, %eax
	andl	$1, %eax
	cmpl	$0, %eax
	sete	%al
	cmpl	$10, %ecx
	setl	%cl
	orb	%cl, %al
	testb	$1, %al
	jne	.LBB4_8
	jmp	.LBB4_19
.LBB4_8:                                # %originalBB1
	callq	__errno_location
	movl	(%rax), %esi
	movq	-16(%rbp), %rcx
	xorl	%edi, %edi
	movabsq	$.L.str.2.42, %rdx
	movb	$0, %al
	callq	error
	movl	x.7, %eax
	movl	y.8, %ecx
	movl	%eax, %edx
	subl	$1, %edx
	imull	%edx, %eax
	andl	$1, %eax
	cmpl	$0, %eax
	sete	%al
	cmpl	$10, %ecx
	setl	%cl
	orb	%cl, %al
	testb	$1, %al
	jne	.LBB4_9
	jmp	.LBB4_19
.LBB4_9:                                # %originalBBpart24
	jmp	.LBB4_10
.LBB4_10:
	movl	x.7, %eax
	movl	y.8, %ecx
	movl	%eax, %edx
	subl	$1, %edx
	imull	%edx, %eax
	andl	$1, %eax
	cmpl	$0, %eax
	sete	%al
	cmpl	$10, %ecx
	setl	%cl
	orb	%cl, %al
	testb	$1, %al
	jne	.LBB4_11
	jmp	.LBB4_20
.LBB4_11:                               # %originalBB6
	movl	exit_failure, %edi
	callq	_exit
	movl	x.7, %eax
	movl	y.8, %ecx
	movl	%eax, %edx
	subl	$1, %edx
	imull	%edx, %eax
	andl	$1, %eax
	cmpl	$0, %eax
	sete	%al
	cmpl	$10, %ecx
	setl	%cl
	orb	%cl, %al
	testb	$1, %al
	jne	.LBB4_12
	jmp	.LBB4_20
.LBB4_12:                               # %originalBBpart28
.LBB4_13:
	movq	stderr, %rdi
	callq	close_stream
	cmpl	$0, %eax
	je	.LBB4_17
# %bb.14:
	movl	x.7, %eax
	movl	y.8, %ecx
	movl	%eax, %edx
	subl	$1, %edx
	imull	%edx, %eax
	andl	$1, %eax
	cmpl	$0, %eax
	sete	%al
	cmpl	$10, %ecx
	setl	%cl
	orb	%cl, %al
	testb	$1, %al
	jne	.LBB4_15
	jmp	.LBB4_21
.LBB4_15:                               # %originalBB10
	movl	exit_failure, %edi
	callq	_exit
	movl	x.7, %eax
	movl	y.8, %ecx
	movl	%eax, %edx
	subl	$1, %edx
	imull	%edx, %eax
	andl	$1, %eax
	cmpl	$0, %eax
	sete	%al
	cmpl	$10, %ecx
	setl	%cl
	orb	%cl, %al
	testb	$1, %al
	jne	.LBB4_16
	jmp	.LBB4_21
.LBB4_16:                               # %originalBBpart212
.LBB4_17:
	addq	$8, %rsp
	popq	%rbx
	popq	%rbp
	.cfi_def_cfa %rsp, 8
	retq
.LBB4_18:                               # %originalBBalteredBB
	.cfi_def_cfa %rbp, 16
	jmp	.LBB4_2
.LBB4_19:                               # %originalBB1alteredBB
	callq	__errno_location
	movl	(%rax), %esi
	movq	-16(%rbp), %rcx
	xorl	%edi, %edi
	movabsq	$.L.str.2.42, %rdx
	movb	$0, %al
	callq	error
	jmp	.LBB4_8
.LBB4_20:                               # %originalBB6alteredBB
	movl	exit_failure, %edi
	callq	_exit
	jmp	.LBB4_11
.LBB4_21:                               # %originalBB10alteredBB
	movl	exit_failure, %edi
	callq	_exit
	jmp	.LBB4_15
.Lfunc_end4:
	.size	close_stdout, .Lfunc_end4-close_stdout
	.cfi_endproc
                                        # -- End function
	.p2align	4, 0x90         # -- Begin function set_program_name
	.type	set_program_name,@function
set_program_name:                       # @set_program_name
	.cfi_startproc
# %bb.0:
	pushq	%rbp
	.cfi_def_cfa_offset 16
	.cfi_offset %rbp, -16
	movq	%rsp, %rbp
	.cfi_def_cfa_register %rbp
	pushq	%r15
	pushq	%r14
	pushq	%rbx
	pushq	%rax
	.cfi_offset %rbx, -40
	.cfi_offset %r14, -32
	.cfi_offset %r15, -24
	movl	x.9, %eax
	movl	y.10, %ecx
	movl	%eax, %edx
	subl	$1, %edx
	imull	%edx, %eax
	andl	$1, %eax
	cmpl	$0, %eax
	sete	%al
	cmpl	$10, %ecx
	setl	%cl
	orb	%cl, %al
	testb	$1, %al
	jne	.LBB5_1
	jmp	.LBB5_23
.LBB5_1:                                # %originalBB
	movq	%rsp, %r15
	addq	$-16, %r15
	movq	%r15, %rsp
	movq	%rsp, %rbx
	addq	$-16, %rbx
	movq	%rbx, %rsp
	movq	%rsp, %r14
	addq	$-16, %r14
	movq	%r14, %rsp
	movq	%rdi, (%r15)
	cmpq	$0, (%r15)
	sete	%al
	movl	x.9, %ecx
	movl	y.10, %edx
	movl	%ecx, %esi
	subl	$1, %esi
	imull	%esi, %ecx
	andl	$1, %ecx
	cmpl	$0, %ecx
	sete	%cl
	cmpl	$10, %edx
	setl	%dl
	orb	%dl, %cl
	testb	$1, %cl
	jne	.LBB5_2
	jmp	.LBB5_23
.LBB5_2:                                # %originalBBpart2
	testb	$1, %al
	jne	.LBB5_3
	jmp	.LBB5_4
.LBB5_3:
	movq	stderr, %rsi
	movabsq	$.L.str.47, %rdi
	callq	fputs
	callq	abort
.LBB5_4:
	movl	x.9, %eax
	movl	y.10, %ecx
	movl	%eax, %edx
	subl	$1, %edx
	imull	%edx, %eax
	andl	$1, %eax
	cmpl	$0, %eax
	sete	%al
	cmpl	$10, %ecx
	setl	%cl
	orb	%cl, %al
	testb	$1, %al
	jne	.LBB5_5
	jmp	.LBB5_24
.LBB5_5:                                # %originalBB1
	movq	(%r15), %rdi
	movl	$47, %esi
	callq	strrchr
	movq	%rax, (%rbx)
	cmpq	$0, (%rbx)
	setne	%al
	movl	x.9, %ecx
	movl	y.10, %edx
	movl	%ecx, %esi
	subl	$1, %esi
	imull	%esi, %ecx
	andl	$1, %ecx
	cmpl	$0, %ecx
	sete	%cl
	cmpl	$10, %edx
	setl	%dl
	orb	%dl, %cl
	testb	$1, %cl
	jne	.LBB5_6
	jmp	.LBB5_24
.LBB5_6:                                # %originalBBpart24
	testb	$1, %al
	jne	.LBB5_7
	jmp	.LBB5_8
.LBB5_7:
	movq	(%rbx), %rax
	addq	$1, %rax
	jmp	.LBB5_9
.LBB5_8:
	movq	(%r15), %rax
.LBB5_9:
	movl	x.9, %ecx
	movl	y.10, %edx
	movl	%ecx, %esi
	subl	$1, %esi
	imull	%esi, %ecx
	andl	$1, %ecx
	cmpl	$0, %ecx
	sete	%cl
	cmpl	$10, %edx
	setl	%dl
	orb	%dl, %cl
	testb	$1, %cl
	jne	.LBB5_10
	jmp	.LBB5_25
.LBB5_10:                               # %originalBB6
	movq	%rax, (%r14)
	movq	(%r14), %rcx
	movq	(%r15), %rdx
	subq	%rdx, %rcx
	cmpq	$7, %rcx
	setge	%cl
	movl	x.9, %edx
	movl	y.10, %esi
	movl	%edx, %edi
	subl	$1, %edi
	imull	%edi, %edx
	andl	$1, %edx
	cmpl	$0, %edx
	sete	%dl
	cmpl	$10, %esi
	setl	%bl
	orb	%bl, %dl
	testb	$1, %dl
	jne	.LBB5_11
	jmp	.LBB5_25
.LBB5_11:                               # %originalBBpart210
	testb	$1, %cl
	jne	.LBB5_12
	jmp	.LBB5_20
.LBB5_12:
	movl	x.9, %eax
	movl	y.10, %ecx
	movl	%eax, %edx
	subl	$1, %edx
	imull	%edx, %eax
	andl	$1, %eax
	cmpl	$0, %eax
	sete	%al
	cmpl	$10, %ecx
	setl	%cl
	orb	%cl, %al
	testb	$1, %al
	jne	.LBB5_13
	jmp	.LBB5_26
.LBB5_13:                               # %originalBB12
	movq	(%r14), %rdi
	addq	$-7, %rdi
	movabsq	$.L.str.1.48, %rsi
	movl	$7, %edx
	callq	strncmp
	cmpl	$0, %eax
	sete	%al
	movl	x.9, %ecx
	movl	y.10, %edx
	movl	%ecx, %esi
	subl	$1, %esi
	imull	%esi, %ecx
	andl	$1, %ecx
	cmpl	$0, %ecx
	sete	%cl
	cmpl	$10, %edx
	setl	%dl
	orb	%dl, %cl
	testb	$1, %cl
	jne	.LBB5_14
	jmp	.LBB5_26
.LBB5_14:                               # %originalBBpart214
	testb	$1, %al
	jne	.LBB5_15
	jmp	.LBB5_20
.LBB5_15:
	movq	(%r14), %rax
	movq	%rax, (%r15)
	movq	(%r14), %rdi
	movabsq	$.L.str.2.49, %rsi
	movl	$3, %edx
	callq	strncmp
	cmpl	$0, %eax
	jne	.LBB5_19
# %bb.16:
	movl	x.9, %eax
	movl	y.10, %ecx
	movl	%eax, %edx
	subl	$1, %edx
	imull	%edx, %eax
	andl	$1, %eax
	cmpl	$0, %eax
	sete	%al
	cmpl	$10, %ecx
	setl	%cl
	orb	%cl, %al
	testb	$1, %al
	jne	.LBB5_17
	jmp	.LBB5_27
.LBB5_17:                               # %originalBB16
	movq	(%r14), %rax
	addq	$3, %rax
	movq	%rax, (%r15)
	movq	(%r15), %rax
	movq	%rax, program_invocation_short_name
	movl	x.9, %eax
	movl	y.10, %ecx
	movl	%eax, %edx
	subl	$1, %edx
	imull	%edx, %eax
	andl	$1, %eax
	cmpl	$0, %eax
	sete	%al
	cmpl	$10, %ecx
	setl	%cl
	orb	%cl, %al
	testb	$1, %al
	jne	.LBB5_18
	jmp	.LBB5_27
.LBB5_18:                               # %originalBBpart218
	jmp	.LBB5_19
.LBB5_19:
	jmp	.LBB5_20
.LBB5_20:
	movl	x.9, %eax
	movl	y.10, %ecx
	movl	%eax, %edx
	subl	$1, %edx
	imull	%edx, %eax
	andl	$1, %eax
	cmpl	$0, %eax
	sete	%al
	cmpl	$10, %ecx
	setl	%cl
	orb	%cl, %al
	testb	$1, %al
	jne	.LBB5_21
	jmp	.LBB5_28
.LBB5_21:                               # %originalBB20
	movq	(%r15), %rax
	movq	%rax, program_name
	movq	(%r15), %rax
	movq	%rax, program_invocation_name
	movl	x.9, %eax
	movl	y.10, %ecx
	movl	%eax, %edx
	subl	$1, %edx
	imull	%edx, %eax
	andl	$1, %eax
	cmpl	$0, %eax
	sete	%al
	cmpl	$10, %ecx
	setl	%cl
	orb	%cl, %al
	testb	$1, %al
	jne	.LBB5_22
	jmp	.LBB5_28
.LBB5_22:                               # %originalBBpart222
	leaq	-24(%rbp), %rsp
	popq	%rbx
	popq	%r14
	popq	%r15
	popq	%rbp
	.cfi_def_cfa %rsp, 8
	retq
.LBB5_23:                               # %originalBBalteredBB
	.cfi_def_cfa %rbp, 16
	movq	%rsp, %rax
	addq	$-16, %rax
	movq	%rax, %rsp
	movq	%rdi, (%rax)
	jmp	.LBB5_1
.LBB5_24:                               # %originalBB1alteredBB
	movq	(%r15), %rdi
	movl	$47, %esi
	callq	strrchr
	movq	%rax, (%rbx)
	jmp	.LBB5_5
.LBB5_25:                               # %originalBB6alteredBB
	movq	%rax, (%r14)
	jmp	.LBB5_10
.LBB5_26:                               # %originalBB12alteredBB
	jmp	.LBB5_13
.LBB5_27:                               # %originalBB16alteredBB
	movq	(%r14), %rax
	addq	$3, %rax
	movq	%rax, (%r15)
	movq	(%r15), %rax
	movq	%rax, program_invocation_short_name
	jmp	.LBB5_17
.LBB5_28:                               # %originalBB20alteredBB
	movq	(%r15), %rax
	movq	%rax, program_name
	movq	(%r15), %rax
	movq	%rax, program_invocation_name
	jmp	.LBB5_21
.Lfunc_end5:
	.size	set_program_name, .Lfunc_end5-set_program_name
	.cfi_endproc
                                        # -- End function
	.p2align	4, 0x90         # -- Begin function set_char_quoting
	.type	set_char_quoting,@function
set_char_quoting:                       # @set_char_quoting
	.cfi_startproc
# %bb.0:
	pushq	%rbp
	.cfi_def_cfa_offset 16
	.cfi_offset %rbp, -16
	movq	%rsp, %rbp
	.cfi_def_cfa_register %rbp
	pushq	%r15
	pushq	%r14
	pushq	%r12
	pushq	%rbx
	.cfi_offset %rbx, -48
	.cfi_offset %r12, -40
	.cfi_offset %r14, -32
	.cfi_offset %r15, -24
	movl	x.11, %ebx
	movl	y.12, %ecx
	movl	%ebx, %eax
	subl	$1, %eax
	imull	%eax, %ebx
	andl	$1, %ebx
	cmpl	$0, %ebx
	sete	%al
	cmpl	$10, %ecx
	setl	%cl
	orb	%cl, %al
	testb	$1, %al
	jne	.LBB6_1
	jmp	.LBB6_12
.LBB6_1:                                # %originalBB
	movq	%rsp, %r12
	addq	$-16, %r12
	movq	%r12, %rsp
	movq	%rsp, %rcx
	addq	$-16, %rcx
	movq	%rcx, %rsp
	movq	%rsp, %r8
	addq	$-16, %r8
	movq	%r8, %rsp
	movq	%rsp, %r9
	addq	$-16, %r9
	movq	%r9, %rsp
	movq	%rsp, %r10
	addq	$-16, %r10
	movq	%r10, %rsp
	movq	%rsp, %r11
	addq	$-16, %r11
	movq	%r11, %rsp
	movq	%rsp, %r14
	addq	$-16, %r14
	movq	%r14, %rsp
	movq	%rdi, (%r12)
	movb	%sil, (%rcx)
	movl	%edx, (%r8)
	movb	(%rcx), %cl
	movb	%cl, (%r9)
	cmpq	$0, (%r12)
	setne	%r15b
	movl	x.11, %eax
	movl	y.12, %ecx
	movl	%eax, %ebx
	subl	$1, %ebx
	imull	%ebx, %eax
	andl	$1, %eax
	cmpl	$0, %eax
	sete	%al
	cmpl	$10, %ecx
	setl	%cl
	orb	%cl, %al
	testb	$1, %al
	jne	.LBB6_2
	jmp	.LBB6_12
.LBB6_2:                                # %originalBBpart2
	testb	$1, %r15b
	jne	.LBB6_3
	jmp	.LBB6_6
.LBB6_3:
	movl	x.11, %eax
	movl	y.12, %ecx
	movl	%eax, %edx
	subl	$1, %edx
	imull	%edx, %eax
	andl	$1, %eax
	cmpl	$0, %eax
	sete	%al
	cmpl	$10, %ecx
	setl	%cl
	orb	%cl, %al
	testb	$1, %al
	jne	.LBB6_4
	jmp	.LBB6_13
.LBB6_4:                                # %originalBB1
	movq	(%r12), %rdx
	movl	x.11, %eax
	movl	y.12, %ecx
	movl	%eax, %esi
	subl	$1, %esi
	imull	%esi, %eax
	andl	$1, %eax
	cmpl	$0, %eax
	sete	%al
	cmpl	$10, %ecx
	setl	%cl
	orb	%cl, %al
	testb	$1, %al
	jne	.LBB6_5
	jmp	.LBB6_13
.LBB6_5:                                # %originalBBpart24
	jmp	.LBB6_9
.LBB6_6:
	movl	x.11, %eax
	movl	y.12, %ecx
	movl	%eax, %edx
	subl	$1, %edx
	imull	%edx, %eax
	andl	$1, %eax
	cmpl	$0, %eax
	sete	%al
	cmpl	$10, %ecx
	setl	%cl
	orb	%cl, %al
	testb	$1, %al
	jne	.LBB6_7
	jmp	.LBB6_14
.LBB6_7:                                # %originalBB6
	movl	x.11, %eax
	movl	y.12, %ecx
	movl	%eax, %edx
	subl	$1, %edx
	imull	%edx, %eax
	andl	$1, %eax
	cmpl	$0, %eax
	sete	%al
	cmpl	$10, %ecx
	setl	%cl
	orb	%cl, %al
	testb	$1, %al
	jne	.LBB6_8
	jmp	.LBB6_14
.LBB6_8:                                # %originalBBpart28
	movabsq	$default_quoting_options, %rdx
	jmp	.LBB6_9
.LBB6_9:
	movl	x.11, %eax
	movl	y.12, %ecx
	movl	%eax, %esi
	subl	$1, %esi
	imull	%esi, %eax
	andl	$1, %eax
	cmpl	$0, %eax
	sete	%al
	cmpl	$10, %ecx
	setl	%cl
	orb	%cl, %al
	testb	$1, %al
	jne	.LBB6_10
	jmp	.LBB6_15
.LBB6_10:                               # %originalBB10
	movq	%rdx, %rax
	addq	$8, %rax
	movzbl	(%r9), %ecx
	shrq	$5, %rcx
	shlq	$2, %rcx
	addq	%rcx, %rax
	movq	%rax, (%r10)
	movzbl	(%r9), %eax
	andq	$31, %rax
	movl	%eax, (%r11)
	movq	(%r10), %rax
	movl	(%rax), %eax
	movl	(%r11), %ecx
                                        # kill: def $cl killed $ecx
	shrl	%cl, %eax
	andl	$1, %eax
	movl	%eax, (%r14)
	movl	(%r8), %eax
	andl	$1, %eax
	xorl	(%r14), %eax
	movl	(%r11), %ecx
                                        # kill: def $cl killed $ecx
	shll	%cl, %eax
	movq	(%r10), %rcx
	xorl	(%rcx), %eax
	movl	%eax, (%rcx)
	movl	(%r14), %eax
	movl	x.11, %ecx
	movl	y.12, %esi
	movl	%ecx, %edi
	subl	$1, %edi
	imull	%edi, %ecx
	andl	$1, %ecx
	cmpl	$0, %ecx
	sete	%cl
	cmpl	$10, %esi
	setl	%bl
	orb	%bl, %cl
	testb	$1, %cl
	jne	.LBB6_11
	jmp	.LBB6_15
.LBB6_11:                               # %originalBBpart257
	leaq	-32(%rbp), %rsp
	popq	%rbx
	popq	%r12
	popq	%r14
	popq	%r15
	popq	%rbp
	.cfi_def_cfa %rsp, 8
	retq
.LBB6_12:                               # %originalBBalteredBB
	.cfi_def_cfa %rbp, 16
	movq	%rsp, %r8
	addq	$-16, %r8
	movq	%r8, %rsp
	movq	%rsp, %rcx
	addq	$-16, %rcx
	movq	%rcx, %rsp
	movq	%rsp, %rbx
	addq	$-16, %rbx
	movq	%rbx, %rsp
	movq	%rsp, %rax
	addq	$-16, %rax
	movq	%rax, %rsp
	movq	%rdi, (%r8)
	movb	%sil, (%rcx)
	movl	%edx, (%rbx)
	movb	(%rcx), %cl
	movb	%cl, (%rax)
	jmp	.LBB6_1
.LBB6_13:                               # %originalBB1alteredBB
	jmp	.LBB6_4
.LBB6_14:                               # %originalBB6alteredBB
	jmp	.LBB6_7
.LBB6_15:                               # %originalBB10alteredBB
	movq	%rdx, %rax
	addq	$8, %rax
	movzbl	(%r9), %ecx
	shrq	$5, %rcx
	shlq	$2, %rcx
	addq	%rcx, %rax
	movq	%rax, (%r10)
	movzbl	(%r9), %eax
	andq	$31, %rax
	movl	%eax, (%r11)
	movq	(%r10), %rax
	movl	(%rax), %eax
	movl	(%r11), %ecx
                                        # kill: def $cl killed $ecx
	shrl	%cl, %eax
	andl	$1, %eax
	movl	%eax, (%r14)
	movl	(%r8), %eax
	andl	$1, %eax
	movl	(%r14), %ecx
	xorl	%ecx, %eax
	movl	(%r11), %ecx
                                        # kill: def $cl killed $ecx
	shll	%cl, %eax
	movq	(%r10), %rcx
	movl	(%rcx), %esi
	xorl	%eax, %esi
	movl	%esi, (%rcx)
	jmp	.LBB6_10
.Lfunc_end6:
	.size	set_char_quoting, .Lfunc_end6-set_char_quoting
	.cfi_endproc
                                        # -- End function
	.p2align	4, 0x90         # -- Begin function quotearg_char_mem
	.type	quotearg_char_mem,@function
quotearg_char_mem:                      # @quotearg_char_mem
	.cfi_startproc
# %bb.0:
	pushq	%rbp
	.cfi_def_cfa_offset 16
	.cfi_offset %rbp, -16
	movq	%rsp, %rbp
	.cfi_def_cfa_register %rbp
	pushq	%r15
	pushq	%r14
	pushq	%r13
	pushq	%r12
	pushq	%rbx
	subq	$24, %rsp
	.cfi_offset %rbx, -56
	.cfi_offset %r12, -48
	.cfi_offset %r13, -40
	.cfi_offset %r14, -32
	.cfi_offset %r15, -24
	movl	%edx, -44(%rbp)         # 4-byte Spill
	movq	%rsi, -56(%rbp)         # 8-byte Spill
	movq	%rdi, %r12
	movl	x.13, %eax
	movl	y.14, %ecx
	movl	%eax, %edx
	subl	$1, %edx
	imull	%edx, %eax
	andl	$1, %eax
	cmpl	$0, %eax
	sete	%al
	cmpl	$10, %ecx
	setl	%cl
	orb	%cl, %al
	testb	$1, %al
	jne	.LBB7_1
	jmp	.LBB7_3
.LBB7_1:                                # %originalBB
	movabsq	$default_quoting_options, %rsi
	movq	%rsp, %r13
	addq	$-16, %r13
	movq	%r13, %rsp
	movq	%rsp, %r14
	addq	$-16, %r14
	movq	%r14, %rsp
	movq	%rsp, %r15
	addq	$-16, %r15
	movq	%r15, %rsp
	movq	%rsp, %rbx
	addq	$-64, %rbx
	movq	%rbx, %rsp
	movq	%r12, (%r13)
	movq	-56(%rbp), %rax         # 8-byte Reload
	movq	%rax, (%r14)
	movl	-44(%rbp), %eax         # 4-byte Reload
	movb	%al, (%r15)
	movq	%rbx, %rdi
	movl	$56, %edx
	callq	memcpy
	movq	%rbx, %rdi
	movsbl	(%r15), %esi
	movl	$1, %edx
	callq	set_char_quoting
	movq	(%r13), %rsi
	movq	(%r14), %rdx
	xorl	%edi, %edi
	movq	%rbx, %rcx
	callq	quotearg_n_options
	movl	x.13, %ecx
	movl	y.14, %edx
	movl	%ecx, %esi
	subl	$1, %esi
	imull	%esi, %ecx
	andl	$1, %ecx
	cmpl	$0, %ecx
	sete	%cl
	cmpl	$10, %edx
	setl	%dl
	orb	%dl, %cl
	testb	$1, %cl
	jne	.LBB7_2
	jmp	.LBB7_3
.LBB7_2:                                # %originalBBpart2
	leaq	-40(%rbp), %rsp
	popq	%rbx
	popq	%r12
	popq	%r13
	popq	%r14
	popq	%r15
	popq	%rbp
	.cfi_def_cfa %rsp, 8
	retq
.LBB7_3:                                # %originalBBalteredBB
	.cfi_def_cfa %rbp, 16
	movabsq	$default_quoting_options, %rsi
	movq	%rsp, %r13
	addq	$-16, %r13
	movq	%r13, %rsp
	movq	%rsp, %r14
	addq	$-16, %r14
	movq	%r14, %rsp
	movq	%rsp, %r15
	addq	$-16, %r15
	movq	%r15, %rsp
	movq	%rsp, %rbx
	addq	$-64, %rbx
	movq	%rbx, %rsp
	movq	%r12, (%r13)
	movq	-56(%rbp), %rax         # 8-byte Reload
	movq	%rax, (%r14)
	movl	-44(%rbp), %eax         # 4-byte Reload
	movb	%al, (%r15)
	movq	%rbx, %rdi
	movl	$56, %edx
	callq	memcpy
	movq	%rbx, %rdi
	movsbl	(%r15), %esi
	movl	$1, %edx
	callq	set_char_quoting
	movq	(%r13), %rsi
	movq	(%r14), %rdx
	xorl	%edi, %edi
	movq	%rbx, %rcx
	callq	quotearg_n_options
	jmp	.LBB7_1
.Lfunc_end7:
	.size	quotearg_char_mem, .Lfunc_end7-quotearg_char_mem
	.cfi_endproc
                                        # -- End function
	.p2align	4, 0x90         # -- Begin function quotearg_n_options
	.type	quotearg_n_options,@function
quotearg_n_options:                     # @quotearg_n_options
	.cfi_startproc
# %bb.0:
	pushq	%rbp
	.cfi_def_cfa_offset 16
	.cfi_offset %rbp, -16
	movq	%rsp, %rbp
	.cfi_def_cfa_register %rbp
	pushq	%r15
	pushq	%r14
	pushq	%r13
	pushq	%r12
	pushq	%rbx
	subq	$120, %rsp
	.cfi_offset %rbx, -56
	.cfi_offset %r12, -48
	.cfi_offset %r13, -40
	.cfi_offset %r14, -32
	.cfi_offset %r15, -24
	movq	%rcx, -80(%rbp)         # 8-byte Spill
	movq	%rdx, -72(%rbp)         # 8-byte Spill
	movq	%rsi, -64(%rbp)         # 8-byte Spill
	movl	%edi, -44(%rbp)         # 4-byte Spill
	movl	x.15, %eax
	movl	y.16, %ecx
	movl	%eax, %edx
	subl	$1, %edx
	imull	%edx, %eax
	andl	$1, %eax
	cmpl	$0, %eax
	sete	%al
	cmpl	$10, %ecx
	setl	%cl
	orb	%cl, %al
	testb	$1, %al
	jne	.LBB8_1
	jmp	.LBB8_34
.LBB8_1:                                # %originalBB
	movq	%rsp, %r14
	addq	$-16, %r14
	movq	%r14, %rsp
	movq	%rsp, %rcx
	addq	$-16, %rcx
	movq	%rcx, %rsp
	movq	%rsp, %rdx
	addq	$-16, %rdx
	movq	%rdx, %rsp
	movq	%rsp, %rsi
	addq	$-16, %rsi
	movq	%rsi, %rsp
	movq	%rsp, %r12
	addq	$-16, %r12
	movq	%r12, %rsp
	movq	%rsp, %r15
	addq	$-16, %r15
	movq	%r15, %rsp
	movq	%rsp, %rax
	addq	$-16, %rax
	movq	%rax, -88(%rbp)         # 8-byte Spill
	movq	%rax, %rsp
	movq	%rsp, %rax
	addq	$-16, %rax
	movq	%rax, -128(%rbp)        # 8-byte Spill
	movq	%rax, %rsp
	movq	%rsp, %rax
	addq	$-16, %rax
	movq	%rax, -104(%rbp)        # 8-byte Spill
	movq	%rax, %rsp
	movq	%rsp, %rax
	addq	$-16, %rax
	movq	%rax, -152(%rbp)        # 8-byte Spill
	movq	%rax, %rsp
	movq	%rsp, %rbx
	addq	$-16, %rbx
	movq	%rbx, %rsp
	movq	%rsp, %r13
	addq	$-16, %r13
	movq	%r13, %rsp
	movl	-44(%rbp), %eax         # 4-byte Reload
	movl	%eax, (%r14)
	movq	-64(%rbp), %rax         # 8-byte Reload
	movq	%rcx, -120(%rbp)        # 8-byte Spill
	movq	%rax, (%rcx)
	movq	-72(%rbp), %rax         # 8-byte Reload
	movq	%rdx, -112(%rbp)        # 8-byte Spill
	movq	%rax, (%rdx)
	movq	-80(%rbp), %rax         # 8-byte Reload
	movq	%rsi, -136(%rbp)        # 8-byte Spill
	movq	%rax, (%rsi)
	callq	__errno_location
	movl	(%rax), %eax
	movl	%eax, (%r12)
	movq	slotvec, %rax
	movq	%rax, (%r15)
	cmpl	$0, (%r14)
	setl	%al
	movl	x.15, %ecx
	movl	y.16, %edx
	movl	%ecx, %esi
	subl	$1, %esi
	imull	%esi, %ecx
	andl	$1, %ecx
	cmpl	$0, %ecx
	sete	%cl
	cmpl	$10, %edx
	setl	%dl
	orb	%dl, %cl
	testb	$1, %cl
	jne	.LBB8_2
	jmp	.LBB8_34
.LBB8_2:                                # %originalBBpart2
	movq	-128(%rbp), %r10        # 8-byte Reload
	movq	%r13, -144(%rbp)        # 8-byte Spill
	movq	%rbx, -96(%rbp)         # 8-byte Spill
	movq	-136(%rbp), %rdi        # 8-byte Reload
	movq	%r12, -160(%rbp)        # 8-byte Spill
	testb	$1, %al
	jne	.LBB8_3
	jmp	.LBB8_4
.LBB8_3:
	callq	abort
.LBB8_4:
	movl	x.15, %eax
	movl	y.16, %ecx
	movl	%eax, %edx
	subl	$1, %edx
	imull	%edx, %eax
	andl	$1, %eax
	cmpl	$0, %eax
	sete	%al
	cmpl	$10, %ecx
	setl	%cl
	orb	%cl, %al
	testb	$1, %al
	jne	.LBB8_5
	jmp	.LBB8_35
.LBB8_5:                                # %originalBB1
	movl	nslots, %eax
	cmpl	(%r14), %eax
	setle	%al
	movl	x.15, %ecx
	movl	y.16, %edx
	movl	%ecx, %esi
	subl	$1, %esi
	imull	%esi, %ecx
	andl	$1, %ecx
	cmpl	$0, %ecx
	sete	%cl
	cmpl	$10, %edx
	setl	%dl
	orb	%dl, %cl
	testb	$1, %cl
	jne	.LBB8_6
	jmp	.LBB8_35
.LBB8_6:                                # %originalBBpart24
	testb	$1, %al
	movq	%rdi, %r13
	movq	-112(%rbp), %r9         # 8-byte Reload
	movq	%r15, -56(%rbp)         # 8-byte Spill
	movq	%r10, %rbx
	jne	.LBB8_7
	jmp	.LBB8_23
.LBB8_7:
	movl	x.15, %eax
	movl	y.16, %ecx
	movl	%eax, %edx
	subl	$1, %edx
	imull	%edx, %eax
	andl	$1, %eax
	cmpl	$0, %eax
	sete	%al
	cmpl	$10, %ecx
	setl	%cl
	orb	%cl, %al
	testb	$1, %al
	movq	-88(%rbp), %rdi         # 8-byte Reload
	jne	.LBB8_8
	jmp	.LBB8_36
.LBB8_8:                                # %originalBB6
	movabsq	$slotvec0, %rax
	cmpq	%rax, (%r15)
	sete	%al
	andb	$1, %al
	movb	%al, (%rdi)
	movl	$2147483646, (%rbx)     # imm = 0x7FFFFFFE
	movl	(%rbx), %eax
	cmpl	(%r14), %eax
	setl	%al
	movl	x.15, %ecx
	movl	y.16, %edx
	movl	%ecx, %esi
	subl	$1, %esi
	imull	%esi, %ecx
	andl	$1, %ecx
	cmpl	$0, %ecx
	sete	%cl
	cmpl	$10, %edx
	setl	%dl
	orb	%dl, %cl
	testb	$1, %cl
	jne	.LBB8_9
	jmp	.LBB8_36
.LBB8_9:                                # %originalBBpart28
	testb	$1, %al
	jne	.LBB8_10
	jmp	.LBB8_13
.LBB8_10:
	movl	x.15, %eax
	movl	y.16, %ecx
	movl	%eax, %edx
	subl	$1, %edx
	imull	%edx, %eax
	andl	$1, %eax
	cmpl	$0, %eax
	sete	%al
	cmpl	$10, %ecx
	setl	%cl
	orb	%cl, %al
	testb	$1, %al
	jne	.LBB8_11
	jmp	.LBB8_37
.LBB8_11:                               # %originalBB10
	callq	xalloc_die
	movl	x.15, %eax
	movl	y.16, %ecx
	movl	%eax, %edx
	subl	$1, %edx
	imull	%edx, %eax
	andl	$1, %eax
	cmpl	$0, %eax
	sete	%al
	cmpl	$10, %ecx
	setl	%cl
	orb	%cl, %al
	testb	$1, %al
	jne	.LBB8_12
	jmp	.LBB8_37
.LBB8_12:                               # %originalBBpart212
.LBB8_13:
	movl	x.15, %eax
	movl	y.16, %ecx
	movl	%eax, %edx
	subl	$1, %edx
	imull	%edx, %eax
	andl	$1, %eax
	cmpl	$0, %eax
	sete	%al
	cmpl	$10, %ecx
	setl	%cl
	orb	%cl, %al
	testb	$1, %al
	jne	.LBB8_14
	jmp	.LBB8_38
.LBB8_14:                               # %originalBB14
	movb	(%rdi), %al
	movl	x.15, %ecx
	movl	y.16, %edx
	movl	%ecx, %esi
	subl	$1, %esi
	imull	%esi, %ecx
	andl	$1, %ecx
	cmpl	$0, %ecx
	sete	%cl
	cmpl	$10, %edx
	setl	%dl
	orb	%dl, %cl
	testb	$1, %cl
	jne	.LBB8_15
	jmp	.LBB8_38
.LBB8_15:                               # %originalBBpart216
	testb	$1, %al
	jne	.LBB8_16
	jmp	.LBB8_17
.LBB8_16:
	movq	%r9, %rbx
	xorl	%edi, %edi
	jmp	.LBB8_20
.LBB8_17:
	movl	x.15, %eax
	movl	y.16, %ecx
	movl	%eax, %edx
	subl	$1, %edx
	imull	%edx, %eax
	andl	$1, %eax
	cmpl	$0, %eax
	sete	%al
	cmpl	$10, %ecx
	setl	%cl
	orb	%cl, %al
	testb	$1, %al
	jne	.LBB8_18
	jmp	.LBB8_39
.LBB8_18:                               # %originalBB18
	movq	(%r15), %rdi
	movl	x.15, %eax
	movl	y.16, %ecx
	movl	%eax, %edx
	subl	$1, %edx
	imull	%edx, %eax
	andl	$1, %eax
	cmpl	$0, %eax
	sete	%al
	cmpl	$10, %ecx
	setl	%cl
	orb	%cl, %al
	testb	$1, %al
	jne	.LBB8_19
	jmp	.LBB8_39
.LBB8_19:                               # %originalBBpart220
	movq	%r9, %rbx
	jmp	.LBB8_20
.LBB8_20:
	movl	(%r14), %eax
	addl	$1, %eax
	movslq	%eax, %rsi
	shlq	$4, %rsi
	callq	xrealloc
	movq	-56(%rbp), %rdx         # 8-byte Reload
	movq	%rax, (%rdx)
	movq	%rax, slotvec
	movq	-88(%rbp), %rax         # 8-byte Reload
	testb	$1, (%rax)
	je	.LBB8_22
# %bb.21:
	movq	(%rdx), %rax
	movq	slotvec0, %rcx
	movq	%rcx, (%rax)
	movq	slotvec0+8, %rcx
	movq	%rcx, 8(%rax)
.LBB8_22:
	movq	(%rdx), %rdi
	movslq	nslots, %rax
	shlq	$4, %rax
	addq	%rax, %rdi
	movl	(%r14), %eax
	addl	$1, %eax
	subl	nslots, %eax
	movslq	%eax, %rdx
	shlq	$4, %rdx
	xorl	%esi, %esi
	callq	memset
	movq	-56(%rbp), %r15         # 8-byte Reload
	movl	(%r14), %eax
	addl	$1, %eax
	movl	%eax, nslots
	movq	%rbx, %r9
.LBB8_23:
	movq	(%r15), %rax
	movslq	(%r14), %rcx
	shlq	$4, %rcx
	addq	%rcx, %rax
	movq	(%rax), %rax
	movq	-104(%rbp), %r12        # 8-byte Reload
	movq	%rax, (%r12)
	movq	(%r15), %rax
	movslq	(%r14), %rcx
	shlq	$4, %rcx
	addq	%rcx, %rax
	movq	8(%rax), %rax
	movq	-152(%rbp), %r15        # 8-byte Reload
	movq	%rax, (%r15)
	movq	(%r13), %rax
	movl	4(%rax), %eax
	orl	$1, %eax
	movq	-96(%rbp), %rbx         # 8-byte Reload
	movl	%eax, (%rbx)
	movq	(%r15), %rdi
	movq	(%r12), %rsi
	movq	-120(%rbp), %rax        # 8-byte Reload
	movq	(%rax), %rdx
	movq	(%r9), %rcx
	movq	(%r13), %rax
	movl	(%rax), %r8d
	movl	(%rbx), %r9d
	movq	(%r13), %rax
	addq	$8, %rax
	movq	(%r13), %rbx
	movq	40(%rbx), %r10
	movq	(%r13), %rbx
	movq	48(%rbx), %rbx
	subq	$32, %rsp
	movq	%rax, (%rsp)
	movq	%r10, 8(%rsp)
	movq	%rbx, 16(%rsp)
	callq	quotearg_buffer_restyled
	movq	%r12, %rbx
	addq	$32, %rsp
	movq	-144(%rbp), %rdi        # 8-byte Reload
	movq	%rax, (%rdi)
	movq	(%rbx), %rax
	cmpq	(%rdi), %rax
	ja	.LBB8_31
# %bb.24:
	movl	x.15, %eax
	movl	y.16, %ecx
	movl	%eax, %edx
	subl	$1, %edx
	imull	%edx, %eax
	andl	$1, %eax
	cmpl	$0, %eax
	sete	%al
	cmpl	$10, %ecx
	setl	%cl
	orb	%cl, %al
	testb	$1, %al
	movq	-56(%rbp), %r8          # 8-byte Reload
	jne	.LBB8_25
	jmp	.LBB8_40
.LBB8_25:                               # %originalBB22
	movq	(%rdi), %rax
	addq	$1, %rax
	movq	%rax, (%rbx)
	movq	(%r8), %rcx
	movslq	(%r14), %rdx
	shlq	$4, %rdx
	addq	%rdx, %rcx
	movq	%rax, (%rcx)
	movabsq	$slot0, %rax
	cmpq	%rax, (%r15)
	setne	%al
	movl	x.15, %ecx
	movl	y.16, %edx
	movl	%ecx, %esi
	subl	$1, %esi
	imull	%esi, %ecx
	andl	$1, %ecx
	cmpl	$0, %ecx
	sete	%cl
	cmpl	$10, %edx
	setl	%dl
	orb	%dl, %cl
	testb	$1, %cl
	jne	.LBB8_26
	jmp	.LBB8_40
.LBB8_26:                               # %originalBBpart227
	testb	$1, %al
	movq	-96(%rbp), %r12         # 8-byte Reload
	jne	.LBB8_27
	jmp	.LBB8_30
.LBB8_27:
	movl	x.15, %eax
	movl	y.16, %ecx
	movl	%eax, %edx
	subl	$1, %edx
	imull	%edx, %eax
	andl	$1, %eax
	cmpl	$0, %eax
	sete	%al
	cmpl	$10, %ecx
	setl	%cl
	orb	%cl, %al
	testb	$1, %al
	jne	.LBB8_28
	jmp	.LBB8_41
.LBB8_28:                               # %originalBB29
	movq	(%r15), %rdi
	callq	free
	movl	x.15, %eax
	movl	y.16, %ecx
	movl	%eax, %edx
	subl	$1, %edx
	imull	%edx, %eax
	andl	$1, %eax
	cmpl	$0, %eax
	sete	%al
	cmpl	$10, %ecx
	setl	%cl
	orb	%cl, %al
	testb	$1, %al
	jne	.LBB8_29
	jmp	.LBB8_41
.LBB8_29:                               # %originalBBpart231
	movq	-104(%rbp), %rbx        # 8-byte Reload
	jmp	.LBB8_30
.LBB8_30:
	movq	(%rbx), %rdi
	callq	xcharalloc
	movq	%rax, (%r15)
	movq	-56(%rbp), %rcx         # 8-byte Reload
	movq	(%rcx), %rcx
	movslq	(%r14), %rdx
	shlq	$4, %rdx
	addq	%rdx, %rcx
	movq	%rax, 8(%rcx)
	movq	(%r15), %rdi
	movq	(%rbx), %rsi
	movq	-120(%rbp), %rax        # 8-byte Reload
	movq	(%rax), %rdx
	movq	-112(%rbp), %rax        # 8-byte Reload
	movq	(%rax), %rcx
	movq	(%r13), %rax
	movl	(%rax), %r8d
	movl	(%r12), %r9d
	movq	(%r13), %rax
	addq	$8, %rax
	movq	(%r13), %rbx
	movq	40(%rbx), %r10
	movq	(%r13), %rbx
	movq	48(%rbx), %rbx
	subq	$32, %rsp
	movq	%rax, (%rsp)
	movq	%r10, 8(%rsp)
	movq	%rbx, 16(%rsp)
	callq	quotearg_buffer_restyled
	addq	$32, %rsp
.LBB8_31:
	movl	x.15, %eax
	movl	y.16, %ecx
	movl	%eax, %edx
	subl	$1, %edx
	imull	%edx, %eax
	andl	$1, %eax
	cmpl	$0, %eax
	sete	%al
	cmpl	$10, %ecx
	setl	%cl
	orb	%cl, %al
	testb	$1, %al
	movq	-160(%rbp), %r14        # 8-byte Reload
	jne	.LBB8_32
	jmp	.LBB8_42
.LBB8_32:                               # %originalBB33
	movl	(%r14), %ebx
	callq	__errno_location
	movl	%ebx, (%rax)
	movq	(%r15), %rax
	movl	x.15, %ecx
	movl	y.16, %edx
	movl	%ecx, %esi
	subl	$1, %esi
	imull	%esi, %ecx
	andl	$1, %ecx
	cmpl	$0, %ecx
	sete	%cl
	cmpl	$10, %edx
	setl	%dl
	orb	%dl, %cl
	testb	$1, %cl
	jne	.LBB8_33
	jmp	.LBB8_42
.LBB8_33:                               # %originalBBpart235
	leaq	-40(%rbp), %rsp
	popq	%rbx
	popq	%r12
	popq	%r13
	popq	%r14
	popq	%r15
	popq	%rbp
	.cfi_def_cfa %rsp, 8
	retq
.LBB8_34:                               # %originalBBalteredBB
	.cfi_def_cfa %rbp, 16
	movq	%rsp, %rax
	addq	$-16, %rax
	movq	%rax, %rsp
	movq	%rsp, %rcx
	addq	$-16, %rcx
	movq	%rcx, %rsp
	movq	%rsp, %rdx
	addq	$-16, %rdx
	movq	%rdx, %rsp
	movq	%rsp, %rsi
	addq	$-16, %rsi
	movq	%rsi, %rsp
	movq	%rsp, %r14
	addq	$-16, %r14
	movq	%r14, %rsp
	movq	%rsp, %rbx
	addq	$-16, %rbx
	movq	%rbx, %rsp
	movl	-44(%rbp), %edi         # 4-byte Reload
	movl	%edi, (%rax)
	movq	-64(%rbp), %rax         # 8-byte Reload
	movq	%rax, (%rcx)
	movq	-72(%rbp), %rax         # 8-byte Reload
	movq	%rax, (%rdx)
	movq	-80(%rbp), %rax         # 8-byte Reload
	movq	%rax, (%rsi)
	callq	__errno_location
	movl	(%rax), %eax
	movl	%eax, (%r14)
	movq	slotvec, %rax
	movq	%rax, (%rbx)
	jmp	.LBB8_1
.LBB8_35:                               # %originalBB1alteredBB
	jmp	.LBB8_5
.LBB8_36:                               # %originalBB6alteredBB
	movabsq	$slotvec0, %rax
	cmpq	%rax, (%r15)
	sete	%al
	andb	$1, %al
	movb	%al, (%rdi)
	movl	$2147483646, (%rbx)     # imm = 0x7FFFFFFE
	jmp	.LBB8_8
.LBB8_37:                               # %originalBB10alteredBB
	callq	xalloc_die
	jmp	.LBB8_11
.LBB8_38:                               # %originalBB14alteredBB
	jmp	.LBB8_14
.LBB8_39:                               # %originalBB18alteredBB
	jmp	.LBB8_18
.LBB8_40:                               # %originalBB22alteredBB
	movq	(%rdi), %rax
	addq	$1, %rax
	movq	%rax, (%rbx)
	movq	(%r8), %rcx
	movslq	(%r14), %rdx
	shlq	$4, %rdx
	addq	%rdx, %rcx
	movq	%rax, (%rcx)
	jmp	.LBB8_25
.LBB8_41:                               # %originalBB29alteredBB
	movq	(%r15), %rdi
	callq	free
	jmp	.LBB8_28
.LBB8_42:                               # %originalBB33alteredBB
	movl	(%r14), %ebx
	callq	__errno_location
	movl	%ebx, (%rax)
	jmp	.LBB8_32
.Lfunc_end8:
	.size	quotearg_n_options, .Lfunc_end8-quotearg_n_options
	.cfi_endproc
                                        # -- End function
	.p2align	4, 0x90         # -- Begin function quotearg_buffer_restyled
	.type	quotearg_buffer_restyled,@function
quotearg_buffer_restyled:               # @quotearg_buffer_restyled
	.cfi_startproc
# %bb.0:
	pushq	%rbp
	.cfi_def_cfa_offset 16
	.cfi_offset %rbp, -16
	movq	%rsp, %rbp
	.cfi_def_cfa_register %rbp
	pushq	%r15
	pushq	%r14
	pushq	%r13
	pushq	%r12
	pushq	%rbx
	subq	$376, %rsp              # imm = 0x178
	.cfi_offset %rbx, -56
	.cfi_offset %r12, -48
	.cfi_offset %r13, -40
	.cfi_offset %r14, -32
	.cfi_offset %r15, -24
	movl	%r9d, -216(%rbp)        # 4-byte Spill
	movl	%r8d, -212(%rbp)        # 4-byte Spill
	movq	%rcx, -320(%rbp)        # 8-byte Spill
	movq	%rdx, -312(%rbp)        # 8-byte Spill
	movq	%rsi, -304(%rbp)        # 8-byte Spill
	movq	%rdi, -296(%rbp)        # 8-byte Spill
	movl	x.17, %eax
	movl	y.18, %ecx
	movl	%eax, %edx
	subl	$1, %edx
	imull	%edx, %eax
	andl	$1, %eax
	cmpl	$0, %eax
	sete	%al
	cmpl	$10, %ecx
	setl	%cl
	orb	%cl, %al
	testb	$1, %al
	jne	.LBB9_1
	jmp	.LBB9_760
.LBB9_1:                                # %originalBB
	movq	%rsp, %rax
	addq	$-16, %rax
	movq	%rax, -288(%rbp)        # 8-byte Spill
	movq	%rax, %rsp
	movq	%rsp, %rcx
	addq	$-16, %rcx
	movq	%rcx, %rsp
	movq	%rsp, %rax
	addq	$-16, %rax
	movq	%rax, -56(%rbp)         # 8-byte Spill
	movq	%rax, %rsp
	movq	%rsp, %rax
	addq	$-16, %rax
	movq	%rax, -64(%rbp)         # 8-byte Spill
	movq	%rax, %rsp
	movq	%rsp, %rax
	addq	$-16, %rax
	movq	%rax, -120(%rbp)        # 8-byte Spill
	movq	%rax, %rsp
	movq	%rsp, %r12
	addq	$-16, %r12
	movq	%r12, %rsp
	movq	%rsp, %rax
	addq	$-16, %rax
	movq	%rax, -72(%rbp)         # 8-byte Spill
	movq	%rax, %rsp
	movq	%rsp, %rax
	addq	$-16, %rax
	movq	%rax, -176(%rbp)        # 8-byte Spill
	movq	%rax, %rsp
	movq	%rsp, %r10
	addq	$-16, %r10
	movq	%r10, %rsp
	movq	%rsp, %r9
	addq	$-16, %r9
	movq	%r9, %rsp
	movq	%rsp, %rax
	addq	$-16, %rax
	movq	%rax, -240(%rbp)        # 8-byte Spill
	movq	%rax, %rsp
	movq	%rsp, %r8
	addq	$-16, %r8
	movq	%r8, %rsp
	movq	%rsp, %rdi
	addq	$-16, %rdi
	movq	%rdi, %rsp
	movq	%rsp, %r11
	addq	$-16, %r11
	movq	%r11, %rsp
	movq	%rsp, %rsi
	addq	$-16, %rsi
	movq	%rsi, %rsp
	movq	%rsp, %rdx
	addq	$-16, %rdx
	movq	%rdx, %rsp
	movq	%rsp, %rax
	addq	$-16, %rax
	movq	%rax, -152(%rbp)        # 8-byte Spill
	movq	%rax, %rsp
	movq	%rsp, %rax
	addq	$-16, %rax
	movq	%rax, -248(%rbp)        # 8-byte Spill
	movq	%rax, %rsp
	movq	%rsp, %rax
	addq	$-16, %rax
	movq	%rax, -96(%rbp)         # 8-byte Spill
	movq	%rax, %rsp
	movq	%rsp, %rax
	addq	$-16, %rax
	movq	%rax, -224(%rbp)        # 8-byte Spill
	movq	%rax, %rsp
	movq	%rsp, %rax
	addq	$-16, %rax
	movq	%rax, -280(%rbp)        # 8-byte Spill
	movq	%rax, %rsp
	movq	%rsp, %rax
	addq	$-16, %rax
	movq	%rax, -104(%rbp)        # 8-byte Spill
	movq	%rax, %rsp
	movq	%rsp, %rax
	addq	$-16, %rax
	movq	%rax, -136(%rbp)        # 8-byte Spill
	movq	%rax, %rsp
	movq	%rsp, %rax
	addq	$-16, %rax
	movq	%rax, -192(%rbp)        # 8-byte Spill
	movq	%rax, %rsp
	movq	%rsp, %rax
	addq	$-16, %rax
	movq	%rax, -184(%rbp)        # 8-byte Spill
	movq	%rax, %rsp
	movq	%rsp, %rax
	addq	$-16, %rax
	movq	%rax, -144(%rbp)        # 8-byte Spill
	movq	%rax, %rsp
	movq	%rsp, %rax
	addq	$-16, %rax
	movq	%rax, -128(%rbp)        # 8-byte Spill
	movq	%rax, %rsp
	movq	%rsp, %rax
	addq	$-16, %rax
	movq	%rax, -160(%rbp)        # 8-byte Spill
	movq	%rax, %rsp
	movq	%rsp, %rax
	addq	$-16, %rax
	movq	%rax, -272(%rbp)        # 8-byte Spill
	movq	%rax, %rsp
	movq	%rsp, %r15
	addq	$-16, %r15
	movq	%r15, %rsp
	movq	%rsp, %rbx
	addq	$-16, %rbx
	movq	%rbx, %rsp
	movq	%rsp, %r13
	addq	$-16, %r13
	movq	%r13, %rsp
	movq	%rsp, %r14
	addq	$-16, %r14
	movq	%r14, %rsp
	movq	-296(%rbp), %rax        # 8-byte Reload
	movq	%rcx, -112(%rbp)        # 8-byte Spill
	movq	%rax, (%rcx)
	movq	-304(%rbp), %rax        # 8-byte Reload
	movq	-56(%rbp), %rcx         # 8-byte Reload
	movq	%rax, (%rcx)
	movq	-312(%rbp), %rax        # 8-byte Reload
	movq	-64(%rbp), %rcx         # 8-byte Reload
	movq	%rax, (%rcx)
	movq	-320(%rbp), %rax        # 8-byte Reload
	movq	-120(%rbp), %rcx        # 8-byte Reload
	movq	%rax, (%rcx)
	movl	-212(%rbp), %eax        # 4-byte Reload
	movq	%r12, -232(%rbp)        # 8-byte Spill
	movl	%eax, (%r12)
	movl	-216(%rbp), %eax        # 4-byte Reload
	movq	-72(%rbp), %r12         # 8-byte Reload
	movl	%eax, (%r12)
	movq	16(%rbp), %rax
	movq	-176(%rbp), %rcx        # 8-byte Reload
	movq	%rax, (%rcx)
	movq	24(%rbp), %rax
	movq	%r10, -208(%rbp)        # 8-byte Spill
	movq	%rax, (%r10)
	movq	32(%rbp), %rax
	movq	%r9, -80(%rbp)          # 8-byte Spill
	movq	%rax, (%r9)
	movq	%r8, -48(%rbp)          # 8-byte Spill
	movq	$0, (%r8)
	movq	%rdi, -200(%rbp)        # 8-byte Spill
	movq	$0, (%rdi)
	movq	%r11, -256(%rbp)        # 8-byte Spill
	movq	$0, (%r11)
	movq	%rsi, -168(%rbp)        # 8-byte Spill
	movq	$0, (%rsi)
	movq	%rdx, -88(%rbp)         # 8-byte Spill
	movb	$0, (%rdx)
	callq	__ctype_get_mb_cur_max
	movq	-280(%rbp), %rsi        # 8-byte Reload
	movq	-224(%rbp), %rdi        # 8-byte Reload
	movq	-96(%rbp), %rdx         # 8-byte Reload
	movq	-248(%rbp), %r11        # 8-byte Reload
	movq	-152(%rbp), %r8         # 8-byte Reload
	cmpq	$1, %rax
	sete	%al
	andb	$1, %al
	movb	%al, (%r8)
	movl	(%r12), %eax
	andl	$2, %eax
	cmpl	$0, %eax
	setne	%al
	andb	$1, %al
	movb	%al, (%r11)
	movb	$0, (%rdx)
	movb	$0, (%rdi)
	movb	$1, (%rsi)
	movl	x.17, %eax
	movl	y.18, %ecx
	movl	%eax, %edx
	subl	$1, %edx
	imull	%edx, %eax
	andl	$1, %eax
	cmpl	$0, %eax
	sete	%al
	cmpl	$10, %ecx
	setl	%cl
	orb	%cl, %al
	testb	$1, %al
	jne	.LBB9_2
	jmp	.LBB9_760
.LBB9_2:                                # %originalBBpart2
	movq	%r14, -328(%rbp)        # 8-byte Spill
	movq	%r13, -336(%rbp)        # 8-byte Spill
	movq	%rbx, -264(%rbp)        # 8-byte Spill
	movq	%r15, -344(%rbp)        # 8-byte Spill
	movq	-120(%rbp), %r10        # 8-byte Reload
	movq	-112(%rbp), %r15        # 8-byte Reload
	movq	-256(%rbp), %rdi        # 8-byte Reload
	movq	-232(%rbp), %r9         # 8-byte Reload
	movq	-176(%rbp), %r12        # 8-byte Reload
	movq	-240(%rbp), %r13        # 8-byte Reload
	movq	-144(%rbp), %r14        # 8-byte Reload
	jmp	.LBB9_3
.LBB9_3:                                # =>This Loop Header: Depth=1
                                        #     Child Loop BB9_30 Depth 2
                                        #     Child Loop BB9_72 Depth 2
                                        #       Child Loop BB9_377 Depth 3
                                        #         Child Loop BB9_405 Depth 4
                                        #       Child Loop BB9_389 Depth 3
                                        #       Child Loop BB9_442 Depth 3
	movl	(%r9), %eax
	movq	%rax, %rcx
	subq	$10, %rcx
	ja	.LBB9_66
# %bb.4:                                #   in Loop: Header=BB9_3 Depth=1
	movq	.LJTI9_0(,%rax,8), %rax
	jmpq	*%rax
.LBB9_5:                                #   in Loop: Header=BB9_3 Depth=1
	movl	x.17, %eax
	movl	y.18, %ecx
	movl	%eax, %edx
	subl	$1, %edx
	imull	%edx, %eax
	andl	$1, %eax
	cmpl	$0, %eax
	sete	%al
	cmpl	$10, %ecx
	setl	%cl
	orb	%cl, %al
	testb	$1, %al
	jne	.LBB9_6
	jmp	.LBB9_761
.LBB9_6:                                # %originalBB5
                                        #   in Loop: Header=BB9_3 Depth=1
	movl	$5, (%r9)
	movb	$1, (%r11)
	movl	x.17, %eax
	movl	y.18, %ecx
	movl	%eax, %edx
	subl	$1, %edx
	imull	%edx, %eax
	andl	$1, %eax
	cmpl	$0, %eax
	sete	%al
	cmpl	$10, %ecx
	setl	%cl
	orb	%cl, %al
	testb	$1, %al
	jne	.LBB9_7
	jmp	.LBB9_761
.LBB9_7:                                # %originalBBpart27
                                        #   in Loop: Header=BB9_3 Depth=1
	jmp	.LBB9_8
.LBB9_8:                                #   in Loop: Header=BB9_3 Depth=1
	testb	$1, (%r11)
	jne	.LBB9_16
# %bb.9:                                #   in Loop: Header=BB9_3 Depth=1
	jmp	.LBB9_10
.LBB9_10:                               #   in Loop: Header=BB9_3 Depth=1
	movq	-48(%rbp), %rax         # 8-byte Reload
	movq	(%rax), %rax
	movq	-56(%rbp), %rcx         # 8-byte Reload
	cmpq	(%rcx), %rax
	jae	.LBB9_12
# %bb.11:                               #   in Loop: Header=BB9_3 Depth=1
	movq	(%r15), %rax
	movq	-48(%rbp), %rcx         # 8-byte Reload
	movq	(%rcx), %rcx
	movb	$34, (%rax,%rcx)
.LBB9_12:                               #   in Loop: Header=BB9_3 Depth=1
	movq	-48(%rbp), %rcx         # 8-byte Reload
	movq	(%rcx), %rax
	addq	$1, %rax
	movq	%rax, (%rcx)
# %bb.13:                               #   in Loop: Header=BB9_3 Depth=1
	movl	x.17, %eax
	movl	y.18, %ecx
	movl	%eax, %edx
	subl	$1, %edx
	imull	%edx, %eax
	andl	$1, %eax
	cmpl	$0, %eax
	sete	%al
	cmpl	$10, %ecx
	setl	%cl
	orb	%cl, %al
	testb	$1, %al
	jne	.LBB9_14
	jmp	.LBB9_762
.LBB9_14:                               # %originalBB9
                                        #   in Loop: Header=BB9_3 Depth=1
	movl	x.17, %eax
	movl	y.18, %ecx
	movl	%eax, %edx
	subl	$1, %edx
	imull	%edx, %eax
	andl	$1, %eax
	cmpl	$0, %eax
	sete	%al
	cmpl	$10, %ecx
	setl	%cl
	orb	%cl, %al
	testb	$1, %al
	jne	.LBB9_15
	jmp	.LBB9_762
.LBB9_15:                               # %originalBBpart211
                                        #   in Loop: Header=BB9_3 Depth=1
	jmp	.LBB9_16
.LBB9_16:                               #   in Loop: Header=BB9_3 Depth=1
	movq	-88(%rbp), %rax         # 8-byte Reload
	movb	$1, (%rax)
	movabsq	$.L.str.10.52, %rax
	movq	%rax, (%rdi)
	movq	-168(%rbp), %rax        # 8-byte Reload
	movq	$1, (%rax)
	jmp	.LBB9_69
.LBB9_17:                               #   in Loop: Header=BB9_3 Depth=1
	movl	x.17, %eax
	movl	y.18, %ecx
	movl	%eax, %edx
	subl	$1, %edx
	imull	%edx, %eax
	andl	$1, %eax
	cmpl	$0, %eax
	sete	%al
	cmpl	$10, %ecx
	setl	%cl
	orb	%cl, %al
	testb	$1, %al
	jne	.LBB9_18
	jmp	.LBB9_763
.LBB9_18:                               # %originalBB13
                                        #   in Loop: Header=BB9_3 Depth=1
	movq	-88(%rbp), %rax         # 8-byte Reload
	movb	$1, (%rax)
	movb	$0, (%r11)
	movl	x.17, %eax
	movl	y.18, %ecx
	movl	%eax, %edx
	subl	$1, %edx
	imull	%edx, %eax
	andl	$1, %eax
	cmpl	$0, %eax
	sete	%al
	cmpl	$10, %ecx
	setl	%cl
	orb	%cl, %al
	testb	$1, %al
	jne	.LBB9_19
	jmp	.LBB9_763
.LBB9_19:                               # %originalBBpart215
                                        #   in Loop: Header=BB9_3 Depth=1
	jmp	.LBB9_69
.LBB9_20:                               #   in Loop: Header=BB9_3 Depth=1
	movl	x.17, %eax
	movl	y.18, %ecx
	movl	%eax, %edx
	subl	$1, %edx
	imull	%edx, %eax
	andl	$1, %eax
	cmpl	$0, %eax
	sete	%al
	cmpl	$10, %ecx
	setl	%cl
	orb	%cl, %al
	testb	$1, %al
	jne	.LBB9_21
	jmp	.LBB9_764
.LBB9_21:                               # %originalBB17
                                        #   in Loop: Header=BB9_3 Depth=1
	cmpl	$10, (%r9)
	setne	%al
	movl	x.17, %ecx
	movl	y.18, %edx
	movl	%ecx, %esi
	subl	$1, %esi
	imull	%esi, %ecx
	andl	$1, %ecx
	cmpl	$0, %ecx
	sete	%cl
	cmpl	$10, %edx
	setl	%dl
	orb	%dl, %cl
	testb	$1, %cl
	jne	.LBB9_22
	jmp	.LBB9_764
.LBB9_22:                               # %originalBBpart219
                                        #   in Loop: Header=BB9_3 Depth=1
	testb	$1, %al
	jne	.LBB9_23
	jmp	.LBB9_24
.LBB9_23:                               #   in Loop: Header=BB9_3 Depth=1
	movl	(%r9), %esi
	movabsq	$.L.str.11.53, %rdi
	movq	%r10, %r15
	movq	%r9, %rbx
	movq	%r12, %r14
	movq	%r11, %r12
	callq	gettext_quote
	movq	-208(%rbp), %rcx        # 8-byte Reload
	movq	%rax, (%rcx)
	movl	(%rbx), %esi
	movabsq	$.L.str.12.54, %rdi
	callq	gettext_quote
	movq	-256(%rbp), %rdi        # 8-byte Reload
	movq	%r12, %r11
	movq	%r14, %r12
	movq	%rbx, %r9
	movq	%r15, %r10
	movq	-80(%rbp), %rcx         # 8-byte Reload
	movq	%rax, (%rcx)
.LBB9_24:                               #   in Loop: Header=BB9_3 Depth=1
	movl	x.17, %eax
	movl	y.18, %ecx
	movl	%eax, %edx
	subl	$1, %edx
	imull	%edx, %eax
	andl	$1, %eax
	cmpl	$0, %eax
	sete	%al
	cmpl	$10, %ecx
	setl	%cl
	orb	%cl, %al
	testb	$1, %al
	jne	.LBB9_25
	jmp	.LBB9_765
.LBB9_25:                               # %originalBB21
                                        #   in Loop: Header=BB9_3 Depth=1
	movb	(%r11), %al
	movl	x.17, %ecx
	movl	y.18, %edx
	movl	%ecx, %esi
	subl	$1, %esi
	imull	%esi, %ecx
	andl	$1, %ecx
	cmpl	$0, %ecx
	sete	%cl
	cmpl	$10, %edx
	setl	%dl
	orb	%dl, %cl
	testb	$1, %cl
	jne	.LBB9_26
	jmp	.LBB9_765
.LBB9_26:                               # %originalBBpart223
                                        #   in Loop: Header=BB9_3 Depth=1
	movq	%r9, %r13
	movq	%r10, %r15
	testb	$1, %al
	jne	.LBB9_44
	jmp	.LBB9_27
.LBB9_27:                               #   in Loop: Header=BB9_3 Depth=1
	movl	x.17, %eax
	movl	y.18, %ecx
	movl	%eax, %edx
	subl	$1, %edx
	imull	%edx, %eax
	andl	$1, %eax
	cmpl	$0, %eax
	sete	%al
	cmpl	$10, %ecx
	setl	%cl
	orb	%cl, %al
	testb	$1, %al
	movq	-208(%rbp), %rsi        # 8-byte Reload
	jne	.LBB9_28
	jmp	.LBB9_766
.LBB9_28:                               # %originalBB25
                                        #   in Loop: Header=BB9_3 Depth=1
	movq	(%rsi), %rax
	movq	%rax, (%rdi)
	movl	x.17, %eax
	movl	y.18, %ecx
	movl	%eax, %edx
	subl	$1, %edx
	imull	%edx, %eax
	andl	$1, %eax
	cmpl	$0, %eax
	sete	%al
	cmpl	$10, %ecx
	setl	%cl
	orb	%cl, %al
	testb	$1, %al
	jne	.LBB9_29
	jmp	.LBB9_766
.LBB9_29:                               # %originalBBpart227
                                        #   in Loop: Header=BB9_3 Depth=1
	jmp	.LBB9_30
.LBB9_30:                               #   Parent Loop BB9_3 Depth=1
                                        # =>  This Inner Loop Header: Depth=2
	movl	x.17, %eax
	movl	y.18, %ecx
	movl	%eax, %edx
	subl	$1, %edx
	imull	%edx, %eax
	andl	$1, %eax
	cmpl	$0, %eax
	sete	%al
	cmpl	$10, %ecx
	setl	%cl
	orb	%cl, %al
	testb	$1, %al
	jne	.LBB9_31
	jmp	.LBB9_767
.LBB9_31:                               # %originalBB29
                                        #   in Loop: Header=BB9_30 Depth=2
	movq	(%rdi), %rax
	cmpb	$0, (%rax)
	setne	%al
	movl	x.17, %ecx
	movl	y.18, %edx
	movl	%ecx, %esi
	subl	$1, %esi
	imull	%esi, %ecx
	andl	$1, %ecx
	cmpl	$0, %ecx
	sete	%cl
	cmpl	$10, %edx
	setl	%dl
	orb	%dl, %cl
	testb	$1, %cl
	jne	.LBB9_32
	jmp	.LBB9_767
.LBB9_32:                               # %originalBBpart231
                                        #   in Loop: Header=BB9_30 Depth=2
	testb	$1, %al
	jne	.LBB9_33
	jmp	.LBB9_43
.LBB9_33:                               #   in Loop: Header=BB9_30 Depth=2
	jmp	.LBB9_34
.LBB9_34:                               #   in Loop: Header=BB9_30 Depth=2
	movl	x.17, %eax
	movl	y.18, %ecx
	movl	%eax, %edx
	subl	$1, %edx
	imull	%edx, %eax
	andl	$1, %eax
	cmpl	$0, %eax
	sete	%al
	cmpl	$10, %ecx
	setl	%cl
	orb	%cl, %al
	testb	$1, %al
	jne	.LBB9_35
	jmp	.LBB9_768
.LBB9_35:                               # %originalBB33
                                        #   in Loop: Header=BB9_30 Depth=2
	movq	-48(%rbp), %rax         # 8-byte Reload
	movq	(%rax), %rax
	movq	-56(%rbp), %rcx         # 8-byte Reload
	cmpq	(%rcx), %rax
	setb	%al
	movl	x.17, %ecx
	movl	y.18, %edx
	movl	%ecx, %esi
	subl	$1, %esi
	imull	%esi, %ecx
	andl	$1, %ecx
	cmpl	$0, %ecx
	sete	%cl
	cmpl	$10, %edx
	setl	%dl
	orb	%dl, %cl
	testb	$1, %cl
	jne	.LBB9_36
	jmp	.LBB9_768
.LBB9_36:                               # %originalBBpart235
                                        #   in Loop: Header=BB9_30 Depth=2
	testb	$1, %al
	jne	.LBB9_37
	jmp	.LBB9_38
.LBB9_37:                               #   in Loop: Header=BB9_30 Depth=2
	movq	(%rdi), %rax
	movb	(%rax), %al
	movq	-112(%rbp), %rcx        # 8-byte Reload
	movq	(%rcx), %rcx
	movq	-48(%rbp), %rdx         # 8-byte Reload
	movq	(%rdx), %rdx
	movb	%al, (%rcx,%rdx)
.LBB9_38:                               #   in Loop: Header=BB9_30 Depth=2
	movl	x.17, %eax
	movl	y.18, %ecx
	movl	%eax, %edx
	subl	$1, %edx
	imull	%edx, %eax
	andl	$1, %eax
	cmpl	$0, %eax
	sete	%al
	cmpl	$10, %ecx
	setl	%cl
	orb	%cl, %al
	testb	$1, %al
	jne	.LBB9_39
	jmp	.LBB9_769
.LBB9_39:                               # %originalBB37
                                        #   in Loop: Header=BB9_30 Depth=2
	movq	-48(%rbp), %rcx         # 8-byte Reload
	movq	(%rcx), %rax
	addq	$1, %rax
	movq	%rax, (%rcx)
	movl	x.17, %eax
	movl	y.18, %ecx
	movl	%eax, %edx
	subl	$1, %edx
	imull	%edx, %eax
	andl	$1, %eax
	cmpl	$0, %eax
	sete	%al
	cmpl	$10, %ecx
	setl	%cl
	orb	%cl, %al
	testb	$1, %al
	jne	.LBB9_40
	jmp	.LBB9_769
.LBB9_40:                               # %originalBBpart242
                                        #   in Loop: Header=BB9_30 Depth=2
	jmp	.LBB9_41
.LBB9_41:                               #   in Loop: Header=BB9_30 Depth=2
	jmp	.LBB9_42
.LBB9_42:                               #   in Loop: Header=BB9_30 Depth=2
	movq	(%rdi), %rax
	addq	$1, %rax
	movq	%rax, (%rdi)
	jmp	.LBB9_30
.LBB9_43:                               #   in Loop: Header=BB9_3 Depth=1
	jmp	.LBB9_44
.LBB9_44:                               #   in Loop: Header=BB9_3 Depth=1
	movq	-88(%rbp), %rax         # 8-byte Reload
	movb	$1, (%rax)
	movq	-80(%rbp), %rax         # 8-byte Reload
	movq	(%rax), %rax
	movq	%rax, (%rdi)
	movq	%rdi, %rbx
	movq	(%rbx), %rdi
	callq	strlen
	movq	%rbx, %rdi
	movq	-168(%rbp), %rcx        # 8-byte Reload
	movq	%rax, (%rcx)
	movq	%r15, %r10
	movq	-112(%rbp), %r15        # 8-byte Reload
	movq	%r13, %r9
	movq	-248(%rbp), %r11        # 8-byte Reload
	movq	-240(%rbp), %r13        # 8-byte Reload
	movq	-152(%rbp), %r8         # 8-byte Reload
	movq	-144(%rbp), %r14        # 8-byte Reload
	jmp	.LBB9_69
.LBB9_45:                               #   in Loop: Header=BB9_3 Depth=1
	movq	-88(%rbp), %rax         # 8-byte Reload
	movb	$1, (%rax)
.LBB9_46:                               #   in Loop: Header=BB9_3 Depth=1
	movb	$1, (%r11)
.LBB9_47:                               #   in Loop: Header=BB9_3 Depth=1
	testb	$1, (%r11)
	jne	.LBB9_51
# %bb.48:                               #   in Loop: Header=BB9_3 Depth=1
	movl	x.17, %eax
	movl	y.18, %ecx
	movl	%eax, %edx
	subl	$1, %edx
	imull	%edx, %eax
	andl	$1, %eax
	cmpl	$0, %eax
	sete	%al
	cmpl	$10, %ecx
	setl	%cl
	orb	%cl, %al
	testb	$1, %al
	jne	.LBB9_49
	jmp	.LBB9_770
.LBB9_49:                               # %originalBB44
                                        #   in Loop: Header=BB9_3 Depth=1
	movq	-88(%rbp), %rax         # 8-byte Reload
	movb	$1, (%rax)
	movl	x.17, %eax
	movl	y.18, %ecx
	movl	%eax, %edx
	subl	$1, %edx
	imull	%edx, %eax
	andl	$1, %eax
	cmpl	$0, %eax
	sete	%al
	cmpl	$10, %ecx
	setl	%cl
	orb	%cl, %al
	testb	$1, %al
	jne	.LBB9_50
	jmp	.LBB9_770
.LBB9_50:                               # %originalBBpart246
                                        #   in Loop: Header=BB9_3 Depth=1
	jmp	.LBB9_51
.LBB9_51:                               #   in Loop: Header=BB9_3 Depth=1
	movl	x.17, %eax
	movl	y.18, %ecx
	movl	%eax, %edx
	subl	$1, %edx
	imull	%edx, %eax
	andl	$1, %eax
	cmpl	$0, %eax
	sete	%al
	cmpl	$10, %ecx
	setl	%cl
	orb	%cl, %al
	testb	$1, %al
	jne	.LBB9_52
	jmp	.LBB9_771
.LBB9_52:                               # %originalBB48
                                        #   in Loop: Header=BB9_3 Depth=1
	movl	x.17, %eax
	movl	y.18, %ecx
	movl	%eax, %edx
	subl	$1, %edx
	imull	%edx, %eax
	andl	$1, %eax
	cmpl	$0, %eax
	sete	%al
	cmpl	$10, %ecx
	setl	%cl
	orb	%cl, %al
	testb	$1, %al
	jne	.LBB9_53
	jmp	.LBB9_771
.LBB9_53:                               # %originalBBpart250
                                        #   in Loop: Header=BB9_3 Depth=1
	jmp	.LBB9_54
.LBB9_54:                               #   in Loop: Header=BB9_3 Depth=1
	movl	$2, (%r9)
	testb	$1, (%r11)
	jne	.LBB9_64
# %bb.55:                               #   in Loop: Header=BB9_3 Depth=1
	jmp	.LBB9_56
.LBB9_56:                               #   in Loop: Header=BB9_3 Depth=1
	movl	x.17, %eax
	movl	y.18, %ecx
	movl	%eax, %edx
	subl	$1, %edx
	imull	%edx, %eax
	andl	$1, %eax
	cmpl	$0, %eax
	sete	%al
	cmpl	$10, %ecx
	setl	%cl
	orb	%cl, %al
	testb	$1, %al
	jne	.LBB9_57
	jmp	.LBB9_772
.LBB9_57:                               # %originalBB52
                                        #   in Loop: Header=BB9_3 Depth=1
	movq	-48(%rbp), %rax         # 8-byte Reload
	movq	(%rax), %rax
	movq	-56(%rbp), %rcx         # 8-byte Reload
	cmpq	(%rcx), %rax
	setb	%al
	movl	x.17, %ecx
	movl	y.18, %edx
	movl	%ecx, %esi
	subl	$1, %esi
	imull	%esi, %ecx
	andl	$1, %ecx
	cmpl	$0, %ecx
	sete	%cl
	cmpl	$10, %edx
	setl	%dl
	orb	%dl, %cl
	testb	$1, %cl
	jne	.LBB9_58
	jmp	.LBB9_772
.LBB9_58:                               # %originalBBpart254
                                        #   in Loop: Header=BB9_3 Depth=1
	testb	$1, %al
	jne	.LBB9_59
	jmp	.LBB9_60
.LBB9_59:                               #   in Loop: Header=BB9_3 Depth=1
	movq	(%r15), %rax
	movq	-48(%rbp), %rcx         # 8-byte Reload
	movq	(%rcx), %rcx
	movb	$39, (%rax,%rcx)
.LBB9_60:                               #   in Loop: Header=BB9_3 Depth=1
	movl	x.17, %eax
	movl	y.18, %ecx
	movl	%eax, %edx
	subl	$1, %edx
	imull	%edx, %eax
	andl	$1, %eax
	cmpl	$0, %eax
	sete	%al
	cmpl	$10, %ecx
	setl	%cl
	orb	%cl, %al
	testb	$1, %al
	jne	.LBB9_61
	jmp	.LBB9_773
.LBB9_61:                               # %originalBB56
                                        #   in Loop: Header=BB9_3 Depth=1
	movq	-48(%rbp), %rcx         # 8-byte Reload
	movq	(%rcx), %rax
	addq	$1, %rax
	movq	%rax, (%rcx)
	movl	x.17, %eax
	movl	y.18, %ecx
	movl	%eax, %edx
	subl	$1, %edx
	imull	%edx, %eax
	andl	$1, %eax
	cmpl	$0, %eax
	sete	%al
	cmpl	$10, %ecx
	setl	%cl
	orb	%cl, %al
	testb	$1, %al
	jne	.LBB9_62
	jmp	.LBB9_773
.LBB9_62:                               # %originalBBpart270
                                        #   in Loop: Header=BB9_3 Depth=1
	jmp	.LBB9_63
.LBB9_63:                               #   in Loop: Header=BB9_3 Depth=1
	jmp	.LBB9_64
.LBB9_64:                               #   in Loop: Header=BB9_3 Depth=1
	movabsq	$.L.str.12.54, %rax
	movq	%rax, (%rdi)
	movq	-168(%rbp), %rax        # 8-byte Reload
	movq	$1, (%rax)
	jmp	.LBB9_69
.LBB9_65:                               #   in Loop: Header=BB9_3 Depth=1
	movb	$0, (%r11)
	jmp	.LBB9_69
.LBB9_66:
	movl	x.17, %eax
	movl	y.18, %ecx
	movl	%eax, %edx
	subl	$1, %edx
	imull	%edx, %eax
	andl	$1, %eax
	cmpl	$0, %eax
	sete	%al
	cmpl	$10, %ecx
	setl	%cl
	orb	%cl, %al
	testb	$1, %al
	jne	.LBB9_67
	jmp	.LBB9_774
.LBB9_67:                               # %originalBB72
	callq	abort
	movl	x.17, %eax
	movl	y.18, %ecx
	movl	%eax, %edx
	subl	$1, %edx
	imull	%edx, %eax
	andl	$1, %eax
	cmpl	$0, %eax
	sete	%al
	cmpl	$10, %ecx
	setl	%cl
	orb	%cl, %al
	testb	$1, %al
	jne	.LBB9_68
	jmp	.LBB9_774
.LBB9_68:                               # %originalBBpart274
.LBB9_69:                               #   in Loop: Header=BB9_3 Depth=1
	movl	x.17, %eax
	movl	y.18, %ecx
	movl	%eax, %edx
	subl	$1, %edx
	imull	%edx, %eax
	andl	$1, %eax
	cmpl	$0, %eax
	sete	%al
	cmpl	$10, %ecx
	setl	%cl
	orb	%cl, %al
	testb	$1, %al
	jne	.LBB9_70
	jmp	.LBB9_775
.LBB9_70:                               # %originalBB76
                                        #   in Loop: Header=BB9_3 Depth=1
	movq	$0, (%r13)
	movl	x.17, %eax
	movl	y.18, %ecx
	movl	%eax, %edx
	subl	$1, %edx
	imull	%edx, %eax
	andl	$1, %eax
	cmpl	$0, %eax
	sete	%al
	cmpl	$10, %ecx
	setl	%cl
	orb	%cl, %al
	testb	$1, %al
	jne	.LBB9_71
	jmp	.LBB9_775
.LBB9_71:                               # %originalBBpart278
                                        #   in Loop: Header=BB9_3 Depth=1
	jmp	.LBB9_72
.LBB9_72:                               #   Parent Loop BB9_3 Depth=1
                                        # =>  This Loop Header: Depth=2
                                        #       Child Loop BB9_377 Depth 3
                                        #         Child Loop BB9_405 Depth 4
                                        #       Child Loop BB9_389 Depth 3
                                        #       Child Loop BB9_442 Depth 3
	cmpq	$-1, (%r10)
	jne	.LBB9_76
# %bb.73:                               #   in Loop: Header=BB9_72 Depth=2
	movl	x.17, %eax
	movl	y.18, %ecx
	movl	%eax, %edx
	subl	$1, %edx
	imull	%edx, %eax
	andl	$1, %eax
	cmpl	$0, %eax
	sete	%al
	cmpl	$10, %ecx
	setl	%cl
	orb	%cl, %al
	testb	$1, %al
	jne	.LBB9_74
	jmp	.LBB9_776
.LBB9_74:                               # %originalBB80
                                        #   in Loop: Header=BB9_72 Depth=2
	movq	-64(%rbp), %rax         # 8-byte Reload
	movq	(%rax), %rax
	movq	(%r13), %rcx
	movsbl	(%rax,%rcx), %eax
	cmpl	$0, %eax
	sete	%al
	andb	$1, %al
	movzbl	%al, %eax
	movl	x.17, %ecx
	movl	y.18, %edx
	movl	%ecx, %esi
	subl	$1, %esi
	imull	%esi, %ecx
	andl	$1, %ecx
	cmpl	$0, %ecx
	sete	%cl
	cmpl	$10, %edx
	setl	%dl
	orb	%dl, %cl
	testb	$1, %cl
	jne	.LBB9_75
	jmp	.LBB9_776
.LBB9_75:                               # %originalBBpart282
                                        #   in Loop: Header=BB9_72 Depth=2
	jmp	.LBB9_77
.LBB9_76:                               #   in Loop: Header=BB9_72 Depth=2
	movq	(%r13), %rax
	cmpq	(%r10), %rax
	sete	%al
	andb	$1, %al
	movzbl	%al, %eax
.LBB9_77:                               #   in Loop: Header=BB9_72 Depth=2
	cmpl	$0, %eax
	setne	%al
	xorb	$-1, %al
	testb	$1, %al
	jne	.LBB9_78
	jmp	.LBB9_682
.LBB9_78:                               #   in Loop: Header=BB9_72 Depth=2
	movq	-192(%rbp), %rax        # 8-byte Reload
	movb	$0, (%rax)
	movq	-184(%rbp), %rax        # 8-byte Reload
	movb	$0, (%rax)
	movb	$0, (%r14)
	movq	-88(%rbp), %rax         # 8-byte Reload
	testb	$1, (%rax)
	je	.LBB9_98
# %bb.79:                               #   in Loop: Header=BB9_72 Depth=2
	movl	x.17, %eax
	movl	y.18, %ecx
	movl	%eax, %edx
	subl	$1, %edx
	imull	%edx, %eax
	andl	$1, %eax
	cmpl	$0, %eax
	sete	%al
	cmpl	$10, %ecx
	setl	%cl
	orb	%cl, %al
	testb	$1, %al
	jne	.LBB9_80
	jmp	.LBB9_777
.LBB9_80:                               # %originalBB84
                                        #   in Loop: Header=BB9_72 Depth=2
	cmpl	$2, (%r9)
	setne	%al
	movl	x.17, %ecx
	movl	y.18, %edx
	movl	%ecx, %esi
	subl	$1, %esi
	imull	%esi, %ecx
	andl	$1, %ecx
	cmpl	$0, %ecx
	sete	%cl
	cmpl	$10, %edx
	setl	%dl
	orb	%dl, %cl
	testb	$1, %cl
	jne	.LBB9_81
	jmp	.LBB9_777
.LBB9_81:                               # %originalBBpart286
                                        #   in Loop: Header=BB9_72 Depth=2
	testb	$1, %al
	jne	.LBB9_82
	jmp	.LBB9_98
.LBB9_82:                               #   in Loop: Header=BB9_72 Depth=2
	movl	x.17, %eax
	movl	y.18, %ecx
	movl	%eax, %edx
	subl	$1, %edx
	imull	%edx, %eax
	andl	$1, %eax
	cmpl	$0, %eax
	sete	%al
	cmpl	$10, %ecx
	setl	%cl
	orb	%cl, %al
	testb	$1, %al
	jne	.LBB9_83
	jmp	.LBB9_778
.LBB9_83:                               # %originalBB88
                                        #   in Loop: Header=BB9_72 Depth=2
	movq	-168(%rbp), %rax        # 8-byte Reload
	cmpq	$0, (%rax)
	setne	%al
	movl	x.17, %ecx
	movl	y.18, %edx
	movl	%ecx, %esi
	subl	$1, %esi
	imull	%esi, %ecx
	andl	$1, %ecx
	cmpl	$0, %ecx
	sete	%cl
	cmpl	$10, %edx
	setl	%dl
	orb	%dl, %cl
	testb	$1, %cl
	jne	.LBB9_84
	jmp	.LBB9_778
.LBB9_84:                               # %originalBBpart290
                                        #   in Loop: Header=BB9_72 Depth=2
	testb	$1, %al
	jne	.LBB9_85
	jmp	.LBB9_98
.LBB9_85:                               #   in Loop: Header=BB9_72 Depth=2
	movq	%r12, %r15
	movq	(%r13), %r14
	movq	-168(%rbp), %rcx        # 8-byte Reload
	addq	(%rcx), %r14
	cmpq	$-1, (%r10)
	jne	.LBB9_88
# %bb.86:                               #   in Loop: Header=BB9_72 Depth=2
	movl	$1, %eax
	cmpq	(%rcx), %rax
	jae	.LBB9_88
# %bb.87:                               #   in Loop: Header=BB9_72 Depth=2
	movq	-64(%rbp), %rax         # 8-byte Reload
	movq	(%rax), %rdi
	movq	%r10, %rbx
	movq	%r9, %r12
	movq	%r11, %r13
	callq	strlen
	movq	%r13, %r11
	movq	-240(%rbp), %r13        # 8-byte Reload
	movq	%r12, %r9
	movq	%rbx, %r10
	movq	%rax, (%rbx)
	jmp	.LBB9_91
.LBB9_88:                               #   in Loop: Header=BB9_72 Depth=2
	movl	x.17, %eax
	movl	y.18, %ecx
	movl	%eax, %edx
	subl	$1, %edx
	imull	%edx, %eax
	andl	$1, %eax
	cmpl	$0, %eax
	sete	%al
	cmpl	$10, %ecx
	setl	%cl
	orb	%cl, %al
	testb	$1, %al
	jne	.LBB9_89
	jmp	.LBB9_779
.LBB9_89:                               # %originalBB92
                                        #   in Loop: Header=BB9_72 Depth=2
	movq	(%r10), %rax
	movl	x.17, %ecx
	movl	y.18, %edx
	movl	%ecx, %esi
	subl	$1, %esi
	imull	%esi, %ecx
	andl	$1, %ecx
	cmpl	$0, %ecx
	sete	%cl
	cmpl	$10, %edx
	setl	%dl
	orb	%dl, %cl
	testb	$1, %cl
	jne	.LBB9_90
	jmp	.LBB9_779
.LBB9_90:                               # %originalBBpart294
                                        #   in Loop: Header=BB9_72 Depth=2
	jmp	.LBB9_91
.LBB9_91:                               #   in Loop: Header=BB9_72 Depth=2
	movl	x.17, %ecx
	movl	y.18, %edx
	movl	%ecx, %esi
	subl	$1, %esi
	imull	%esi, %ecx
	andl	$1, %ecx
	cmpl	$0, %ecx
	sete	%cl
	cmpl	$10, %edx
	setl	%dl
	orb	%dl, %cl
	testb	$1, %cl
	jne	.LBB9_92
	jmp	.LBB9_780
.LBB9_92:                               # %originalBB96
                                        #   in Loop: Header=BB9_72 Depth=2
	cmpq	%rax, %r14
	setbe	%cl
	movl	x.17, %edx
	movl	y.18, %esi
	movl	%edx, %edi
	subl	$1, %edi
	imull	%edi, %edx
	andl	$1, %edx
	cmpl	$0, %edx
	sete	%dl
	cmpl	$10, %esi
	setl	%bl
	orb	%bl, %dl
	testb	$1, %dl
	jne	.LBB9_93
	jmp	.LBB9_780
.LBB9_93:                               # %originalBBpart298
                                        #   in Loop: Header=BB9_72 Depth=2
	testb	$1, %cl
	movq	-112(%rbp), %rax        # 8-byte Reload
	movq	-256(%rbp), %rdi        # 8-byte Reload
	movq	-152(%rbp), %r8         # 8-byte Reload
	movq	-144(%rbp), %r14        # 8-byte Reload
	movq	%r15, %r12
	movq	%rax, %r15
	jne	.LBB9_94
	jmp	.LBB9_98
.LBB9_94:                               #   in Loop: Header=BB9_72 Depth=2
	movq	%rdi, %r14
	movq	-64(%rbp), %rax         # 8-byte Reload
	movq	(%rax), %rdi
	addq	(%r13), %rdi
	movq	(%r14), %rsi
	movq	-168(%rbp), %rax        # 8-byte Reload
	movq	(%rax), %rdx
	movq	%r10, %r15
	movq	%r9, %rbx
	movq	%r12, %r13
	movq	%r11, %r12
	callq	memcmp
	movq	%r14, %rdi
	movq	-144(%rbp), %r14        # 8-byte Reload
	movq	%r12, %r11
	movq	%r13, %r12
	movq	-240(%rbp), %r13        # 8-byte Reload
	movq	%rbx, %r9
	movq	-152(%rbp), %r8         # 8-byte Reload
	movq	%r15, %r10
	movq	-112(%rbp), %r15        # 8-byte Reload
	cmpl	$0, %eax
	jne	.LBB9_98
# %bb.95:                               #   in Loop: Header=BB9_72 Depth=2
	testb	$1, (%r11)
	je	.LBB9_97
# %bb.96:
	movq	%r15, %rdi
	movq	-72(%rbp), %r11         # 8-byte Reload
	movq	-80(%rbp), %r10         # 8-byte Reload
	movq	-64(%rbp), %rbx         # 8-byte Reload
	jmp	.LBB9_749
.LBB9_97:                               #   in Loop: Header=BB9_72 Depth=2
	movq	-192(%rbp), %rax        # 8-byte Reload
	movb	$1, (%rax)
.LBB9_98:                               #   in Loop: Header=BB9_72 Depth=2
	movq	-64(%rbp), %rax         # 8-byte Reload
	movq	(%rax), %rax
	movq	(%r13), %rcx
	movb	(%rax,%rcx), %al
	movq	-104(%rbp), %rcx        # 8-byte Reload
	movb	%al, (%rcx)
	movzbl	(%rcx), %eax
	movq	%rax, %rcx
	subq	$126, %rcx
	ja	.LBB9_368
# %bb.99:                               #   in Loop: Header=BB9_72 Depth=2
	movq	.LJTI9_1(,%rax,8), %rax
	jmpq	*%rax
.LBB9_100:                              #   in Loop: Header=BB9_72 Depth=2
	movq	-88(%rbp), %rax         # 8-byte Reload
	testb	$1, (%rax)
	je	.LBB9_182
# %bb.101:                              #   in Loop: Header=BB9_72 Depth=2
	jmp	.LBB9_102
.LBB9_102:                              #   in Loop: Header=BB9_72 Depth=2
	movl	x.17, %eax
	movl	y.18, %ecx
	movl	%eax, %edx
	subl	$1, %edx
	imull	%edx, %eax
	andl	$1, %eax
	cmpl	$0, %eax
	sete	%al
	cmpl	$10, %ecx
	setl	%cl
	orb	%cl, %al
	testb	$1, %al
	jne	.LBB9_103
	jmp	.LBB9_781
.LBB9_103:                              # %originalBB100
                                        #   in Loop: Header=BB9_72 Depth=2
	movb	(%r11), %al
	movl	x.17, %ecx
	movl	y.18, %edx
	movl	%ecx, %esi
	subl	$1, %esi
	imull	%esi, %ecx
	andl	$1, %ecx
	cmpl	$0, %ecx
	sete	%cl
	cmpl	$10, %edx
	setl	%dl
	orb	%dl, %cl
	testb	$1, %cl
	jne	.LBB9_104
	jmp	.LBB9_781
.LBB9_104:                              # %originalBBpart2102
                                        #   in Loop: Header=BB9_72 Depth=2
	testb	$1, %al
	jne	.LBB9_105
	jmp	.LBB9_108
.LBB9_105:
	movq	%r15, %rdi
	movl	x.17, %eax
	movl	y.18, %ecx
	movl	%eax, %edx
	subl	$1, %edx
	imull	%edx, %eax
	andl	$1, %eax
	cmpl	$0, %eax
	sete	%al
	cmpl	$10, %ecx
	setl	%cl
	orb	%cl, %al
	testb	$1, %al
	jne	.LBB9_106
	jmp	.LBB9_782
.LBB9_106:                              # %originalBB104
	movl	x.17, %eax
	movl	y.18, %ecx
	movl	%eax, %edx
	subl	$1, %edx
	imull	%edx, %eax
	andl	$1, %eax
	cmpl	$0, %eax
	sete	%al
	cmpl	$10, %ecx
	setl	%cl
	orb	%cl, %al
	testb	$1, %al
	jne	.LBB9_107
	jmp	.LBB9_782
.LBB9_107:                              # %originalBBpart2106
	movq	-72(%rbp), %r11         # 8-byte Reload
	movq	-80(%rbp), %r10         # 8-byte Reload
	movq	-64(%rbp), %rbx         # 8-byte Reload
	jmp	.LBB9_749
.LBB9_108:                              #   in Loop: Header=BB9_72 Depth=2
	movq	-184(%rbp), %rax        # 8-byte Reload
	movb	$1, (%rax)
	cmpl	$2, (%r9)
	jne	.LBB9_143
# %bb.109:                              #   in Loop: Header=BB9_72 Depth=2
	movq	-96(%rbp), %rax         # 8-byte Reload
	testb	$1, (%rax)
	jne	.LBB9_143
# %bb.110:                              #   in Loop: Header=BB9_72 Depth=2
	movl	x.17, %eax
	movl	y.18, %ecx
	movl	%eax, %edx
	subl	$1, %edx
	imull	%edx, %eax
	andl	$1, %eax
	cmpl	$0, %eax
	sete	%al
	cmpl	$10, %ecx
	setl	%cl
	orb	%cl, %al
	testb	$1, %al
	jne	.LBB9_111
	jmp	.LBB9_783
.LBB9_111:                              # %originalBB108
                                        #   in Loop: Header=BB9_72 Depth=2
	movl	x.17, %eax
	movl	y.18, %ecx
	movl	%eax, %edx
	subl	$1, %edx
	imull	%edx, %eax
	andl	$1, %eax
	cmpl	$0, %eax
	sete	%al
	cmpl	$10, %ecx
	setl	%cl
	orb	%cl, %al
	testb	$1, %al
	jne	.LBB9_112
	jmp	.LBB9_783
.LBB9_112:                              # %originalBBpart2110
                                        #   in Loop: Header=BB9_72 Depth=2
	jmp	.LBB9_113
.LBB9_113:                              #   in Loop: Header=BB9_72 Depth=2
	movq	-48(%rbp), %rax         # 8-byte Reload
	movq	(%rax), %rax
	movq	-56(%rbp), %rcx         # 8-byte Reload
	cmpq	(%rcx), %rax
	jae	.LBB9_117
# %bb.114:                              #   in Loop: Header=BB9_72 Depth=2
	movl	x.17, %eax
	movl	y.18, %ecx
	movl	%eax, %edx
	subl	$1, %edx
	imull	%edx, %eax
	andl	$1, %eax
	cmpl	$0, %eax
	sete	%al
	cmpl	$10, %ecx
	setl	%cl
	orb	%cl, %al
	testb	$1, %al
	jne	.LBB9_115
	jmp	.LBB9_784
.LBB9_115:                              # %originalBB112
                                        #   in Loop: Header=BB9_72 Depth=2
	movq	(%r15), %rax
	movq	-48(%rbp), %rcx         # 8-byte Reload
	movq	(%rcx), %rcx
	movb	$39, (%rax,%rcx)
	movl	x.17, %eax
	movl	y.18, %ecx
	movl	%eax, %edx
	subl	$1, %edx
	imull	%edx, %eax
	andl	$1, %eax
	cmpl	$0, %eax
	sete	%al
	cmpl	$10, %ecx
	setl	%cl
	orb	%cl, %al
	testb	$1, %al
	jne	.LBB9_116
	jmp	.LBB9_784
.LBB9_116:                              # %originalBBpart2114
                                        #   in Loop: Header=BB9_72 Depth=2
	jmp	.LBB9_117
.LBB9_117:                              #   in Loop: Header=BB9_72 Depth=2
	movl	x.17, %eax
	movl	y.18, %ecx
	movl	%eax, %edx
	subl	$1, %edx
	imull	%edx, %eax
	andl	$1, %eax
	cmpl	$0, %eax
	sete	%al
	cmpl	$10, %ecx
	setl	%cl
	orb	%cl, %al
	testb	$1, %al
	jne	.LBB9_118
	jmp	.LBB9_785
.LBB9_118:                              # %originalBB116
                                        #   in Loop: Header=BB9_72 Depth=2
	movq	-48(%rbp), %rcx         # 8-byte Reload
	movq	(%rcx), %rax
	addq	$1, %rax
	movq	%rax, (%rcx)
	movl	x.17, %eax
	movl	y.18, %ecx
	movl	%eax, %edx
	subl	$1, %edx
	imull	%edx, %eax
	andl	$1, %eax
	cmpl	$0, %eax
	sete	%al
	cmpl	$10, %ecx
	setl	%cl
	orb	%cl, %al
	testb	$1, %al
	jne	.LBB9_119
	jmp	.LBB9_785
.LBB9_119:                              # %originalBBpart2127
                                        #   in Loop: Header=BB9_72 Depth=2
	jmp	.LBB9_120
.LBB9_120:                              #   in Loop: Header=BB9_72 Depth=2
	movl	x.17, %eax
	movl	y.18, %ecx
	movl	%eax, %edx
	subl	$1, %edx
	imull	%edx, %eax
	andl	$1, %eax
	cmpl	$0, %eax
	sete	%al
	cmpl	$10, %ecx
	setl	%cl
	orb	%cl, %al
	testb	$1, %al
	jne	.LBB9_121
	jmp	.LBB9_786
.LBB9_121:                              # %originalBB129
                                        #   in Loop: Header=BB9_72 Depth=2
	movl	x.17, %eax
	movl	y.18, %ecx
	movl	%eax, %edx
	subl	$1, %edx
	imull	%edx, %eax
	andl	$1, %eax
	cmpl	$0, %eax
	sete	%al
	cmpl	$10, %ecx
	setl	%cl
	orb	%cl, %al
	testb	$1, %al
	jne	.LBB9_122
	jmp	.LBB9_786
.LBB9_122:                              # %originalBBpart2131
                                        #   in Loop: Header=BB9_72 Depth=2
	jmp	.LBB9_123
.LBB9_123:                              #   in Loop: Header=BB9_72 Depth=2
	movl	x.17, %eax
	movl	y.18, %ecx
	movl	%eax, %edx
	subl	$1, %edx
	imull	%edx, %eax
	andl	$1, %eax
	cmpl	$0, %eax
	sete	%al
	cmpl	$10, %ecx
	setl	%cl
	orb	%cl, %al
	testb	$1, %al
	jne	.LBB9_124
	jmp	.LBB9_787
.LBB9_124:                              # %originalBB133
                                        #   in Loop: Header=BB9_72 Depth=2
	movq	-48(%rbp), %rax         # 8-byte Reload
	movq	(%rax), %rax
	movq	-56(%rbp), %rcx         # 8-byte Reload
	cmpq	(%rcx), %rax
	setb	%al
	movl	x.17, %ecx
	movl	y.18, %edx
	movl	%ecx, %esi
	subl	$1, %esi
	imull	%esi, %ecx
	andl	$1, %ecx
	cmpl	$0, %ecx
	sete	%cl
	cmpl	$10, %edx
	setl	%dl
	orb	%dl, %cl
	testb	$1, %cl
	jne	.LBB9_125
	jmp	.LBB9_787
.LBB9_125:                              # %originalBBpart2135
                                        #   in Loop: Header=BB9_72 Depth=2
	testb	$1, %al
	jne	.LBB9_126
	jmp	.LBB9_129
.LBB9_126:                              #   in Loop: Header=BB9_72 Depth=2
	movl	x.17, %eax
	movl	y.18, %ecx
	movl	%eax, %edx
	subl	$1, %edx
	imull	%edx, %eax
	andl	$1, %eax
	cmpl	$0, %eax
	sete	%al
	cmpl	$10, %ecx
	setl	%cl
	orb	%cl, %al
	testb	$1, %al
	jne	.LBB9_127
	jmp	.LBB9_788
.LBB9_127:                              # %originalBB137
                                        #   in Loop: Header=BB9_72 Depth=2
	movq	(%r15), %rax
	movq	-48(%rbp), %rcx         # 8-byte Reload
	movq	(%rcx), %rcx
	movb	$36, (%rax,%rcx)
	movl	x.17, %eax
	movl	y.18, %ecx
	movl	%eax, %edx
	subl	$1, %edx
	imull	%edx, %eax
	andl	$1, %eax
	cmpl	$0, %eax
	sete	%al
	cmpl	$10, %ecx
	setl	%cl
	orb	%cl, %al
	testb	$1, %al
	jne	.LBB9_128
	jmp	.LBB9_788
.LBB9_128:                              # %originalBBpart2139
                                        #   in Loop: Header=BB9_72 Depth=2
	jmp	.LBB9_129
.LBB9_129:                              #   in Loop: Header=BB9_72 Depth=2
	movl	x.17, %eax
	movl	y.18, %ecx
	movl	%eax, %edx
	subl	$1, %edx
	imull	%edx, %eax
	andl	$1, %eax
	cmpl	$0, %eax
	sete	%al
	cmpl	$10, %ecx
	setl	%cl
	orb	%cl, %al
	testb	$1, %al
	jne	.LBB9_130
	jmp	.LBB9_789
.LBB9_130:                              # %originalBB141
                                        #   in Loop: Header=BB9_72 Depth=2
	movq	-48(%rbp), %rcx         # 8-byte Reload
	movq	(%rcx), %rax
	addq	$1, %rax
	movq	%rax, (%rcx)
	movl	x.17, %eax
	movl	y.18, %ecx
	movl	%eax, %edx
	subl	$1, %edx
	imull	%edx, %eax
	andl	$1, %eax
	cmpl	$0, %eax
	sete	%al
	cmpl	$10, %ecx
	setl	%cl
	orb	%cl, %al
	testb	$1, %al
	jne	.LBB9_131
	jmp	.LBB9_789
.LBB9_131:                              # %originalBBpart2155
                                        #   in Loop: Header=BB9_72 Depth=2
	jmp	.LBB9_132
.LBB9_132:                              #   in Loop: Header=BB9_72 Depth=2
	movl	x.17, %eax
	movl	y.18, %ecx
	movl	%eax, %edx
	subl	$1, %edx
	imull	%edx, %eax
	andl	$1, %eax
	cmpl	$0, %eax
	sete	%al
	cmpl	$10, %ecx
	setl	%cl
	orb	%cl, %al
	testb	$1, %al
	jne	.LBB9_133
	jmp	.LBB9_790
.LBB9_133:                              # %originalBB157
                                        #   in Loop: Header=BB9_72 Depth=2
	movl	x.17, %eax
	movl	y.18, %ecx
	movl	%eax, %edx
	subl	$1, %edx
	imull	%edx, %eax
	andl	$1, %eax
	cmpl	$0, %eax
	sete	%al
	cmpl	$10, %ecx
	setl	%cl
	orb	%cl, %al
	testb	$1, %al
	jne	.LBB9_134
	jmp	.LBB9_790
.LBB9_134:                              # %originalBBpart2159
                                        #   in Loop: Header=BB9_72 Depth=2
	jmp	.LBB9_135
.LBB9_135:                              #   in Loop: Header=BB9_72 Depth=2
	movl	x.17, %eax
	movl	y.18, %ecx
	movl	%eax, %edx
	subl	$1, %edx
	imull	%edx, %eax
	andl	$1, %eax
	cmpl	$0, %eax
	sete	%al
	cmpl	$10, %ecx
	setl	%cl
	orb	%cl, %al
	testb	$1, %al
	jne	.LBB9_136
	jmp	.LBB9_791
.LBB9_136:                              # %originalBB161
                                        #   in Loop: Header=BB9_72 Depth=2
	movq	-48(%rbp), %rax         # 8-byte Reload
	movq	(%rax), %rax
	movq	-56(%rbp), %rcx         # 8-byte Reload
	cmpq	(%rcx), %rax
	setb	%al
	movl	x.17, %ecx
	movl	y.18, %edx
	movl	%ecx, %esi
	subl	$1, %esi
	imull	%esi, %ecx
	andl	$1, %ecx
	cmpl	$0, %ecx
	sete	%cl
	cmpl	$10, %edx
	setl	%dl
	orb	%dl, %cl
	testb	$1, %cl
	jne	.LBB9_137
	jmp	.LBB9_791
.LBB9_137:                              # %originalBBpart2163
                                        #   in Loop: Header=BB9_72 Depth=2
	testb	$1, %al
	jne	.LBB9_138
	jmp	.LBB9_139
.LBB9_138:                              #   in Loop: Header=BB9_72 Depth=2
	movq	(%r15), %rax
	movq	-48(%rbp), %rcx         # 8-byte Reload
	movq	(%rcx), %rcx
	movb	$39, (%rax,%rcx)
.LBB9_139:                              #   in Loop: Header=BB9_72 Depth=2
	movl	x.17, %eax
	movl	y.18, %ecx
	movl	%eax, %edx
	subl	$1, %edx
	imull	%edx, %eax
	andl	$1, %eax
	cmpl	$0, %eax
	sete	%al
	cmpl	$10, %ecx
	setl	%cl
	orb	%cl, %al
	testb	$1, %al
	jne	.LBB9_140
	jmp	.LBB9_792
.LBB9_140:                              # %originalBB165
                                        #   in Loop: Header=BB9_72 Depth=2
	movq	-48(%rbp), %rcx         # 8-byte Reload
	movq	(%rcx), %rax
	addq	$1, %rax
	movq	%rax, (%rcx)
	movl	x.17, %eax
	movl	y.18, %ecx
	movl	%eax, %edx
	subl	$1, %edx
	imull	%edx, %eax
	andl	$1, %eax
	cmpl	$0, %eax
	sete	%al
	cmpl	$10, %ecx
	setl	%cl
	orb	%cl, %al
	testb	$1, %al
	jne	.LBB9_141
	jmp	.LBB9_792
.LBB9_141:                              # %originalBBpart2182
                                        #   in Loop: Header=BB9_72 Depth=2
	jmp	.LBB9_142
.LBB9_142:                              #   in Loop: Header=BB9_72 Depth=2
	movq	-96(%rbp), %rax         # 8-byte Reload
	movb	$1, (%rax)
.LBB9_143:                              #   in Loop: Header=BB9_72 Depth=2
	jmp	.LBB9_144
.LBB9_144:                              #   in Loop: Header=BB9_72 Depth=2
	movq	-48(%rbp), %rax         # 8-byte Reload
	movq	(%rax), %rax
	movq	-56(%rbp), %rcx         # 8-byte Reload
	cmpq	(%rcx), %rax
	jae	.LBB9_146
# %bb.145:                              #   in Loop: Header=BB9_72 Depth=2
	movq	(%r15), %rax
	movq	-48(%rbp), %rcx         # 8-byte Reload
	movq	(%rcx), %rcx
	movb	$92, (%rax,%rcx)
.LBB9_146:                              #   in Loop: Header=BB9_72 Depth=2
	movq	-48(%rbp), %rcx         # 8-byte Reload
	movq	(%rcx), %rax
	addq	$1, %rax
	movq	%rax, (%rcx)
# %bb.147:                              #   in Loop: Header=BB9_72 Depth=2
	jmp	.LBB9_148
.LBB9_148:                              #   in Loop: Header=BB9_72 Depth=2
	movl	x.17, %eax
	movl	y.18, %ecx
	movl	%eax, %edx
	subl	$1, %edx
	imull	%edx, %eax
	andl	$1, %eax
	cmpl	$0, %eax
	sete	%al
	cmpl	$10, %ecx
	setl	%cl
	orb	%cl, %al
	testb	$1, %al
	jne	.LBB9_149
	jmp	.LBB9_793
.LBB9_149:                              # %originalBB184
                                        #   in Loop: Header=BB9_72 Depth=2
	cmpl	$2, (%r9)
	setne	%al
	movl	x.17, %ecx
	movl	y.18, %edx
	movl	%ecx, %esi
	subl	$1, %esi
	imull	%esi, %ecx
	andl	$1, %ecx
	cmpl	$0, %ecx
	sete	%cl
	cmpl	$10, %edx
	setl	%dl
	orb	%dl, %cl
	testb	$1, %cl
	jne	.LBB9_150
	jmp	.LBB9_793
.LBB9_150:                              # %originalBBpart2186
                                        #   in Loop: Header=BB9_72 Depth=2
	testb	$1, %al
	jne	.LBB9_151
	jmp	.LBB9_179
.LBB9_151:                              #   in Loop: Header=BB9_72 Depth=2
	movl	x.17, %eax
	movl	y.18, %ecx
	movl	%eax, %edx
	subl	$1, %edx
	imull	%edx, %eax
	andl	$1, %eax
	cmpl	$0, %eax
	sete	%al
	cmpl	$10, %ecx
	setl	%cl
	orb	%cl, %al
	testb	$1, %al
	jne	.LBB9_152
	jmp	.LBB9_794
.LBB9_152:                              # %originalBB188
                                        #   in Loop: Header=BB9_72 Depth=2
	movq	(%r13), %rax
	addq	$1, %rax
	cmpq	(%r10), %rax
	setb	%al
	movl	x.17, %ecx
	movl	y.18, %edx
	movl	%ecx, %esi
	subl	$1, %esi
	imull	%esi, %ecx
	andl	$1, %ecx
	cmpl	$0, %ecx
	sete	%cl
	cmpl	$10, %edx
	setl	%dl
	orb	%dl, %cl
	testb	$1, %cl
	jne	.LBB9_153
	jmp	.LBB9_794
.LBB9_153:                              # %originalBBpart2194
                                        #   in Loop: Header=BB9_72 Depth=2
	testb	$1, %al
	jne	.LBB9_154
	jmp	.LBB9_179
.LBB9_154:                              #   in Loop: Header=BB9_72 Depth=2
	movq	-64(%rbp), %rax         # 8-byte Reload
	movq	(%rax), %rax
	movq	(%r13), %rcx
	movsbl	1(%rax,%rcx), %eax
	movl	$48, %ecx
	cmpl	%eax, %ecx
	jg	.LBB9_179
# %bb.155:                              #   in Loop: Header=BB9_72 Depth=2
	movl	x.17, %eax
	movl	y.18, %ecx
	movl	%eax, %edx
	subl	$1, %edx
	imull	%edx, %eax
	andl	$1, %eax
	cmpl	$0, %eax
	sete	%al
	cmpl	$10, %ecx
	setl	%cl
	orb	%cl, %al
	testb	$1, %al
	jne	.LBB9_156
	jmp	.LBB9_795
.LBB9_156:                              # %originalBB196
                                        #   in Loop: Header=BB9_72 Depth=2
	movq	-64(%rbp), %rax         # 8-byte Reload
	movq	(%rax), %rax
	movq	(%r13), %rcx
	movsbl	1(%rax,%rcx), %eax
	cmpl	$57, %eax
	setle	%al
	movl	x.17, %ecx
	movl	y.18, %edx
	movl	%ecx, %esi
	subl	$1, %esi
	imull	%esi, %ecx
	andl	$1, %ecx
	cmpl	$0, %ecx
	sete	%cl
	cmpl	$10, %edx
	setl	%dl
	orb	%dl, %cl
	testb	$1, %cl
	jne	.LBB9_157
	jmp	.LBB9_795
.LBB9_157:                              # %originalBBpart2207
                                        #   in Loop: Header=BB9_72 Depth=2
	testb	$1, %al
	jne	.LBB9_158
	jmp	.LBB9_179
.LBB9_158:                              #   in Loop: Header=BB9_72 Depth=2
	movl	x.17, %eax
	movl	y.18, %ecx
	movl	%eax, %edx
	subl	$1, %edx
	imull	%edx, %eax
	andl	$1, %eax
	cmpl	$0, %eax
	sete	%al
	cmpl	$10, %ecx
	setl	%cl
	orb	%cl, %al
	testb	$1, %al
	jne	.LBB9_159
	jmp	.LBB9_796
.LBB9_159:                              # %originalBB209
                                        #   in Loop: Header=BB9_72 Depth=2
	movl	x.17, %eax
	movl	y.18, %ecx
	movl	%eax, %edx
	subl	$1, %edx
	imull	%edx, %eax
	andl	$1, %eax
	cmpl	$0, %eax
	sete	%al
	cmpl	$10, %ecx
	setl	%cl
	orb	%cl, %al
	testb	$1, %al
	jne	.LBB9_160
	jmp	.LBB9_796
.LBB9_160:                              # %originalBBpart2211
                                        #   in Loop: Header=BB9_72 Depth=2
	jmp	.LBB9_161
.LBB9_161:                              #   in Loop: Header=BB9_72 Depth=2
	movl	x.17, %eax
	movl	y.18, %ecx
	movl	%eax, %edx
	subl	$1, %edx
	imull	%edx, %eax
	andl	$1, %eax
	cmpl	$0, %eax
	sete	%al
	cmpl	$10, %ecx
	setl	%cl
	orb	%cl, %al
	testb	$1, %al
	jne	.LBB9_162
	jmp	.LBB9_797
.LBB9_162:                              # %originalBB213
                                        #   in Loop: Header=BB9_72 Depth=2
	movq	-48(%rbp), %rax         # 8-byte Reload
	movq	(%rax), %rax
	movq	-56(%rbp), %rcx         # 8-byte Reload
	cmpq	(%rcx), %rax
	setb	%al
	movl	x.17, %ecx
	movl	y.18, %edx
	movl	%ecx, %esi
	subl	$1, %esi
	imull	%esi, %ecx
	andl	$1, %ecx
	cmpl	$0, %ecx
	sete	%cl
	cmpl	$10, %edx
	setl	%dl
	orb	%dl, %cl
	testb	$1, %cl
	jne	.LBB9_163
	jmp	.LBB9_797
.LBB9_163:                              # %originalBBpart2215
                                        #   in Loop: Header=BB9_72 Depth=2
	testb	$1, %al
	jne	.LBB9_164
	jmp	.LBB9_167
.LBB9_164:                              #   in Loop: Header=BB9_72 Depth=2
	movl	x.17, %eax
	movl	y.18, %ecx
	movl	%eax, %edx
	subl	$1, %edx
	imull	%edx, %eax
	andl	$1, %eax
	cmpl	$0, %eax
	sete	%al
	cmpl	$10, %ecx
	setl	%cl
	orb	%cl, %al
	testb	$1, %al
	jne	.LBB9_165
	jmp	.LBB9_798
.LBB9_165:                              # %originalBB217
                                        #   in Loop: Header=BB9_72 Depth=2
	movq	(%r15), %rax
	movq	-48(%rbp), %rcx         # 8-byte Reload
	movq	(%rcx), %rcx
	movb	$48, (%rax,%rcx)
	movl	x.17, %eax
	movl	y.18, %ecx
	movl	%eax, %edx
	subl	$1, %edx
	imull	%edx, %eax
	andl	$1, %eax
	cmpl	$0, %eax
	sete	%al
	cmpl	$10, %ecx
	setl	%cl
	orb	%cl, %al
	testb	$1, %al
	jne	.LBB9_166
	jmp	.LBB9_798
.LBB9_166:                              # %originalBBpart2219
                                        #   in Loop: Header=BB9_72 Depth=2
	jmp	.LBB9_167
.LBB9_167:                              #   in Loop: Header=BB9_72 Depth=2
	movl	x.17, %eax
	movl	y.18, %ecx
	movl	%eax, %edx
	subl	$1, %edx
	imull	%edx, %eax
	andl	$1, %eax
	cmpl	$0, %eax
	sete	%al
	cmpl	$10, %ecx
	setl	%cl
	orb	%cl, %al
	testb	$1, %al
	jne	.LBB9_168
	jmp	.LBB9_799
.LBB9_168:                              # %originalBB221
                                        #   in Loop: Header=BB9_72 Depth=2
	movq	-48(%rbp), %rcx         # 8-byte Reload
	movq	(%rcx), %rax
	addq	$1, %rax
	movq	%rax, (%rcx)
	movl	x.17, %eax
	movl	y.18, %ecx
	movl	%eax, %edx
	subl	$1, %edx
	imull	%edx, %eax
	andl	$1, %eax
	cmpl	$0, %eax
	sete	%al
	cmpl	$10, %ecx
	setl	%cl
	orb	%cl, %al
	testb	$1, %al
	jne	.LBB9_169
	jmp	.LBB9_799
.LBB9_169:                              # %originalBBpart2234
                                        #   in Loop: Header=BB9_72 Depth=2
	jmp	.LBB9_170
.LBB9_170:                              #   in Loop: Header=BB9_72 Depth=2
	jmp	.LBB9_171
.LBB9_171:                              #   in Loop: Header=BB9_72 Depth=2
	movq	-48(%rbp), %rax         # 8-byte Reload
	movq	(%rax), %rax
	movq	-56(%rbp), %rcx         # 8-byte Reload
	cmpq	(%rcx), %rax
	jae	.LBB9_173
# %bb.172:                              #   in Loop: Header=BB9_72 Depth=2
	movq	(%r15), %rax
	movq	-48(%rbp), %rcx         # 8-byte Reload
	movq	(%rcx), %rcx
	movb	$48, (%rax,%rcx)
.LBB9_173:                              #   in Loop: Header=BB9_72 Depth=2
	movl	x.17, %eax
	movl	y.18, %ecx
	movl	%eax, %edx
	subl	$1, %edx
	imull	%edx, %eax
	andl	$1, %eax
	cmpl	$0, %eax
	sete	%al
	cmpl	$10, %ecx
	setl	%cl
	orb	%cl, %al
	testb	$1, %al
	jne	.LBB9_174
	jmp	.LBB9_800
.LBB9_174:                              # %originalBB236
                                        #   in Loop: Header=BB9_72 Depth=2
	movq	-48(%rbp), %rcx         # 8-byte Reload
	movq	(%rcx), %rax
	addq	$1, %rax
	movq	%rax, (%rcx)
	movl	x.17, %eax
	movl	y.18, %ecx
	movl	%eax, %edx
	subl	$1, %edx
	imull	%edx, %eax
	andl	$1, %eax
	cmpl	$0, %eax
	sete	%al
	cmpl	$10, %ecx
	setl	%cl
	orb	%cl, %al
	testb	$1, %al
	jne	.LBB9_175
	jmp	.LBB9_800
.LBB9_175:                              # %originalBBpart2247
                                        #   in Loop: Header=BB9_72 Depth=2
	jmp	.LBB9_176
.LBB9_176:                              #   in Loop: Header=BB9_72 Depth=2
	movl	x.17, %eax
	movl	y.18, %ecx
	movl	%eax, %edx
	subl	$1, %edx
	imull	%edx, %eax
	andl	$1, %eax
	cmpl	$0, %eax
	sete	%al
	cmpl	$10, %ecx
	setl	%cl
	orb	%cl, %al
	testb	$1, %al
	jne	.LBB9_177
	jmp	.LBB9_801
.LBB9_177:                              # %originalBB249
                                        #   in Loop: Header=BB9_72 Depth=2
	movl	x.17, %eax
	movl	y.18, %ecx
	movl	%eax, %edx
	subl	$1, %edx
	imull	%edx, %eax
	andl	$1, %eax
	cmpl	$0, %eax
	sete	%al
	cmpl	$10, %ecx
	setl	%cl
	orb	%cl, %al
	testb	$1, %al
	jne	.LBB9_178
	jmp	.LBB9_801
.LBB9_178:                              # %originalBBpart2251
                                        #   in Loop: Header=BB9_72 Depth=2
	jmp	.LBB9_179
.LBB9_179:                              #   in Loop: Header=BB9_72 Depth=2
	movl	x.17, %eax
	movl	y.18, %ecx
	movl	%eax, %edx
	subl	$1, %edx
	imull	%edx, %eax
	andl	$1, %eax
	cmpl	$0, %eax
	sete	%al
	cmpl	$10, %ecx
	setl	%cl
	orb	%cl, %al
	testb	$1, %al
	movq	-104(%rbp), %rsi        # 8-byte Reload
	jne	.LBB9_180
	jmp	.LBB9_802
.LBB9_180:                              # %originalBB253
                                        #   in Loop: Header=BB9_72 Depth=2
	movb	$48, (%rsi)
	movl	x.17, %eax
	movl	y.18, %ecx
	movl	%eax, %edx
	subl	$1, %edx
	imull	%edx, %eax
	andl	$1, %eax
	cmpl	$0, %eax
	sete	%al
	cmpl	$10, %ecx
	setl	%cl
	orb	%cl, %al
	testb	$1, %al
	jne	.LBB9_181
	jmp	.LBB9_802
.LBB9_181:                              # %originalBBpart2255
                                        #   in Loop: Header=BB9_72 Depth=2
	jmp	.LBB9_189
.LBB9_182:                              #   in Loop: Header=BB9_72 Depth=2
	movq	-72(%rbp), %rax         # 8-byte Reload
	movl	(%rax), %eax
	andl	$1, %eax
	cmpl	$0, %eax
	je	.LBB9_186
# %bb.183:                              #   in Loop: Header=BB9_72 Depth=2
	movl	x.17, %eax
	movl	y.18, %ecx
	movl	%eax, %edx
	subl	$1, %edx
	imull	%edx, %eax
	andl	$1, %eax
	cmpl	$0, %eax
	sete	%al
	cmpl	$10, %ecx
	setl	%cl
	orb	%cl, %al
	testb	$1, %al
	jne	.LBB9_184
	jmp	.LBB9_803
.LBB9_184:                              # %originalBB257
                                        #   in Loop: Header=BB9_72 Depth=2
	movl	x.17, %eax
	movl	y.18, %ecx
	movl	%eax, %edx
	subl	$1, %edx
	imull	%edx, %eax
	andl	$1, %eax
	cmpl	$0, %eax
	sete	%al
	cmpl	$10, %ecx
	setl	%cl
	orb	%cl, %al
	testb	$1, %al
	jne	.LBB9_185
	jmp	.LBB9_803
.LBB9_185:                              # %originalBBpart2259
                                        #   in Loop: Header=BB9_72 Depth=2
	jmp	.LBB9_681
.LBB9_186:                              #   in Loop: Header=BB9_72 Depth=2
	movl	x.17, %eax
	movl	y.18, %ecx
	movl	%eax, %edx
	subl	$1, %edx
	imull	%edx, %eax
	andl	$1, %eax
	cmpl	$0, %eax
	sete	%al
	cmpl	$10, %ecx
	setl	%cl
	orb	%cl, %al
	testb	$1, %al
	jne	.LBB9_187
	jmp	.LBB9_804
.LBB9_187:                              # %originalBB261
                                        #   in Loop: Header=BB9_72 Depth=2
	movl	x.17, %eax
	movl	y.18, %ecx
	movl	%eax, %edx
	subl	$1, %edx
	imull	%edx, %eax
	andl	$1, %eax
	cmpl	$0, %eax
	sete	%al
	cmpl	$10, %ecx
	setl	%cl
	orb	%cl, %al
	testb	$1, %al
	jne	.LBB9_188
	jmp	.LBB9_804
.LBB9_188:                              # %originalBBpart2263
                                        #   in Loop: Header=BB9_72 Depth=2
	jmp	.LBB9_189
.LBB9_189:                              #   in Loop: Header=BB9_72 Depth=2
	movl	x.17, %eax
	movl	y.18, %ecx
	movl	%eax, %edx
	subl	$1, %edx
	imull	%edx, %eax
	andl	$1, %eax
	cmpl	$0, %eax
	sete	%al
	cmpl	$10, %ecx
	setl	%cl
	orb	%cl, %al
	testb	$1, %al
	jne	.LBB9_190
	jmp	.LBB9_805
.LBB9_190:                              # %originalBB265
                                        #   in Loop: Header=BB9_72 Depth=2
	movl	x.17, %eax
	movl	y.18, %ecx
	movl	%eax, %edx
	subl	$1, %edx
	imull	%edx, %eax
	andl	$1, %eax
	cmpl	$0, %eax
	sete	%al
	cmpl	$10, %ecx
	setl	%cl
	orb	%cl, %al
	testb	$1, %al
	jne	.LBB9_191
	jmp	.LBB9_805
.LBB9_191:                              # %originalBBpart2267
                                        #   in Loop: Header=BB9_72 Depth=2
	jmp	.LBB9_569
.LBB9_192:                              #   in Loop: Header=BB9_72 Depth=2
	movl	(%r9), %eax
	movl	%eax, %ecx
	subl	$2, %ecx
	je	.LBB9_194
	jmp	.LBB9_193
.LBB9_193:                              #   in Loop: Header=BB9_72 Depth=2
	subl	$5, %eax
	je	.LBB9_199
	jmp	.LBB9_251
.LBB9_194:                              #   in Loop: Header=BB9_72 Depth=2
	testb	$1, (%r11)
	je	.LBB9_198
# %bb.195:
	movq	%r15, %rdi
	movl	x.17, %eax
	movl	y.18, %ecx
	movl	%eax, %edx
	subl	$1, %edx
	imull	%edx, %eax
	andl	$1, %eax
	cmpl	$0, %eax
	sete	%al
	cmpl	$10, %ecx
	setl	%cl
	orb	%cl, %al
	testb	$1, %al
	jne	.LBB9_196
	jmp	.LBB9_806
.LBB9_196:                              # %originalBB269
	movl	x.17, %eax
	movl	y.18, %ecx
	movl	%eax, %edx
	subl	$1, %edx
	imull	%edx, %eax
	andl	$1, %eax
	cmpl	$0, %eax
	sete	%al
	cmpl	$10, %ecx
	setl	%cl
	orb	%cl, %al
	testb	$1, %al
	jne	.LBB9_197
	jmp	.LBB9_806
.LBB9_197:                              # %originalBBpart2271
	movq	-72(%rbp), %r11         # 8-byte Reload
	movq	-80(%rbp), %r10         # 8-byte Reload
	movq	-64(%rbp), %rbx         # 8-byte Reload
	jmp	.LBB9_749
.LBB9_198:                              #   in Loop: Header=BB9_72 Depth=2
	jmp	.LBB9_252
.LBB9_199:                              #   in Loop: Header=BB9_72 Depth=2
	movl	x.17, %eax
	movl	y.18, %ecx
	movl	%eax, %edx
	subl	$1, %edx
	imull	%edx, %eax
	andl	$1, %eax
	cmpl	$0, %eax
	sete	%al
	cmpl	$10, %ecx
	setl	%cl
	orb	%cl, %al
	testb	$1, %al
	jne	.LBB9_200
	jmp	.LBB9_807
.LBB9_200:                              # %originalBB273
                                        #   in Loop: Header=BB9_72 Depth=2
	movq	-72(%rbp), %rax         # 8-byte Reload
	movl	(%rax), %eax
	andl	$4, %eax
	cmpl	$0, %eax
	setne	%al
	movl	x.17, %ecx
	movl	y.18, %edx
	movl	%ecx, %esi
	subl	$1, %esi
	imull	%esi, %ecx
	andl	$1, %ecx
	cmpl	$0, %ecx
	sete	%cl
	cmpl	$10, %edx
	setl	%dl
	orb	%dl, %cl
	testb	$1, %cl
	jne	.LBB9_201
	jmp	.LBB9_807
.LBB9_201:                              # %originalBBpart2289
                                        #   in Loop: Header=BB9_72 Depth=2
	testb	$1, %al
	jne	.LBB9_202
	jmp	.LBB9_250
.LBB9_202:                              #   in Loop: Header=BB9_72 Depth=2
	movl	x.17, %eax
	movl	y.18, %ecx
	movl	%eax, %edx
	subl	$1, %edx
	imull	%edx, %eax
	andl	$1, %eax
	cmpl	$0, %eax
	sete	%al
	cmpl	$10, %ecx
	setl	%cl
	orb	%cl, %al
	testb	$1, %al
	jne	.LBB9_203
	jmp	.LBB9_808
.LBB9_203:                              # %originalBB291
                                        #   in Loop: Header=BB9_72 Depth=2
	movq	(%r13), %rax
	addq	$2, %rax
	cmpq	(%r10), %rax
	setb	%al
	movl	x.17, %ecx
	movl	y.18, %edx
	movl	%ecx, %esi
	subl	$1, %esi
	imull	%esi, %ecx
	andl	$1, %ecx
	cmpl	$0, %ecx
	sete	%cl
	cmpl	$10, %edx
	setl	%dl
	orb	%dl, %cl
	testb	$1, %cl
	jne	.LBB9_204
	jmp	.LBB9_808
.LBB9_204:                              # %originalBBpart2302
                                        #   in Loop: Header=BB9_72 Depth=2
	testb	$1, %al
	jne	.LBB9_205
	jmp	.LBB9_250
.LBB9_205:                              #   in Loop: Header=BB9_72 Depth=2
	movl	x.17, %eax
	movl	y.18, %ecx
	movl	%eax, %edx
	subl	$1, %edx
	imull	%edx, %eax
	andl	$1, %eax
	cmpl	$0, %eax
	sete	%al
	cmpl	$10, %ecx
	setl	%cl
	orb	%cl, %al
	testb	$1, %al
	jne	.LBB9_206
	jmp	.LBB9_809
.LBB9_206:                              # %originalBB304
                                        #   in Loop: Header=BB9_72 Depth=2
	movq	-64(%rbp), %rax         # 8-byte Reload
	movq	(%rax), %rax
	movq	(%r13), %rcx
	movsbl	1(%rax,%rcx), %eax
	cmpl	$63, %eax
	sete	%al
	movl	x.17, %ecx
	movl	y.18, %edx
	movl	%ecx, %esi
	subl	$1, %esi
	imull	%esi, %ecx
	andl	$1, %ecx
	cmpl	$0, %ecx
	sete	%cl
	cmpl	$10, %edx
	setl	%dl
	orb	%dl, %cl
	testb	$1, %cl
	jne	.LBB9_207
	jmp	.LBB9_809
.LBB9_207:                              # %originalBBpart2312
                                        #   in Loop: Header=BB9_72 Depth=2
	testb	$1, %al
	jne	.LBB9_208
	jmp	.LBB9_250
.LBB9_208:                              #   in Loop: Header=BB9_72 Depth=2
	movl	x.17, %eax
	movl	y.18, %ecx
	movl	%eax, %edx
	subl	$1, %edx
	imull	%edx, %eax
	andl	$1, %eax
	cmpl	$0, %eax
	sete	%al
	cmpl	$10, %ecx
	setl	%cl
	orb	%cl, %al
	testb	$1, %al
	jne	.LBB9_209
	jmp	.LBB9_810
.LBB9_209:                              # %originalBB314
                                        #   in Loop: Header=BB9_72 Depth=2
	movq	-64(%rbp), %rax         # 8-byte Reload
	movq	(%rax), %rax
	movq	(%r13), %rcx
	movsbl	2(%rax,%rcx), %eax
	movl	x.17, %ecx
	movl	y.18, %edx
	movl	%ecx, %esi
	subl	$1, %esi
	imull	%esi, %ecx
	andl	$1, %ecx
	cmpl	$0, %ecx
	sete	%cl
	cmpl	$10, %edx
	setl	%dl
	orb	%dl, %cl
	testb	$1, %cl
	jne	.LBB9_210
	jmp	.LBB9_810
.LBB9_210:                              # %originalBBpart2323
                                        #   in Loop: Header=BB9_72 Depth=2
	movl	%eax, %ecx
	subl	$33, %ecx
	je	.LBB9_215
	jmp	.LBB9_211
.LBB9_211:                              # %originalBBpart2323
                                        #   in Loop: Header=BB9_72 Depth=2
	movl	%eax, %ecx
	addl	$-39, %ecx
	subl	$3, %ecx
	jb	.LBB9_215
	jmp	.LBB9_212
.LBB9_212:                              # %originalBBpart2323
                                        #   in Loop: Header=BB9_72 Depth=2
	movl	%eax, %ecx
	subl	$45, %ecx
	je	.LBB9_215
	jmp	.LBB9_213
.LBB9_213:                              # %originalBBpart2323
                                        #   in Loop: Header=BB9_72 Depth=2
	movl	%eax, %ecx
	subl	$47, %ecx
	je	.LBB9_215
	jmp	.LBB9_214
.LBB9_214:                              # %originalBBpart2323
                                        #   in Loop: Header=BB9_72 Depth=2
	addl	$-60, %eax
	subl	$2, %eax
	ja	.LBB9_248
	jmp	.LBB9_215
.LBB9_215:                              #   in Loop: Header=BB9_72 Depth=2
	testb	$1, (%r11)
	je	.LBB9_217
# %bb.216:
	movq	%r15, %rdi
	movq	-72(%rbp), %r11         # 8-byte Reload
	movq	-80(%rbp), %r10         # 8-byte Reload
	movq	-64(%rbp), %rbx         # 8-byte Reload
	jmp	.LBB9_749
.LBB9_217:                              #   in Loop: Header=BB9_72 Depth=2
	movl	x.17, %eax
	movl	y.18, %ecx
	movl	%eax, %edx
	subl	$1, %edx
	imull	%edx, %eax
	andl	$1, %eax
	cmpl	$0, %eax
	sete	%al
	cmpl	$10, %ecx
	setl	%cl
	orb	%cl, %al
	testb	$1, %al
	movq	-64(%rbp), %rsi         # 8-byte Reload
	movq	-104(%rbp), %rbx        # 8-byte Reload
	jne	.LBB9_218
	jmp	.LBB9_811
.LBB9_218:                              # %originalBB325
                                        #   in Loop: Header=BB9_72 Depth=2
	movq	(%rsi), %rax
	movq	(%r13), %rcx
	movb	2(%rax,%rcx), %al
	movb	%al, (%rbx)
	movq	(%r13), %rax
	addq	$2, %rax
	movq	%rax, (%r13)
	movl	x.17, %eax
	movl	y.18, %ecx
	movl	%eax, %edx
	subl	$1, %edx
	imull	%edx, %eax
	andl	$1, %eax
	cmpl	$0, %eax
	sete	%al
	cmpl	$10, %ecx
	setl	%cl
	orb	%cl, %al
	testb	$1, %al
	jne	.LBB9_219
	jmp	.LBB9_811
.LBB9_219:                              # %originalBBpart2345
                                        #   in Loop: Header=BB9_72 Depth=2
	jmp	.LBB9_220
.LBB9_220:                              #   in Loop: Header=BB9_72 Depth=2
	movl	x.17, %eax
	movl	y.18, %ecx
	movl	%eax, %edx
	subl	$1, %edx
	imull	%edx, %eax
	andl	$1, %eax
	cmpl	$0, %eax
	sete	%al
	cmpl	$10, %ecx
	setl	%cl
	orb	%cl, %al
	testb	$1, %al
	movq	-120(%rbp), %r10        # 8-byte Reload
	jne	.LBB9_221
	jmp	.LBB9_812
.LBB9_221:                              # %originalBB347
                                        #   in Loop: Header=BB9_72 Depth=2
	movq	-48(%rbp), %rax         # 8-byte Reload
	movq	(%rax), %rax
	movq	-56(%rbp), %rcx         # 8-byte Reload
	cmpq	(%rcx), %rax
	setb	%al
	movl	x.17, %ecx
	movl	y.18, %edx
	movl	%ecx, %esi
	subl	$1, %esi
	imull	%esi, %ecx
	andl	$1, %ecx
	cmpl	$0, %ecx
	sete	%cl
	cmpl	$10, %edx
	setl	%dl
	orb	%dl, %cl
	testb	$1, %cl
	jne	.LBB9_222
	jmp	.LBB9_812
.LBB9_222:                              # %originalBBpart2349
                                        #   in Loop: Header=BB9_72 Depth=2
	testb	$1, %al
	jne	.LBB9_223
	jmp	.LBB9_224
.LBB9_223:                              #   in Loop: Header=BB9_72 Depth=2
	movq	(%r15), %rax
	movq	-48(%rbp), %rcx         # 8-byte Reload
	movq	(%rcx), %rcx
	movb	$63, (%rax,%rcx)
.LBB9_224:                              #   in Loop: Header=BB9_72 Depth=2
	movl	x.17, %eax
	movl	y.18, %ecx
	movl	%eax, %edx
	subl	$1, %edx
	imull	%edx, %eax
	andl	$1, %eax
	cmpl	$0, %eax
	sete	%al
	cmpl	$10, %ecx
	setl	%cl
	orb	%cl, %al
	testb	$1, %al
	jne	.LBB9_225
	jmp	.LBB9_813
.LBB9_225:                              # %originalBB351
                                        #   in Loop: Header=BB9_72 Depth=2
	movq	-48(%rbp), %rcx         # 8-byte Reload
	movq	(%rcx), %rax
	addq	$1, %rax
	movq	%rax, (%rcx)
	movl	x.17, %eax
	movl	y.18, %ecx
	movl	%eax, %edx
	subl	$1, %edx
	imull	%edx, %eax
	andl	$1, %eax
	cmpl	$0, %eax
	sete	%al
	cmpl	$10, %ecx
	setl	%cl
	orb	%cl, %al
	testb	$1, %al
	jne	.LBB9_226
	jmp	.LBB9_813
.LBB9_226:                              # %originalBBpart2364
                                        #   in Loop: Header=BB9_72 Depth=2
	jmp	.LBB9_227
.LBB9_227:                              #   in Loop: Header=BB9_72 Depth=2
	jmp	.LBB9_228
.LBB9_228:                              #   in Loop: Header=BB9_72 Depth=2
	movl	x.17, %eax
	movl	y.18, %ecx
	movl	%eax, %edx
	subl	$1, %edx
	imull	%edx, %eax
	andl	$1, %eax
	cmpl	$0, %eax
	sete	%al
	cmpl	$10, %ecx
	setl	%cl
	orb	%cl, %al
	testb	$1, %al
	jne	.LBB9_229
	jmp	.LBB9_814
.LBB9_229:                              # %originalBB366
                                        #   in Loop: Header=BB9_72 Depth=2
	movq	-48(%rbp), %rax         # 8-byte Reload
	movq	(%rax), %rax
	movq	-56(%rbp), %rcx         # 8-byte Reload
	cmpq	(%rcx), %rax
	setb	%al
	movl	x.17, %ecx
	movl	y.18, %edx
	movl	%ecx, %esi
	subl	$1, %esi
	imull	%esi, %ecx
	andl	$1, %ecx
	cmpl	$0, %ecx
	sete	%cl
	cmpl	$10, %edx
	setl	%dl
	orb	%dl, %cl
	testb	$1, %cl
	jne	.LBB9_230
	jmp	.LBB9_814
.LBB9_230:                              # %originalBBpart2368
                                        #   in Loop: Header=BB9_72 Depth=2
	testb	$1, %al
	jne	.LBB9_231
	jmp	.LBB9_232
.LBB9_231:                              #   in Loop: Header=BB9_72 Depth=2
	movq	(%r15), %rax
	movq	-48(%rbp), %rcx         # 8-byte Reload
	movq	(%rcx), %rcx
	movb	$34, (%rax,%rcx)
.LBB9_232:                              #   in Loop: Header=BB9_72 Depth=2
	movl	x.17, %eax
	movl	y.18, %ecx
	movl	%eax, %edx
	subl	$1, %edx
	imull	%edx, %eax
	andl	$1, %eax
	cmpl	$0, %eax
	sete	%al
	cmpl	$10, %ecx
	setl	%cl
	orb	%cl, %al
	testb	$1, %al
	jne	.LBB9_233
	jmp	.LBB9_815
.LBB9_233:                              # %originalBB370
                                        #   in Loop: Header=BB9_72 Depth=2
	movq	-48(%rbp), %rcx         # 8-byte Reload
	movq	(%rcx), %rax
	addq	$1, %rax
	movq	%rax, (%rcx)
	movl	x.17, %eax
	movl	y.18, %ecx
	movl	%eax, %edx
	subl	$1, %edx
	imull	%edx, %eax
	andl	$1, %eax
	cmpl	$0, %eax
	sete	%al
	cmpl	$10, %ecx
	setl	%cl
	orb	%cl, %al
	testb	$1, %al
	jne	.LBB9_234
	jmp	.LBB9_815
.LBB9_234:                              # %originalBBpart2386
                                        #   in Loop: Header=BB9_72 Depth=2
	jmp	.LBB9_235
.LBB9_235:                              #   in Loop: Header=BB9_72 Depth=2
	jmp	.LBB9_236
.LBB9_236:                              #   in Loop: Header=BB9_72 Depth=2
	movl	x.17, %eax
	movl	y.18, %ecx
	movl	%eax, %edx
	subl	$1, %edx
	imull	%edx, %eax
	andl	$1, %eax
	cmpl	$0, %eax
	sete	%al
	cmpl	$10, %ecx
	setl	%cl
	orb	%cl, %al
	testb	$1, %al
	jne	.LBB9_237
	jmp	.LBB9_816
.LBB9_237:                              # %originalBB388
                                        #   in Loop: Header=BB9_72 Depth=2
	movq	-48(%rbp), %rax         # 8-byte Reload
	movq	(%rax), %rax
	movq	-56(%rbp), %rcx         # 8-byte Reload
	cmpq	(%rcx), %rax
	setb	%al
	movl	x.17, %ecx
	movl	y.18, %edx
	movl	%ecx, %esi
	subl	$1, %esi
	imull	%esi, %ecx
	andl	$1, %ecx
	cmpl	$0, %ecx
	sete	%cl
	cmpl	$10, %edx
	setl	%dl
	orb	%dl, %cl
	testb	$1, %cl
	jne	.LBB9_238
	jmp	.LBB9_816
.LBB9_238:                              # %originalBBpart2390
                                        #   in Loop: Header=BB9_72 Depth=2
	testb	$1, %al
	jne	.LBB9_239
	jmp	.LBB9_240
.LBB9_239:                              #   in Loop: Header=BB9_72 Depth=2
	movq	(%r15), %rax
	movq	-48(%rbp), %rcx         # 8-byte Reload
	movq	(%rcx), %rcx
	movb	$34, (%rax,%rcx)
.LBB9_240:                              #   in Loop: Header=BB9_72 Depth=2
	movl	x.17, %eax
	movl	y.18, %ecx
	movl	%eax, %edx
	subl	$1, %edx
	imull	%edx, %eax
	andl	$1, %eax
	cmpl	$0, %eax
	sete	%al
	cmpl	$10, %ecx
	setl	%cl
	orb	%cl, %al
	testb	$1, %al
	jne	.LBB9_241
	jmp	.LBB9_817
.LBB9_241:                              # %originalBB392
                                        #   in Loop: Header=BB9_72 Depth=2
	movq	-48(%rbp), %rcx         # 8-byte Reload
	movq	(%rcx), %rax
	addq	$1, %rax
	movq	%rax, (%rcx)
	movl	x.17, %eax
	movl	y.18, %ecx
	movl	%eax, %edx
	subl	$1, %edx
	imull	%edx, %eax
	andl	$1, %eax
	cmpl	$0, %eax
	sete	%al
	cmpl	$10, %ecx
	setl	%cl
	orb	%cl, %al
	testb	$1, %al
	jne	.LBB9_242
	jmp	.LBB9_817
.LBB9_242:                              # %originalBBpart2403
                                        #   in Loop: Header=BB9_72 Depth=2
	jmp	.LBB9_243
.LBB9_243:                              #   in Loop: Header=BB9_72 Depth=2
	jmp	.LBB9_244
.LBB9_244:                              #   in Loop: Header=BB9_72 Depth=2
	movq	-48(%rbp), %rax         # 8-byte Reload
	movq	(%rax), %rax
	movq	-56(%rbp), %rcx         # 8-byte Reload
	cmpq	(%rcx), %rax
	jae	.LBB9_246
# %bb.245:                              #   in Loop: Header=BB9_72 Depth=2
	movq	(%r15), %rax
	movq	-48(%rbp), %rcx         # 8-byte Reload
	movq	(%rcx), %rcx
	movb	$63, (%rax,%rcx)
.LBB9_246:                              #   in Loop: Header=BB9_72 Depth=2
	movq	-48(%rbp), %rcx         # 8-byte Reload
	movq	(%rcx), %rax
	addq	$1, %rax
	movq	%rax, (%rcx)
# %bb.247:                              #   in Loop: Header=BB9_72 Depth=2
	jmp	.LBB9_249
.LBB9_248:                              #   in Loop: Header=BB9_72 Depth=2
	jmp	.LBB9_249
.LBB9_249:                              #   in Loop: Header=BB9_72 Depth=2
	jmp	.LBB9_250
.LBB9_250:                              #   in Loop: Header=BB9_72 Depth=2
	jmp	.LBB9_252
.LBB9_251:                              #   in Loop: Header=BB9_72 Depth=2
	jmp	.LBB9_252
.LBB9_252:                              #   in Loop: Header=BB9_72 Depth=2
	movl	x.17, %eax
	movl	y.18, %ecx
	movl	%eax, %edx
	subl	$1, %edx
	imull	%edx, %eax
	andl	$1, %eax
	cmpl	$0, %eax
	sete	%al
	cmpl	$10, %ecx
	setl	%cl
	orb	%cl, %al
	testb	$1, %al
	jne	.LBB9_253
	jmp	.LBB9_818
.LBB9_253:                              # %originalBB405
                                        #   in Loop: Header=BB9_72 Depth=2
	movl	x.17, %eax
	movl	y.18, %ecx
	movl	%eax, %edx
	subl	$1, %edx
	imull	%edx, %eax
	andl	$1, %eax
	cmpl	$0, %eax
	sete	%al
	cmpl	$10, %ecx
	setl	%cl
	orb	%cl, %al
	testb	$1, %al
	jne	.LBB9_254
	jmp	.LBB9_818
.LBB9_254:                              # %originalBBpart2407
                                        #   in Loop: Header=BB9_72 Depth=2
	jmp	.LBB9_569
.LBB9_255:                              #   in Loop: Header=BB9_72 Depth=2
	movl	x.17, %eax
	movl	y.18, %ecx
	movl	%eax, %edx
	subl	$1, %edx
	imull	%edx, %eax
	andl	$1, %eax
	cmpl	$0, %eax
	sete	%al
	cmpl	$10, %ecx
	setl	%cl
	orb	%cl, %al
	testb	$1, %al
	movq	-136(%rbp), %rcx        # 8-byte Reload
	jne	.LBB9_256
	jmp	.LBB9_819
.LBB9_256:                              # %originalBB409
                                        #   in Loop: Header=BB9_72 Depth=2
	movb	$97, (%rcx)
	movl	x.17, %eax
	movl	y.18, %ecx
	movl	%eax, %edx
	subl	$1, %edx
	imull	%edx, %eax
	andl	$1, %eax
	cmpl	$0, %eax
	sete	%al
	cmpl	$10, %ecx
	setl	%cl
	orb	%cl, %al
	movq	-136(%rbp), %rcx        # 8-byte Reload
	testb	$1, %al
	jne	.LBB9_257
	jmp	.LBB9_819
.LBB9_257:                              # %originalBBpart2411
                                        #   in Loop: Header=BB9_72 Depth=2
	jmp	.LBB9_289
.LBB9_258:                              #   in Loop: Header=BB9_72 Depth=2
	movq	-136(%rbp), %rax        # 8-byte Reload
	movb	$98, (%rax)
	jmp	.LBB9_289
.LBB9_259:                              #   in Loop: Header=BB9_72 Depth=2
	movq	-136(%rbp), %rax        # 8-byte Reload
	movb	$102, (%rax)
	jmp	.LBB9_289
.LBB9_260:                              #   in Loop: Header=BB9_72 Depth=2
	movl	x.17, %eax
	movl	y.18, %ecx
	movl	%eax, %edx
	subl	$1, %edx
	imull	%edx, %eax
	andl	$1, %eax
	cmpl	$0, %eax
	sete	%al
	cmpl	$10, %ecx
	setl	%cl
	orb	%cl, %al
	testb	$1, %al
	movq	-136(%rbp), %rcx        # 8-byte Reload
	jne	.LBB9_261
	jmp	.LBB9_820
.LBB9_261:                              # %originalBB413
                                        #   in Loop: Header=BB9_72 Depth=2
	movb	$110, (%rcx)
	movl	x.17, %eax
	movl	y.18, %ecx
	movl	%eax, %edx
	subl	$1, %edx
	imull	%edx, %eax
	andl	$1, %eax
	cmpl	$0, %eax
	sete	%al
	cmpl	$10, %ecx
	setl	%cl
	orb	%cl, %al
	movq	-136(%rbp), %rcx        # 8-byte Reload
	testb	$1, %al
	jne	.LBB9_262
	jmp	.LBB9_820
.LBB9_262:                              # %originalBBpart2415
                                        #   in Loop: Header=BB9_72 Depth=2
	jmp	.LBB9_279
.LBB9_263:                              #   in Loop: Header=BB9_72 Depth=2
	movq	-136(%rbp), %rax        # 8-byte Reload
	movb	$114, (%rax)
	jmp	.LBB9_279
.LBB9_264:                              #   in Loop: Header=BB9_72 Depth=2
	movq	-136(%rbp), %rax        # 8-byte Reload
	movb	$116, (%rax)
	jmp	.LBB9_279
.LBB9_265:                              #   in Loop: Header=BB9_72 Depth=2
	movq	-136(%rbp), %rax        # 8-byte Reload
	movb	$118, (%rax)
	jmp	.LBB9_289
.LBB9_266:                              #   in Loop: Header=BB9_72 Depth=2
	movq	-104(%rbp), %rax        # 8-byte Reload
	movb	(%rax), %al
	movq	-136(%rbp), %rcx        # 8-byte Reload
	movb	%al, (%rcx)
	cmpl	$2, (%r9)
	jne	.LBB9_272
# %bb.267:                              #   in Loop: Header=BB9_72 Depth=2
	movl	x.17, %eax
	movl	y.18, %ecx
	movl	%eax, %edx
	subl	$1, %edx
	imull	%edx, %eax
	andl	$1, %eax
	cmpl	$0, %eax
	sete	%al
	cmpl	$10, %ecx
	setl	%cl
	orb	%cl, %al
	testb	$1, %al
	jne	.LBB9_268
	jmp	.LBB9_821
.LBB9_268:                              # %originalBB417
                                        #   in Loop: Header=BB9_72 Depth=2
	movb	(%r11), %al
	movl	x.17, %ecx
	movl	y.18, %edx
	movl	%ecx, %esi
	subl	$1, %esi
	imull	%esi, %ecx
	andl	$1, %ecx
	cmpl	$0, %ecx
	sete	%cl
	cmpl	$10, %edx
	setl	%dl
	orb	%dl, %cl
	testb	$1, %cl
	jne	.LBB9_269
	jmp	.LBB9_821
.LBB9_269:                              # %originalBBpart2419
                                        #   in Loop: Header=BB9_72 Depth=2
	testb	$1, %al
	jne	.LBB9_270
	jmp	.LBB9_271
.LBB9_270:
	movq	%r15, %rdi
	movq	-72(%rbp), %r11         # 8-byte Reload
	movq	-80(%rbp), %r10         # 8-byte Reload
	movq	-64(%rbp), %rbx         # 8-byte Reload
	jmp	.LBB9_749
.LBB9_271:                              #   in Loop: Header=BB9_72 Depth=2
	jmp	.LBB9_633
.LBB9_272:                              #   in Loop: Header=BB9_72 Depth=2
	movq	-88(%rbp), %rax         # 8-byte Reload
	testb	$1, (%rax)
	je	.LBB9_278
# %bb.273:                              #   in Loop: Header=BB9_72 Depth=2
	testb	$1, (%r11)
	je	.LBB9_278
# %bb.274:                              #   in Loop: Header=BB9_72 Depth=2
	movq	-168(%rbp), %rax        # 8-byte Reload
	cmpq	$0, (%rax)
	je	.LBB9_278
# %bb.275:                              #   in Loop: Header=BB9_72 Depth=2
	movl	x.17, %eax
	movl	y.18, %ecx
	movl	%eax, %edx
	subl	$1, %edx
	imull	%edx, %eax
	andl	$1, %eax
	cmpl	$0, %eax
	sete	%al
	cmpl	$10, %ecx
	setl	%cl
	orb	%cl, %al
	testb	$1, %al
	jne	.LBB9_276
	jmp	.LBB9_822
.LBB9_276:                              # %originalBB421
                                        #   in Loop: Header=BB9_72 Depth=2
	movl	x.17, %eax
	movl	y.18, %ecx
	movl	%eax, %edx
	subl	$1, %edx
	imull	%edx, %eax
	andl	$1, %eax
	cmpl	$0, %eax
	sete	%al
	cmpl	$10, %ecx
	setl	%cl
	orb	%cl, %al
	testb	$1, %al
	jne	.LBB9_277
	jmp	.LBB9_822
.LBB9_277:                              # %originalBBpart2423
                                        #   in Loop: Header=BB9_72 Depth=2
	jmp	.LBB9_633
.LBB9_278:                              #   in Loop: Header=BB9_72 Depth=2
	jmp	.LBB9_279
.LBB9_279:                              #   in Loop: Header=BB9_72 Depth=2
	movl	x.17, %eax
	movl	y.18, %ecx
	movl	%eax, %edx
	subl	$1, %edx
	imull	%edx, %eax
	andl	$1, %eax
	cmpl	$0, %eax
	sete	%al
	cmpl	$10, %ecx
	setl	%cl
	orb	%cl, %al
	testb	$1, %al
	jne	.LBB9_280
	jmp	.LBB9_823
.LBB9_280:                              # %originalBB425
                                        #   in Loop: Header=BB9_72 Depth=2
	cmpl	$2, (%r9)
	sete	%al
	movl	x.17, %ecx
	movl	y.18, %edx
	movl	%ecx, %esi
	subl	$1, %esi
	imull	%esi, %ecx
	andl	$1, %ecx
	cmpl	$0, %ecx
	sete	%cl
	cmpl	$10, %edx
	setl	%dl
	orb	%dl, %cl
	testb	$1, %cl
	jne	.LBB9_281
	jmp	.LBB9_823
.LBB9_281:                              # %originalBBpart2427
                                        #   in Loop: Header=BB9_72 Depth=2
	testb	$1, %al
	jne	.LBB9_282
	jmp	.LBB9_286
.LBB9_282:                              #   in Loop: Header=BB9_72 Depth=2
	movl	x.17, %eax
	movl	y.18, %ecx
	movl	%eax, %edx
	subl	$1, %edx
	imull	%edx, %eax
	andl	$1, %eax
	cmpl	$0, %eax
	sete	%al
	cmpl	$10, %ecx
	setl	%cl
	orb	%cl, %al
	testb	$1, %al
	jne	.LBB9_283
	jmp	.LBB9_824
.LBB9_283:                              # %originalBB429
                                        #   in Loop: Header=BB9_72 Depth=2
	movb	(%r11), %al
	movl	x.17, %ecx
	movl	y.18, %edx
	movl	%ecx, %esi
	subl	$1, %esi
	imull	%esi, %ecx
	andl	$1, %ecx
	cmpl	$0, %ecx
	sete	%cl
	cmpl	$10, %edx
	setl	%dl
	orb	%dl, %cl
	testb	$1, %cl
	jne	.LBB9_284
	jmp	.LBB9_824
.LBB9_284:                              # %originalBBpart2431
                                        #   in Loop: Header=BB9_72 Depth=2
	testb	$1, %al
	jne	.LBB9_285
	jmp	.LBB9_286
.LBB9_285:
	movq	%r15, %rdi
	movq	-72(%rbp), %r11         # 8-byte Reload
	movq	-80(%rbp), %r10         # 8-byte Reload
	movq	-64(%rbp), %rbx         # 8-byte Reload
	jmp	.LBB9_749
.LBB9_286:                              #   in Loop: Header=BB9_72 Depth=2
	movl	x.17, %eax
	movl	y.18, %ecx
	movl	%eax, %edx
	subl	$1, %edx
	imull	%edx, %eax
	andl	$1, %eax
	cmpl	$0, %eax
	sete	%al
	cmpl	$10, %ecx
	setl	%cl
	orb	%cl, %al
	testb	$1, %al
	jne	.LBB9_287
	jmp	.LBB9_825
.LBB9_287:                              # %originalBB433
                                        #   in Loop: Header=BB9_72 Depth=2
	movl	x.17, %eax
	movl	y.18, %ecx
	movl	%eax, %edx
	subl	$1, %edx
	imull	%edx, %eax
	andl	$1, %eax
	cmpl	$0, %eax
	sete	%al
	cmpl	$10, %ecx
	setl	%cl
	orb	%cl, %al
	testb	$1, %al
	jne	.LBB9_288
	jmp	.LBB9_825
.LBB9_288:                              # %originalBBpart2435
                                        #   in Loop: Header=BB9_72 Depth=2
	jmp	.LBB9_289
.LBB9_289:                              #   in Loop: Header=BB9_72 Depth=2
	movl	x.17, %eax
	movl	y.18, %ecx
	movl	%eax, %edx
	subl	$1, %edx
	imull	%edx, %eax
	andl	$1, %eax
	cmpl	$0, %eax
	sete	%al
	cmpl	$10, %ecx
	setl	%cl
	orb	%cl, %al
	testb	$1, %al
	jne	.LBB9_290
	jmp	.LBB9_826
.LBB9_290:                              # %originalBB437
                                        #   in Loop: Header=BB9_72 Depth=2
	movq	-88(%rbp), %rax         # 8-byte Reload
	movb	(%rax), %al
	movl	x.17, %ecx
	movl	y.18, %edx
	movl	%ecx, %esi
	subl	$1, %esi
	imull	%esi, %ecx
	andl	$1, %ecx
	cmpl	$0, %ecx
	sete	%cl
	cmpl	$10, %edx
	setl	%dl
	orb	%dl, %cl
	testb	$1, %cl
	jne	.LBB9_291
	jmp	.LBB9_826
.LBB9_291:                              # %originalBBpart2439
                                        #   in Loop: Header=BB9_72 Depth=2
	testb	$1, %al
	jne	.LBB9_292
	jmp	.LBB9_293
.LBB9_292:                              #   in Loop: Header=BB9_72 Depth=2
	movq	-136(%rbp), %rax        # 8-byte Reload
	movb	(%rax), %al
	movq	-104(%rbp), %rcx        # 8-byte Reload
	movb	%al, (%rcx)
	jmp	.LBB9_585
.LBB9_293:                              #   in Loop: Header=BB9_72 Depth=2
	movl	x.17, %eax
	movl	y.18, %ecx
	movl	%eax, %edx
	subl	$1, %edx
	imull	%edx, %eax
	andl	$1, %eax
	cmpl	$0, %eax
	sete	%al
	cmpl	$10, %ecx
	setl	%cl
	orb	%cl, %al
	testb	$1, %al
	jne	.LBB9_294
	jmp	.LBB9_827
.LBB9_294:                              # %originalBB441
                                        #   in Loop: Header=BB9_72 Depth=2
	movl	x.17, %eax
	movl	y.18, %ecx
	movl	%eax, %edx
	subl	$1, %edx
	imull	%edx, %eax
	andl	$1, %eax
	cmpl	$0, %eax
	sete	%al
	cmpl	$10, %ecx
	setl	%cl
	orb	%cl, %al
	testb	$1, %al
	jne	.LBB9_295
	jmp	.LBB9_827
.LBB9_295:                              # %originalBBpart2443
                                        #   in Loop: Header=BB9_72 Depth=2
	jmp	.LBB9_569
.LBB9_296:                              #   in Loop: Header=BB9_72 Depth=2
	cmpq	$-1, (%r10)
	jne	.LBB9_298
# %bb.297:                              #   in Loop: Header=BB9_72 Depth=2
	movq	-64(%rbp), %rax         # 8-byte Reload
	movq	(%rax), %rax
	movsbl	1(%rax), %eax
	cmpl	$0, %eax
	je	.LBB9_304
	jmp	.LBB9_301
.LBB9_298:                              #   in Loop: Header=BB9_72 Depth=2
	movl	x.17, %eax
	movl	y.18, %ecx
	movl	%eax, %edx
	subl	$1, %edx
	imull	%edx, %eax
	andl	$1, %eax
	cmpl	$0, %eax
	sete	%al
	cmpl	$10, %ecx
	setl	%cl
	orb	%cl, %al
	testb	$1, %al
	jne	.LBB9_299
	jmp	.LBB9_828
.LBB9_299:                              # %originalBB445
                                        #   in Loop: Header=BB9_72 Depth=2
	cmpq	$1, (%r10)
	sete	%al
	movl	x.17, %ecx
	movl	y.18, %edx
	movl	%ecx, %esi
	subl	$1, %esi
	imull	%esi, %ecx
	andl	$1, %ecx
	cmpl	$0, %ecx
	sete	%cl
	cmpl	$10, %edx
	setl	%dl
	orb	%dl, %cl
	testb	$1, %cl
	jne	.LBB9_300
	jmp	.LBB9_828
.LBB9_300:                              # %originalBBpart2447
                                        #   in Loop: Header=BB9_72 Depth=2
	testb	$1, %al
	jne	.LBB9_304
	jmp	.LBB9_301
.LBB9_301:                              #   in Loop: Header=BB9_72 Depth=2
	movl	x.17, %eax
	movl	y.18, %ecx
	movl	%eax, %edx
	subl	$1, %edx
	imull	%edx, %eax
	andl	$1, %eax
	cmpl	$0, %eax
	sete	%al
	cmpl	$10, %ecx
	setl	%cl
	orb	%cl, %al
	testb	$1, %al
	jne	.LBB9_302
	jmp	.LBB9_829
.LBB9_302:                              # %originalBB449
                                        #   in Loop: Header=BB9_72 Depth=2
	movl	x.17, %eax
	movl	y.18, %ecx
	movl	%eax, %edx
	subl	$1, %edx
	imull	%edx, %eax
	andl	$1, %eax
	cmpl	$0, %eax
	sete	%al
	cmpl	$10, %ecx
	setl	%cl
	orb	%cl, %al
	testb	$1, %al
	jne	.LBB9_303
	jmp	.LBB9_829
.LBB9_303:                              # %originalBBpart2451
                                        #   in Loop: Header=BB9_72 Depth=2
	jmp	.LBB9_569
.LBB9_304:                              #   in Loop: Header=BB9_72 Depth=2
	jmp	.LBB9_305
.LBB9_305:                              #   in Loop: Header=BB9_72 Depth=2
	movl	x.17, %eax
	movl	y.18, %ecx
	movl	%eax, %edx
	subl	$1, %edx
	imull	%edx, %eax
	andl	$1, %eax
	cmpl	$0, %eax
	sete	%al
	cmpl	$10, %ecx
	setl	%cl
	orb	%cl, %al
	testb	$1, %al
	jne	.LBB9_306
	jmp	.LBB9_830
.LBB9_306:                              # %originalBB453
                                        #   in Loop: Header=BB9_72 Depth=2
	cmpq	$0, (%r13)
	setne	%al
	movl	x.17, %ecx
	movl	y.18, %edx
	movl	%ecx, %esi
	subl	$1, %esi
	imull	%esi, %ecx
	andl	$1, %ecx
	cmpl	$0, %ecx
	sete	%cl
	cmpl	$10, %edx
	setl	%dl
	orb	%dl, %cl
	testb	$1, %cl
	jne	.LBB9_307
	jmp	.LBB9_830
.LBB9_307:                              # %originalBBpart2455
                                        #   in Loop: Header=BB9_72 Depth=2
	testb	$1, %al
	jne	.LBB9_308
	jmp	.LBB9_311
.LBB9_308:                              #   in Loop: Header=BB9_72 Depth=2
	movl	x.17, %eax
	movl	y.18, %ecx
	movl	%eax, %edx
	subl	$1, %edx
	imull	%edx, %eax
	andl	$1, %eax
	cmpl	$0, %eax
	sete	%al
	cmpl	$10, %ecx
	setl	%cl
	orb	%cl, %al
	testb	$1, %al
	jne	.LBB9_309
	jmp	.LBB9_831
.LBB9_309:                              # %originalBB457
                                        #   in Loop: Header=BB9_72 Depth=2
	movl	x.17, %eax
	movl	y.18, %ecx
	movl	%eax, %edx
	subl	$1, %edx
	imull	%edx, %eax
	andl	$1, %eax
	cmpl	$0, %eax
	sete	%al
	cmpl	$10, %ecx
	setl	%cl
	orb	%cl, %al
	testb	$1, %al
	jne	.LBB9_310
	jmp	.LBB9_831
.LBB9_310:                              # %originalBBpart2459
                                        #   in Loop: Header=BB9_72 Depth=2
	jmp	.LBB9_569
.LBB9_311:                              #   in Loop: Header=BB9_72 Depth=2
	movl	x.17, %eax
	movl	y.18, %ecx
	movl	%eax, %edx
	subl	$1, %edx
	imull	%edx, %eax
	andl	$1, %eax
	cmpl	$0, %eax
	sete	%al
	cmpl	$10, %ecx
	setl	%cl
	orb	%cl, %al
	testb	$1, %al
	jne	.LBB9_312
	jmp	.LBB9_832
.LBB9_312:                              # %originalBB461
                                        #   in Loop: Header=BB9_72 Depth=2
	movl	x.17, %eax
	movl	y.18, %ecx
	movl	%eax, %edx
	subl	$1, %edx
	imull	%edx, %eax
	andl	$1, %eax
	cmpl	$0, %eax
	sete	%al
	cmpl	$10, %ecx
	setl	%cl
	orb	%cl, %al
	testb	$1, %al
	jne	.LBB9_313
	jmp	.LBB9_832
.LBB9_313:                              # %originalBBpart2463
                                        #   in Loop: Header=BB9_72 Depth=2
	jmp	.LBB9_314
.LBB9_314:                              #   in Loop: Header=BB9_72 Depth=2
	movl	x.17, %eax
	movl	y.18, %ecx
	movl	%eax, %edx
	subl	$1, %edx
	imull	%edx, %eax
	andl	$1, %eax
	cmpl	$0, %eax
	sete	%al
	cmpl	$10, %ecx
	setl	%cl
	orb	%cl, %al
	testb	$1, %al
	jne	.LBB9_315
	jmp	.LBB9_833
.LBB9_315:                              # %originalBB465
                                        #   in Loop: Header=BB9_72 Depth=2
	movb	$1, (%r14)
	movl	x.17, %eax
	movl	y.18, %ecx
	movl	%eax, %edx
	subl	$1, %edx
	imull	%edx, %eax
	andl	$1, %eax
	cmpl	$0, %eax
	sete	%al
	cmpl	$10, %ecx
	setl	%cl
	orb	%cl, %al
	testb	$1, %al
	jne	.LBB9_316
	jmp	.LBB9_833
.LBB9_316:                              # %originalBBpart2467
                                        #   in Loop: Header=BB9_72 Depth=2
	jmp	.LBB9_317
.LBB9_317:                              #   in Loop: Header=BB9_72 Depth=2
	movl	x.17, %eax
	movl	y.18, %ecx
	movl	%eax, %edx
	subl	$1, %edx
	imull	%edx, %eax
	andl	$1, %eax
	cmpl	$0, %eax
	sete	%al
	cmpl	$10, %ecx
	setl	%cl
	orb	%cl, %al
	testb	$1, %al
	jne	.LBB9_318
	jmp	.LBB9_834
.LBB9_318:                              # %originalBB469
                                        #   in Loop: Header=BB9_72 Depth=2
	cmpl	$2, (%r9)
	sete	%al
	movl	x.17, %ecx
	movl	y.18, %edx
	movl	%ecx, %esi
	subl	$1, %esi
	imull	%esi, %ecx
	andl	$1, %ecx
	cmpl	$0, %ecx
	sete	%cl
	cmpl	$10, %edx
	setl	%dl
	orb	%dl, %cl
	testb	$1, %cl
	jne	.LBB9_319
	jmp	.LBB9_834
.LBB9_319:                              # %originalBBpart2471
                                        #   in Loop: Header=BB9_72 Depth=2
	testb	$1, %al
	jne	.LBB9_320
	jmp	.LBB9_324
.LBB9_320:                              #   in Loop: Header=BB9_72 Depth=2
	movl	x.17, %eax
	movl	y.18, %ecx
	movl	%eax, %edx
	subl	$1, %edx
	imull	%edx, %eax
	andl	$1, %eax
	cmpl	$0, %eax
	sete	%al
	cmpl	$10, %ecx
	setl	%cl
	orb	%cl, %al
	testb	$1, %al
	jne	.LBB9_321
	jmp	.LBB9_835
.LBB9_321:                              # %originalBB473
                                        #   in Loop: Header=BB9_72 Depth=2
	movb	(%r11), %al
	movl	x.17, %ecx
	movl	y.18, %edx
	movl	%ecx, %esi
	subl	$1, %esi
	imull	%esi, %ecx
	andl	$1, %ecx
	cmpl	$0, %ecx
	sete	%cl
	cmpl	$10, %edx
	setl	%dl
	orb	%dl, %cl
	testb	$1, %cl
	jne	.LBB9_322
	jmp	.LBB9_835
.LBB9_322:                              # %originalBBpart2475
                                        #   in Loop: Header=BB9_72 Depth=2
	testb	$1, %al
	jne	.LBB9_323
	jmp	.LBB9_324
.LBB9_323:
	movq	%r15, %rdi
	movq	-72(%rbp), %r11         # 8-byte Reload
	movq	-80(%rbp), %r10         # 8-byte Reload
	movq	-64(%rbp), %rbx         # 8-byte Reload
	jmp	.LBB9_749
.LBB9_324:                              #   in Loop: Header=BB9_72 Depth=2
	movl	x.17, %eax
	movl	y.18, %ecx
	movl	%eax, %edx
	subl	$1, %edx
	imull	%edx, %eax
	andl	$1, %eax
	cmpl	$0, %eax
	sete	%al
	cmpl	$10, %ecx
	setl	%cl
	orb	%cl, %al
	testb	$1, %al
	jne	.LBB9_325
	jmp	.LBB9_836
.LBB9_325:                              # %originalBB477
                                        #   in Loop: Header=BB9_72 Depth=2
	movl	x.17, %eax
	movl	y.18, %ecx
	movl	%eax, %edx
	subl	$1, %edx
	imull	%edx, %eax
	andl	$1, %eax
	cmpl	$0, %eax
	sete	%al
	cmpl	$10, %ecx
	setl	%cl
	orb	%cl, %al
	testb	$1, %al
	jne	.LBB9_326
	jmp	.LBB9_836
.LBB9_326:                              # %originalBBpart2479
                                        #   in Loop: Header=BB9_72 Depth=2
	jmp	.LBB9_569
.LBB9_327:                              #   in Loop: Header=BB9_72 Depth=2
	movl	x.17, %eax
	movl	y.18, %ecx
	movl	%eax, %edx
	subl	$1, %edx
	imull	%edx, %eax
	andl	$1, %eax
	cmpl	$0, %eax
	sete	%al
	cmpl	$10, %ecx
	setl	%cl
	orb	%cl, %al
	testb	$1, %al
	movq	-224(%rbp), %rcx        # 8-byte Reload
	jne	.LBB9_328
	jmp	.LBB9_837
.LBB9_328:                              # %originalBB481
                                        #   in Loop: Header=BB9_72 Depth=2
	movb	$1, (%rcx)
	movb	$1, (%r14)
	cmpl	$2, (%r9)
	sete	%al
	movl	x.17, %ecx
	movl	y.18, %edx
	movl	%ecx, %esi
	subl	$1, %esi
	imull	%esi, %ecx
	andl	$1, %ecx
	cmpl	$0, %ecx
	sete	%cl
	cmpl	$10, %edx
	setl	%dl
	orb	%dl, %cl
	testb	$1, %cl
	movq	-224(%rbp), %rcx        # 8-byte Reload
	jne	.LBB9_329
	jmp	.LBB9_837
.LBB9_329:                              # %originalBBpart2483
                                        #   in Loop: Header=BB9_72 Depth=2
	testb	$1, %al
	jne	.LBB9_330
	jmp	.LBB9_366
.LBB9_330:                              #   in Loop: Header=BB9_72 Depth=2
	testb	$1, (%r11)
	je	.LBB9_332
# %bb.331:
	movq	%r15, %rdi
	movq	-72(%rbp), %r11         # 8-byte Reload
	movq	-80(%rbp), %r10         # 8-byte Reload
	movq	-64(%rbp), %rbx         # 8-byte Reload
	jmp	.LBB9_749
.LBB9_332:                              #   in Loop: Header=BB9_72 Depth=2
	movq	-56(%rbp), %rax         # 8-byte Reload
	cmpq	$0, (%rax)
	je	.LBB9_337
# %bb.333:                              #   in Loop: Header=BB9_72 Depth=2
	movq	-200(%rbp), %rax        # 8-byte Reload
	cmpq	$0, (%rax)
	jne	.LBB9_337
# %bb.334:                              #   in Loop: Header=BB9_72 Depth=2
	movl	x.17, %eax
	movl	y.18, %ecx
	movl	%eax, %edx
	subl	$1, %edx
	imull	%edx, %eax
	andl	$1, %eax
	cmpl	$0, %eax
	sete	%al
	cmpl	$10, %ecx
	setl	%cl
	orb	%cl, %al
	testb	$1, %al
	movq	-200(%rbp), %rsi        # 8-byte Reload
	jne	.LBB9_335
	jmp	.LBB9_838
.LBB9_335:                              # %originalBB485
                                        #   in Loop: Header=BB9_72 Depth=2
	movq	-56(%rbp), %rcx         # 8-byte Reload
	movq	(%rcx), %rax
	movq	%rax, (%rsi)
	movq	$0, (%rcx)
	movl	x.17, %eax
	movl	y.18, %ecx
	movl	%eax, %edx
	subl	$1, %edx
	imull	%edx, %eax
	andl	$1, %eax
	cmpl	$0, %eax
	sete	%al
	cmpl	$10, %ecx
	setl	%cl
	orb	%cl, %al
	testb	$1, %al
	jne	.LBB9_336
	jmp	.LBB9_838
.LBB9_336:                              # %originalBBpart2487
                                        #   in Loop: Header=BB9_72 Depth=2
	jmp	.LBB9_337
.LBB9_337:                              #   in Loop: Header=BB9_72 Depth=2
	movl	x.17, %eax
	movl	y.18, %ecx
	movl	%eax, %edx
	subl	$1, %edx
	imull	%edx, %eax
	andl	$1, %eax
	cmpl	$0, %eax
	sete	%al
	cmpl	$10, %ecx
	setl	%cl
	orb	%cl, %al
	testb	$1, %al
	jne	.LBB9_338
	jmp	.LBB9_839
.LBB9_338:                              # %originalBB489
                                        #   in Loop: Header=BB9_72 Depth=2
	movl	x.17, %eax
	movl	y.18, %ecx
	movl	%eax, %edx
	subl	$1, %edx
	imull	%edx, %eax
	andl	$1, %eax
	cmpl	$0, %eax
	sete	%al
	cmpl	$10, %ecx
	setl	%cl
	orb	%cl, %al
	testb	$1, %al
	jne	.LBB9_339
	jmp	.LBB9_839
.LBB9_339:                              # %originalBBpart2491
                                        #   in Loop: Header=BB9_72 Depth=2
	jmp	.LBB9_340
.LBB9_340:                              #   in Loop: Header=BB9_72 Depth=2
	movq	-48(%rbp), %rax         # 8-byte Reload
	movq	(%rax), %rax
	movq	-56(%rbp), %rcx         # 8-byte Reload
	cmpq	(%rcx), %rax
	jae	.LBB9_344
# %bb.341:                              #   in Loop: Header=BB9_72 Depth=2
	movl	x.17, %eax
	movl	y.18, %ecx
	movl	%eax, %edx
	subl	$1, %edx
	imull	%edx, %eax
	andl	$1, %eax
	cmpl	$0, %eax
	sete	%al
	cmpl	$10, %ecx
	setl	%cl
	orb	%cl, %al
	testb	$1, %al
	jne	.LBB9_342
	jmp	.LBB9_840
.LBB9_342:                              # %originalBB493
                                        #   in Loop: Header=BB9_72 Depth=2
	movq	(%r15), %rax
	movq	-48(%rbp), %rcx         # 8-byte Reload
	movq	(%rcx), %rcx
	movb	$39, (%rax,%rcx)
	movl	x.17, %eax
	movl	y.18, %ecx
	movl	%eax, %edx
	subl	$1, %edx
	imull	%edx, %eax
	andl	$1, %eax
	cmpl	$0, %eax
	sete	%al
	cmpl	$10, %ecx
	setl	%cl
	orb	%cl, %al
	testb	$1, %al
	jne	.LBB9_343
	jmp	.LBB9_840
.LBB9_343:                              # %originalBBpart2495
                                        #   in Loop: Header=BB9_72 Depth=2
	jmp	.LBB9_344
.LBB9_344:                              #   in Loop: Header=BB9_72 Depth=2
	movq	-48(%rbp), %rcx         # 8-byte Reload
	movq	(%rcx), %rax
	addq	$1, %rax
	movq	%rax, (%rcx)
# %bb.345:                              #   in Loop: Header=BB9_72 Depth=2
	jmp	.LBB9_346
.LBB9_346:                              #   in Loop: Header=BB9_72 Depth=2
	movl	x.17, %eax
	movl	y.18, %ecx
	movl	%eax, %edx
	subl	$1, %edx
	imull	%edx, %eax
	andl	$1, %eax
	cmpl	$0, %eax
	sete	%al
	cmpl	$10, %ecx
	setl	%cl
	orb	%cl, %al
	testb	$1, %al
	jne	.LBB9_347
	jmp	.LBB9_841
.LBB9_347:                              # %originalBB497
                                        #   in Loop: Header=BB9_72 Depth=2
	movq	-48(%rbp), %rax         # 8-byte Reload
	movq	(%rax), %rax
	movq	-56(%rbp), %rcx         # 8-byte Reload
	cmpq	(%rcx), %rax
	setb	%al
	movl	x.17, %ecx
	movl	y.18, %edx
	movl	%ecx, %esi
	subl	$1, %esi
	imull	%esi, %ecx
	andl	$1, %ecx
	cmpl	$0, %ecx
	sete	%cl
	cmpl	$10, %edx
	setl	%dl
	orb	%dl, %cl
	testb	$1, %cl
	jne	.LBB9_348
	jmp	.LBB9_841
.LBB9_348:                              # %originalBBpart2499
                                        #   in Loop: Header=BB9_72 Depth=2
	testb	$1, %al
	jne	.LBB9_349
	jmp	.LBB9_350
.LBB9_349:                              #   in Loop: Header=BB9_72 Depth=2
	movq	(%r15), %rax
	movq	-48(%rbp), %rcx         # 8-byte Reload
	movq	(%rcx), %rcx
	movb	$92, (%rax,%rcx)
.LBB9_350:                              #   in Loop: Header=BB9_72 Depth=2
	movl	x.17, %eax
	movl	y.18, %ecx
	movl	%eax, %edx
	subl	$1, %edx
	imull	%edx, %eax
	andl	$1, %eax
	cmpl	$0, %eax
	sete	%al
	cmpl	$10, %ecx
	setl	%cl
	orb	%cl, %al
	testb	$1, %al
	jne	.LBB9_351
	jmp	.LBB9_842
.LBB9_351:                              # %originalBB501
                                        #   in Loop: Header=BB9_72 Depth=2
	movq	-48(%rbp), %rcx         # 8-byte Reload
	movq	(%rcx), %rax
	addq	$1, %rax
	movq	%rax, (%rcx)
	movl	x.17, %eax
	movl	y.18, %ecx
	movl	%eax, %edx
	subl	$1, %edx
	imull	%edx, %eax
	andl	$1, %eax
	cmpl	$0, %eax
	sete	%al
	cmpl	$10, %ecx
	setl	%cl
	orb	%cl, %al
	testb	$1, %al
	jne	.LBB9_352
	jmp	.LBB9_842
.LBB9_352:                              # %originalBBpart2513
                                        #   in Loop: Header=BB9_72 Depth=2
	jmp	.LBB9_353
.LBB9_353:                              #   in Loop: Header=BB9_72 Depth=2
	movl	x.17, %eax
	movl	y.18, %ecx
	movl	%eax, %edx
	subl	$1, %edx
	imull	%edx, %eax
	andl	$1, %eax
	cmpl	$0, %eax
	sete	%al
	cmpl	$10, %ecx
	setl	%cl
	orb	%cl, %al
	testb	$1, %al
	jne	.LBB9_354
	jmp	.LBB9_843
.LBB9_354:                              # %originalBB515
                                        #   in Loop: Header=BB9_72 Depth=2
	movl	x.17, %eax
	movl	y.18, %ecx
	movl	%eax, %edx
	subl	$1, %edx
	imull	%edx, %eax
	andl	$1, %eax
	cmpl	$0, %eax
	sete	%al
	cmpl	$10, %ecx
	setl	%cl
	orb	%cl, %al
	testb	$1, %al
	jne	.LBB9_355
	jmp	.LBB9_843
.LBB9_355:                              # %originalBBpart2517
                                        #   in Loop: Header=BB9_72 Depth=2
	jmp	.LBB9_356
.LBB9_356:                              #   in Loop: Header=BB9_72 Depth=2
	movl	x.17, %eax
	movl	y.18, %ecx
	movl	%eax, %edx
	subl	$1, %edx
	imull	%edx, %eax
	andl	$1, %eax
	cmpl	$0, %eax
	sete	%al
	cmpl	$10, %ecx
	setl	%cl
	orb	%cl, %al
	testb	$1, %al
	jne	.LBB9_357
	jmp	.LBB9_844
.LBB9_357:                              # %originalBB519
                                        #   in Loop: Header=BB9_72 Depth=2
	movq	-48(%rbp), %rax         # 8-byte Reload
	movq	(%rax), %rax
	movq	-56(%rbp), %rcx         # 8-byte Reload
	cmpq	(%rcx), %rax
	setb	%al
	movl	x.17, %ecx
	movl	y.18, %edx
	movl	%ecx, %esi
	subl	$1, %esi
	imull	%esi, %ecx
	andl	$1, %ecx
	cmpl	$0, %ecx
	sete	%cl
	cmpl	$10, %edx
	setl	%dl
	orb	%dl, %cl
	testb	$1, %cl
	jne	.LBB9_358
	jmp	.LBB9_844
.LBB9_358:                              # %originalBBpart2521
                                        #   in Loop: Header=BB9_72 Depth=2
	testb	$1, %al
	jne	.LBB9_359
	jmp	.LBB9_362
.LBB9_359:                              #   in Loop: Header=BB9_72 Depth=2
	movl	x.17, %eax
	movl	y.18, %ecx
	movl	%eax, %edx
	subl	$1, %edx
	imull	%edx, %eax
	andl	$1, %eax
	cmpl	$0, %eax
	sete	%al
	cmpl	$10, %ecx
	setl	%cl
	orb	%cl, %al
	testb	$1, %al
	jne	.LBB9_360
	jmp	.LBB9_845
.LBB9_360:                              # %originalBB523
                                        #   in Loop: Header=BB9_72 Depth=2
	movq	(%r15), %rax
	movq	-48(%rbp), %rcx         # 8-byte Reload
	movq	(%rcx), %rcx
	movb	$39, (%rax,%rcx)
	movl	x.17, %eax
	movl	y.18, %ecx
	movl	%eax, %edx
	subl	$1, %edx
	imull	%edx, %eax
	andl	$1, %eax
	cmpl	$0, %eax
	sete	%al
	cmpl	$10, %ecx
	setl	%cl
	orb	%cl, %al
	testb	$1, %al
	jne	.LBB9_361
	jmp	.LBB9_845
.LBB9_361:                              # %originalBBpart2525
                                        #   in Loop: Header=BB9_72 Depth=2
	jmp	.LBB9_362
.LBB9_362:                              #   in Loop: Header=BB9_72 Depth=2
	movl	x.17, %eax
	movl	y.18, %ecx
	movl	%eax, %edx
	subl	$1, %edx
	imull	%edx, %eax
	andl	$1, %eax
	cmpl	$0, %eax
	sete	%al
	cmpl	$10, %ecx
	setl	%cl
	orb	%cl, %al
	testb	$1, %al
	jne	.LBB9_363
	jmp	.LBB9_846
.LBB9_363:                              # %originalBB527
                                        #   in Loop: Header=BB9_72 Depth=2
	movq	-48(%rbp), %rcx         # 8-byte Reload
	movq	(%rcx), %rax
	addq	$1, %rax
	movq	%rax, (%rcx)
	movl	x.17, %eax
	movl	y.18, %ecx
	movl	%eax, %edx
	subl	$1, %edx
	imull	%edx, %eax
	andl	$1, %eax
	cmpl	$0, %eax
	sete	%al
	cmpl	$10, %ecx
	setl	%cl
	orb	%cl, %al
	testb	$1, %al
	jne	.LBB9_364
	jmp	.LBB9_846
.LBB9_364:                              # %originalBBpart2539
                                        #   in Loop: Header=BB9_72 Depth=2
	jmp	.LBB9_365
.LBB9_365:                              #   in Loop: Header=BB9_72 Depth=2
	movq	-96(%rbp), %rax         # 8-byte Reload
	movb	$0, (%rax)
.LBB9_366:                              #   in Loop: Header=BB9_72 Depth=2
	jmp	.LBB9_569
.LBB9_367:                              #   in Loop: Header=BB9_72 Depth=2
	movb	$1, (%r14)
	jmp	.LBB9_569
.LBB9_368:                              #   in Loop: Header=BB9_72 Depth=2
	testb	$1, (%r8)
	je	.LBB9_370
# %bb.369:                              #   in Loop: Header=BB9_72 Depth=2
	movq	-128(%rbp), %rbx        # 8-byte Reload
	movq	$1, (%rbx)
	callq	__ctype_b_loc
	movq	(%rax), %rax
	movq	-104(%rbp), %rcx        # 8-byte Reload
	movzbl	(%rcx), %ecx
	movslq	%ecx, %rcx
	movzwl	(%rax,%rcx,2), %eax
	andl	$16384, %eax            # imm = 0x4000
	cmpl	$0, %eax
	setne	%al
	andb	$1, %al
	movq	-160(%rbp), %rdi        # 8-byte Reload
	movb	%al, (%rdi)
	movq	-176(%rbp), %r12        # 8-byte Reload
	movq	-112(%rbp), %r15        # 8-byte Reload
	movq	-152(%rbp), %r8         # 8-byte Reload
	movq	-144(%rbp), %r14        # 8-byte Reload
	jmp	.LBB9_434
.LBB9_370:                              #   in Loop: Header=BB9_72 Depth=2
	movl	x.17, %eax
	movl	y.18, %ecx
	movl	%eax, %edx
	subl	$1, %edx
	imull	%edx, %eax
	andl	$1, %eax
	cmpl	$0, %eax
	sete	%al
	cmpl	$10, %ecx
	setl	%cl
	orb	%cl, %al
	testb	$1, %al
	movq	-160(%rbp), %r14        # 8-byte Reload
	movq	-272(%rbp), %r15        # 8-byte Reload
	jne	.LBB9_371
	jmp	.LBB9_847
.LBB9_371:                              # %originalBB541
                                        #   in Loop: Header=BB9_72 Depth=2
	movq	%r15, %rdi
	xorl	%esi, %esi
	movl	$8, %edx
	callq	memset
	movq	-128(%rbp), %rbx        # 8-byte Reload
	movq	$0, (%rbx)
	movb	$1, (%r14)
	movq	-120(%rbp), %rax        # 8-byte Reload
	cmpq	$-1, (%rax)
	sete	%al
	movl	x.17, %ecx
	movl	y.18, %edx
	movl	%ecx, %esi
	subl	$1, %esi
	imull	%esi, %ecx
	andl	$1, %ecx
	cmpl	$0, %ecx
	sete	%cl
	cmpl	$10, %edx
	setl	%dl
	orb	%dl, %cl
	testb	$1, %cl
	jne	.LBB9_372
	jmp	.LBB9_847
.LBB9_372:                              # %originalBBpart2543
                                        #   in Loop: Header=BB9_72 Depth=2
	testb	$1, %al
	jne	.LBB9_373
	jmp	.LBB9_374
.LBB9_373:                              #   in Loop: Header=BB9_72 Depth=2
	movq	-64(%rbp), %rax         # 8-byte Reload
	movq	(%rax), %rdi
	callq	strlen
	movq	-128(%rbp), %rbx        # 8-byte Reload
	movq	-120(%rbp), %rcx        # 8-byte Reload
	movq	%rax, (%rcx)
.LBB9_374:                              #   in Loop: Header=BB9_72 Depth=2
	movl	x.17, %eax
	movl	y.18, %ecx
	movl	%eax, %edx
	subl	$1, %edx
	imull	%edx, %eax
	andl	$1, %eax
	cmpl	$0, %eax
	sete	%al
	cmpl	$10, %ecx
	setl	%cl
	orb	%cl, %al
	testb	$1, %al
	movq	-120(%rbp), %rdi        # 8-byte Reload
	movq	-272(%rbp), %r14        # 8-byte Reload
	movq	-344(%rbp), %r15        # 8-byte Reload
	jne	.LBB9_375
	jmp	.LBB9_848
.LBB9_375:                              # %originalBB545
                                        #   in Loop: Header=BB9_72 Depth=2
	movl	x.17, %eax
	movl	y.18, %ecx
	movl	%eax, %edx
	subl	$1, %edx
	imull	%edx, %eax
	andl	$1, %eax
	cmpl	$0, %eax
	sete	%al
	cmpl	$10, %ecx
	setl	%cl
	orb	%cl, %al
	testb	$1, %al
	jne	.LBB9_376
	jmp	.LBB9_848
.LBB9_376:                              # %originalBBpart2547
                                        #   in Loop: Header=BB9_72 Depth=2
	jmp	.LBB9_377
.LBB9_377:                              #   Parent Loop BB9_3 Depth=1
                                        #     Parent Loop BB9_72 Depth=2
                                        # =>    This Loop Header: Depth=3
                                        #         Child Loop BB9_405 Depth 4
	movq	-64(%rbp), %rax         # 8-byte Reload
	movq	(%rax), %rsi
	movq	%r13, %rcx
	movq	(%rcx), %rax
	addq	(%rbx), %rax
	addq	%rax, %rsi
	movq	(%rdi), %rdx
	movq	(%rcx), %rax
	addq	(%rbx), %rax
	subq	%rax, %rdx
	movq	%r15, %rdi
	movq	%r14, %rcx
	callq	rpl_mbrtowc
	movq	-264(%rbp), %rbx        # 8-byte Reload
	movq	%rax, (%rbx)
	cmpq	$0, (%rbx)
	jne	.LBB9_381
# %bb.378:                              #   in Loop: Header=BB9_72 Depth=2
	movl	x.17, %eax
	movl	y.18, %ecx
	movl	%eax, %edx
	subl	$1, %edx
	imull	%edx, %eax
	andl	$1, %eax
	cmpl	$0, %eax
	sete	%al
	cmpl	$10, %ecx
	setl	%cl
	orb	%cl, %al
	testb	$1, %al
	movq	-176(%rbp), %r12        # 8-byte Reload
	movq	-160(%rbp), %rdi        # 8-byte Reload
	jne	.LBB9_379
	jmp	.LBB9_849
.LBB9_379:                              # %originalBB549
                                        #   in Loop: Header=BB9_72 Depth=2
	movl	x.17, %eax
	movl	y.18, %ecx
	movl	%eax, %edx
	subl	$1, %edx
	imull	%edx, %eax
	andl	$1, %eax
	cmpl	$0, %eax
	sete	%al
	cmpl	$10, %ecx
	setl	%cl
	orb	%cl, %al
	testb	$1, %al
	jne	.LBB9_380
	jmp	.LBB9_849
.LBB9_380:                              # %originalBBpart2551
                                        #   in Loop: Header=BB9_72 Depth=2
	movq	-112(%rbp), %r15        # 8-byte Reload
	movq	-152(%rbp), %r8         # 8-byte Reload
	movq	-144(%rbp), %r14        # 8-byte Reload
	movq	-128(%rbp), %rbx        # 8-byte Reload
	jmp	.LBB9_433
.LBB9_381:                              #   in Loop: Header=BB9_377 Depth=3
	movl	x.17, %eax
	movl	y.18, %ecx
	movl	%eax, %edx
	subl	$1, %edx
	imull	%edx, %eax
	andl	$1, %eax
	cmpl	$0, %eax
	sete	%al
	cmpl	$10, %ecx
	setl	%cl
	orb	%cl, %al
	testb	$1, %al
	movq	-160(%rbp), %rdi        # 8-byte Reload
	jne	.LBB9_382
	jmp	.LBB9_850
.LBB9_382:                              # %originalBB553
                                        #   in Loop: Header=BB9_377 Depth=3
	cmpq	$-1, (%rbx)
	sete	%al
	movl	x.17, %ecx
	movl	y.18, %edx
	movl	%ecx, %esi
	subl	$1, %esi
	imull	%esi, %ecx
	andl	$1, %ecx
	cmpl	$0, %ecx
	sete	%cl
	cmpl	$10, %edx
	setl	%dl
	orb	%dl, %cl
	testb	$1, %cl
	jne	.LBB9_383
	jmp	.LBB9_850
.LBB9_383:                              # %originalBBpart2555
                                        #   in Loop: Header=BB9_377 Depth=3
	testb	$1, %al
	movq	-176(%rbp), %r12        # 8-byte Reload
	jne	.LBB9_384
	jmp	.LBB9_385
.LBB9_384:                              #   in Loop: Header=BB9_72 Depth=2
	movb	$0, (%rdi)
	movq	-112(%rbp), %r15        # 8-byte Reload
	movq	-152(%rbp), %r8         # 8-byte Reload
	movq	-144(%rbp), %r14        # 8-byte Reload
	movq	-128(%rbp), %rbx        # 8-byte Reload
	jmp	.LBB9_433
.LBB9_385:                              #   in Loop: Header=BB9_377 Depth=3
	cmpq	$-2, (%rbx)
	movq	-232(%rbp), %r9         # 8-byte Reload
	movq	-248(%rbp), %r8         # 8-byte Reload
	jne	.LBB9_396
# %bb.386:                              #   in Loop: Header=BB9_72 Depth=2
	movl	x.17, %eax
	movl	y.18, %ecx
	movl	%eax, %edx
	subl	$1, %edx
	imull	%edx, %eax
	andl	$1, %eax
	cmpl	$0, %eax
	sete	%al
	cmpl	$10, %ecx
	setl	%cl
	orb	%cl, %al
	testb	$1, %al
	jne	.LBB9_387
	jmp	.LBB9_851
.LBB9_387:                              # %originalBB557
                                        #   in Loop: Header=BB9_72 Depth=2
	movb	$0, (%rdi)
	movl	x.17, %eax
	movl	y.18, %ecx
	movl	%eax, %edx
	subl	$1, %edx
	imull	%edx, %eax
	andl	$1, %eax
	cmpl	$0, %eax
	sete	%al
	cmpl	$10, %ecx
	setl	%cl
	orb	%cl, %al
	testb	$1, %al
	jne	.LBB9_388
	jmp	.LBB9_851
.LBB9_388:                              # %originalBBpart2559
                                        #   in Loop: Header=BB9_72 Depth=2
	movq	-112(%rbp), %r15        # 8-byte Reload
	movq	-152(%rbp), %r8         # 8-byte Reload
	movq	-144(%rbp), %r14        # 8-byte Reload
	movq	-128(%rbp), %rbx        # 8-byte Reload
	jmp	.LBB9_389
.LBB9_389:                              #   Parent Loop BB9_3 Depth=1
                                        #     Parent Loop BB9_72 Depth=2
                                        # =>    This Inner Loop Header: Depth=3
	xorl	%eax, %eax
	movq	(%r13), %rcx
	addq	(%rbx), %rcx
	movq	-120(%rbp), %rdx        # 8-byte Reload
	cmpq	(%rdx), %rcx
	jae	.LBB9_391
# %bb.390:                              #   in Loop: Header=BB9_389 Depth=3
	movq	-64(%rbp), %rax         # 8-byte Reload
	movq	(%rax), %rax
	movq	(%r13), %rcx
	addq	(%rbx), %rcx
	movsbl	(%rax,%rcx), %eax
	cmpl	$0, %eax
	setne	%al
.LBB9_391:                              #   in Loop: Header=BB9_389 Depth=3
	testb	$1, %al
	jne	.LBB9_392
	jmp	.LBB9_395
.LBB9_392:                              #   in Loop: Header=BB9_389 Depth=3
	movl	x.17, %eax
	movl	y.18, %ecx
	movl	%eax, %edx
	subl	$1, %edx
	imull	%edx, %eax
	andl	$1, %eax
	cmpl	$0, %eax
	sete	%al
	cmpl	$10, %ecx
	setl	%cl
	orb	%cl, %al
	testb	$1, %al
	jne	.LBB9_393
	jmp	.LBB9_852
.LBB9_393:                              # %originalBB561
                                        #   in Loop: Header=BB9_389 Depth=3
	movq	(%rbx), %rax
	addq	$1, %rax
	movq	%rax, (%rbx)
	movl	x.17, %eax
	movl	y.18, %ecx
	movl	%eax, %edx
	subl	$1, %edx
	imull	%edx, %eax
	andl	$1, %eax
	cmpl	$0, %eax
	sete	%al
	cmpl	$10, %ecx
	setl	%cl
	orb	%cl, %al
	testb	$1, %al
	jne	.LBB9_394
	jmp	.LBB9_852
.LBB9_394:                              # %originalBBpart2568
                                        #   in Loop: Header=BB9_389 Depth=3
	jmp	.LBB9_389
.LBB9_395:                              #   in Loop: Header=BB9_72 Depth=2
	jmp	.LBB9_433
.LBB9_396:                              #   in Loop: Header=BB9_377 Depth=3
	movl	x.17, %eax
	movl	y.18, %ecx
	movl	%eax, %edx
	subl	$1, %edx
	imull	%edx, %eax
	andl	$1, %eax
	cmpl	$0, %eax
	sete	%al
	cmpl	$10, %ecx
	setl	%cl
	orb	%cl, %al
	testb	$1, %al
	jne	.LBB9_397
	jmp	.LBB9_853
.LBB9_397:                              # %originalBB570
                                        #   in Loop: Header=BB9_377 Depth=3
	movb	(%r8), %al
	movl	x.17, %ecx
	movl	y.18, %edx
	movl	%ecx, %esi
	subl	$1, %esi
	imull	%esi, %ecx
	andl	$1, %ecx
	cmpl	$0, %ecx
	sete	%cl
	cmpl	$10, %edx
	setl	%dl
	orb	%dl, %cl
	testb	$1, %cl
	jne	.LBB9_398
	jmp	.LBB9_853
.LBB9_398:                              # %originalBBpart2572
                                        #   in Loop: Header=BB9_377 Depth=3
	testb	$1, %al
	jne	.LBB9_399
	jmp	.LBB9_421
.LBB9_399:                              #   in Loop: Header=BB9_377 Depth=3
	movl	x.17, %eax
	movl	y.18, %ecx
	movl	%eax, %edx
	subl	$1, %edx
	imull	%edx, %eax
	andl	$1, %eax
	cmpl	$0, %eax
	sete	%al
	cmpl	$10, %ecx
	setl	%cl
	orb	%cl, %al
	testb	$1, %al
	jne	.LBB9_400
	jmp	.LBB9_854
.LBB9_400:                              # %originalBB574
                                        #   in Loop: Header=BB9_377 Depth=3
	cmpl	$2, (%r9)
	sete	%al
	movl	x.17, %ecx
	movl	y.18, %edx
	movl	%ecx, %esi
	subl	$1, %esi
	imull	%esi, %ecx
	andl	$1, %ecx
	cmpl	$0, %ecx
	sete	%cl
	cmpl	$10, %edx
	setl	%dl
	orb	%dl, %cl
	testb	$1, %cl
	jne	.LBB9_401
	jmp	.LBB9_854
.LBB9_401:                              # %originalBBpart2576
                                        #   in Loop: Header=BB9_377 Depth=3
	testb	$1, %al
	jne	.LBB9_402
	jmp	.LBB9_421
.LBB9_402:                              #   in Loop: Header=BB9_377 Depth=3
	movl	x.17, %eax
	movl	y.18, %ecx
	movl	%eax, %edx
	subl	$1, %edx
	imull	%edx, %eax
	andl	$1, %eax
	cmpl	$0, %eax
	sete	%al
	cmpl	$10, %ecx
	setl	%cl
	orb	%cl, %al
	testb	$1, %al
	movq	-336(%rbp), %rdi        # 8-byte Reload
	jne	.LBB9_403
	jmp	.LBB9_855
.LBB9_403:                              # %originalBB578
                                        #   in Loop: Header=BB9_377 Depth=3
	movq	$1, (%rdi)
	movl	x.17, %eax
	movl	y.18, %ecx
	movl	%eax, %edx
	subl	$1, %edx
	imull	%edx, %eax
	andl	$1, %eax
	cmpl	$0, %eax
	sete	%al
	cmpl	$10, %ecx
	setl	%cl
	orb	%cl, %al
	testb	$1, %al
	jne	.LBB9_404
	jmp	.LBB9_855
.LBB9_404:                              # %originalBBpart2580
                                        #   in Loop: Header=BB9_377 Depth=3
	jmp	.LBB9_405
.LBB9_405:                              #   Parent Loop BB9_3 Depth=1
                                        #     Parent Loop BB9_72 Depth=2
                                        #       Parent Loop BB9_377 Depth=3
                                        # =>      This Inner Loop Header: Depth=4
	movq	(%rdi), %rax
	cmpq	(%rbx), %rax
	jae	.LBB9_420
# %bb.406:                              #   in Loop: Header=BB9_405 Depth=4
	movl	x.17, %eax
	movl	y.18, %ecx
	movl	%eax, %edx
	subl	$1, %edx
	imull	%edx, %eax
	andl	$1, %eax
	cmpl	$0, %eax
	sete	%al
	cmpl	$10, %ecx
	setl	%cl
	orb	%cl, %al
	testb	$1, %al
	jne	.LBB9_407
	jmp	.LBB9_856
.LBB9_407:                              # %originalBB582
                                        #   in Loop: Header=BB9_405 Depth=4
	movq	-64(%rbp), %rax         # 8-byte Reload
	movq	(%rax), %rax
	movq	(%r13), %rcx
	movq	-128(%rbp), %rdx        # 8-byte Reload
	addq	(%rdx), %rcx
	addq	(%rdi), %rcx
	movsbl	(%rax,%rcx), %eax
	movl	x.17, %ecx
	movl	y.18, %edx
	movl	%ecx, %esi
	subl	$1, %esi
	imull	%esi, %ecx
	andl	$1, %ecx
	cmpl	$0, %ecx
	sete	%cl
	cmpl	$10, %edx
	setl	%dl
	orb	%dl, %cl
	testb	$1, %cl
	jne	.LBB9_408
	jmp	.LBB9_856
.LBB9_408:                              # %originalBBpart2598
                                        #   in Loop: Header=BB9_405 Depth=4
	movl	%eax, %ecx
	addl	$-91, %ecx
	subl	$2, %ecx
	jb	.LBB9_412
	jmp	.LBB9_409
.LBB9_409:                              # %originalBBpart2598
                                        #   in Loop: Header=BB9_405 Depth=4
	movl	%eax, %ecx
	subl	$94, %ecx
	je	.LBB9_412
	jmp	.LBB9_410
.LBB9_410:                              # %originalBBpart2598
                                        #   in Loop: Header=BB9_405 Depth=4
	movl	%eax, %ecx
	subl	$96, %ecx
	je	.LBB9_412
	jmp	.LBB9_411
.LBB9_411:                              # %originalBBpart2598
                                        #   in Loop: Header=BB9_405 Depth=4
	subl	$124, %eax
	jne	.LBB9_415
	jmp	.LBB9_412
.LBB9_412:
	movl	x.17, %eax
	movl	y.18, %ecx
	movl	%eax, %edx
	subl	$1, %edx
	imull	%edx, %eax
	andl	$1, %eax
	cmpl	$0, %eax
	sete	%al
	cmpl	$10, %ecx
	setl	%cl
	orb	%cl, %al
	testb	$1, %al
	movq	-64(%rbp), %rbx         # 8-byte Reload
	jne	.LBB9_413
	jmp	.LBB9_857
.LBB9_413:                              # %originalBB600
	movl	x.17, %eax
	movl	y.18, %ecx
	movl	%eax, %edx
	subl	$1, %edx
	imull	%edx, %eax
	andl	$1, %eax
	cmpl	$0, %eax
	sete	%al
	cmpl	$10, %ecx
	setl	%cl
	orb	%cl, %al
	testb	$1, %al
	jne	.LBB9_414
	jmp	.LBB9_857
.LBB9_414:                              # %originalBBpart2602
	movq	-72(%rbp), %r11         # 8-byte Reload
	movq	-80(%rbp), %r10         # 8-byte Reload
	movq	-112(%rbp), %rdi        # 8-byte Reload
	jmp	.LBB9_749
.LBB9_415:                              #   in Loop: Header=BB9_405 Depth=4
	movl	x.17, %eax
	movl	y.18, %ecx
	movl	%eax, %edx
	subl	$1, %edx
	imull	%edx, %eax
	andl	$1, %eax
	cmpl	$0, %eax
	sete	%al
	cmpl	$10, %ecx
	setl	%cl
	orb	%cl, %al
	testb	$1, %al
	jne	.LBB9_416
	jmp	.LBB9_858
.LBB9_416:                              # %originalBB604
                                        #   in Loop: Header=BB9_405 Depth=4
	movl	x.17, %eax
	movl	y.18, %ecx
	movl	%eax, %edx
	subl	$1, %edx
	imull	%edx, %eax
	andl	$1, %eax
	cmpl	$0, %eax
	sete	%al
	cmpl	$10, %ecx
	setl	%cl
	orb	%cl, %al
	testb	$1, %al
	jne	.LBB9_417
	jmp	.LBB9_858
.LBB9_417:                              # %originalBBpart2606
                                        #   in Loop: Header=BB9_405 Depth=4
	jmp	.LBB9_418
.LBB9_418:                              #   in Loop: Header=BB9_405 Depth=4
	jmp	.LBB9_419
.LBB9_419:                              #   in Loop: Header=BB9_405 Depth=4
	movq	-336(%rbp), %rdi        # 8-byte Reload
	movq	(%rdi), %rax
	addq	$1, %rax
	movq	%rax, (%rdi)
	movq	-232(%rbp), %r9         # 8-byte Reload
	movq	-272(%rbp), %r14        # 8-byte Reload
	movq	-344(%rbp), %r15        # 8-byte Reload
	movq	-264(%rbp), %rbx        # 8-byte Reload
	jmp	.LBB9_405
.LBB9_420:                              #   in Loop: Header=BB9_377 Depth=3
	jmp	.LBB9_421
.LBB9_421:                              #   in Loop: Header=BB9_377 Depth=3
	movl	(%r15), %edi
	callq	iswprint
	movq	-264(%rbp), %rbx        # 8-byte Reload
	movq	-160(%rbp), %rdi        # 8-byte Reload
	cmpl	$0, %eax
	movq	-128(%rbp), %rsi        # 8-byte Reload
	jne	.LBB9_425
# %bb.422:                              #   in Loop: Header=BB9_377 Depth=3
	movl	x.17, %eax
	movl	y.18, %ecx
	movl	%eax, %edx
	subl	$1, %edx
	imull	%edx, %eax
	andl	$1, %eax
	cmpl	$0, %eax
	sete	%al
	cmpl	$10, %ecx
	setl	%cl
	orb	%cl, %al
	testb	$1, %al
	jne	.LBB9_423
	jmp	.LBB9_859
.LBB9_423:                              # %originalBB608
                                        #   in Loop: Header=BB9_377 Depth=3
	movb	$0, (%rdi)
	movl	x.17, %eax
	movl	y.18, %ecx
	movl	%eax, %edx
	subl	$1, %edx
	imull	%edx, %eax
	andl	$1, %eax
	cmpl	$0, %eax
	sete	%al
	cmpl	$10, %ecx
	setl	%cl
	orb	%cl, %al
	testb	$1, %al
	jne	.LBB9_424
	jmp	.LBB9_859
.LBB9_424:                              # %originalBBpart2610
                                        #   in Loop: Header=BB9_377 Depth=3
	jmp	.LBB9_425
.LBB9_425:                              #   in Loop: Header=BB9_377 Depth=3
	movl	x.17, %eax
	movl	y.18, %ecx
	movl	%eax, %edx
	subl	$1, %edx
	imull	%edx, %eax
	andl	$1, %eax
	cmpl	$0, %eax
	sete	%al
	cmpl	$10, %ecx
	setl	%cl
	orb	%cl, %al
	testb	$1, %al
	jne	.LBB9_426
	jmp	.LBB9_860
.LBB9_426:                              # %originalBB612
                                        #   in Loop: Header=BB9_377 Depth=3
	movq	(%rbx), %rax
	addq	(%rsi), %rax
	movq	%rax, (%rsi)
	movl	x.17, %eax
	movl	y.18, %ecx
	movl	%eax, %edx
	subl	$1, %edx
	imull	%edx, %eax
	andl	$1, %eax
	cmpl	$0, %eax
	sete	%al
	cmpl	$10, %ecx
	setl	%cl
	orb	%cl, %al
	testb	$1, %al
	jne	.LBB9_427
	jmp	.LBB9_860
.LBB9_427:                              # %originalBBpart2624
                                        #   in Loop: Header=BB9_377 Depth=3
	jmp	.LBB9_428
.LBB9_428:                              #   in Loop: Header=BB9_377 Depth=3
	jmp	.LBB9_429
.LBB9_429:                              #   in Loop: Header=BB9_377 Depth=3
	jmp	.LBB9_430
.LBB9_430:                              #   in Loop: Header=BB9_377 Depth=3
	jmp	.LBB9_431
.LBB9_431:                              #   in Loop: Header=BB9_377 Depth=3
	movq	%r14, %rdi
	callq	mbsinit
	cmpl	$0, %eax
	setne	%al
	xorb	$-1, %al
	testb	$1, %al
	movq	-120(%rbp), %rdi        # 8-byte Reload
	movq	-128(%rbp), %rbx        # 8-byte Reload
	jne	.LBB9_377
# %bb.432:                              # %.loopexit
                                        #   in Loop: Header=BB9_72 Depth=2
	movq	-176(%rbp), %r12        # 8-byte Reload
	movq	-112(%rbp), %r15        # 8-byte Reload
	movq	-152(%rbp), %r8         # 8-byte Reload
	movq	-144(%rbp), %r14        # 8-byte Reload
	movq	-160(%rbp), %rdi        # 8-byte Reload
	jmp	.LBB9_433
.LBB9_433:                              #   in Loop: Header=BB9_72 Depth=2
	jmp	.LBB9_434
.LBB9_434:                              #   in Loop: Header=BB9_72 Depth=2
	movl	x.17, %eax
	movl	y.18, %ecx
	movl	%eax, %edx
	subl	$1, %edx
	imull	%edx, %eax
	andl	$1, %eax
	cmpl	$0, %eax
	sete	%al
	cmpl	$10, %ecx
	setl	%cl
	orb	%cl, %al
	testb	$1, %al
	jne	.LBB9_435
	jmp	.LBB9_861
.LBB9_435:                              # %originalBB626
                                        #   in Loop: Header=BB9_72 Depth=2
	movb	(%rdi), %al
	andb	$1, %al
	movb	%al, (%r14)
	movl	$1, %eax
	cmpq	(%rbx), %rax
	setb	%al
	movl	x.17, %ecx
	movl	y.18, %edx
	movl	%ecx, %esi
	subl	$1, %esi
	imull	%esi, %ecx
	andl	$1, %ecx
	cmpl	$0, %ecx
	sete	%cl
	cmpl	$10, %edx
	setl	%dl
	orb	%dl, %cl
	testb	$1, %cl
	jne	.LBB9_436
	jmp	.LBB9_861
.LBB9_436:                              # %originalBBpart2628
                                        #   in Loop: Header=BB9_72 Depth=2
	testb	$1, %al
	movq	-120(%rbp), %r10        # 8-byte Reload
	movq	-232(%rbp), %r9         # 8-byte Reload
	movq	-248(%rbp), %r11        # 8-byte Reload
	movq	-256(%rbp), %rdi        # 8-byte Reload
	jne	.LBB9_441
	jmp	.LBB9_437
.LBB9_437:                              #   in Loop: Header=BB9_72 Depth=2
	movl	x.17, %eax
	movl	y.18, %ecx
	movl	%eax, %edx
	subl	$1, %edx
	imull	%edx, %eax
	andl	$1, %eax
	cmpl	$0, %eax
	sete	%al
	cmpl	$10, %ecx
	setl	%cl
	orb	%cl, %al
	testb	$1, %al
	jne	.LBB9_438
	jmp	.LBB9_862
.LBB9_438:                              # %originalBB630
                                        #   in Loop: Header=BB9_72 Depth=2
	movq	-88(%rbp), %rax         # 8-byte Reload
	movb	(%rax), %al
	movl	x.17, %ecx
	movl	y.18, %edx
	movl	%ecx, %esi
	subl	$1, %esi
	imull	%esi, %ecx
	andl	$1, %ecx
	cmpl	$0, %ecx
	sete	%cl
	cmpl	$10, %edx
	setl	%dl
	orb	%dl, %cl
	testb	$1, %cl
	jne	.LBB9_439
	jmp	.LBB9_862
.LBB9_439:                              # %originalBBpart2632
                                        #   in Loop: Header=BB9_72 Depth=2
	testb	$1, %al
	jne	.LBB9_440
	jmp	.LBB9_568
.LBB9_440:                              #   in Loop: Header=BB9_72 Depth=2
	movq	-160(%rbp), %rax        # 8-byte Reload
	testb	$1, (%rax)
	jne	.LBB9_568
.LBB9_441:                              #   in Loop: Header=BB9_72 Depth=2
	movq	(%r13), %rax
	movq	-128(%rbp), %rcx        # 8-byte Reload
	addq	(%rcx), %rax
	movq	-328(%rbp), %rcx        # 8-byte Reload
	movq	%rax, (%rcx)
.LBB9_442:                              #   Parent Loop BB9_3 Depth=1
                                        #     Parent Loop BB9_72 Depth=2
                                        # =>    This Inner Loop Header: Depth=3
	movq	-88(%rbp), %rax         # 8-byte Reload
	testb	$1, (%rax)
	je	.LBB9_516
# %bb.443:                              #   in Loop: Header=BB9_442 Depth=3
	movl	x.17, %eax
	movl	y.18, %ecx
	movl	%eax, %edx
	subl	$1, %edx
	imull	%edx, %eax
	andl	$1, %eax
	cmpl	$0, %eax
	sete	%al
	cmpl	$10, %ecx
	setl	%cl
	orb	%cl, %al
	testb	$1, %al
	jne	.LBB9_444
	jmp	.LBB9_863
.LBB9_444:                              # %originalBB634
                                        #   in Loop: Header=BB9_442 Depth=3
	movq	-160(%rbp), %rax        # 8-byte Reload
	movb	(%rax), %al
	movl	x.17, %ecx
	movl	y.18, %edx
	movl	%ecx, %esi
	subl	$1, %esi
	imull	%esi, %ecx
	andl	$1, %ecx
	cmpl	$0, %ecx
	sete	%cl
	cmpl	$10, %edx
	setl	%dl
	orb	%dl, %cl
	testb	$1, %cl
	jne	.LBB9_445
	jmp	.LBB9_863
.LBB9_445:                              # %originalBBpart2636
                                        #   in Loop: Header=BB9_442 Depth=3
	testb	$1, %al
	jne	.LBB9_516
	jmp	.LBB9_446
.LBB9_446:                              #   in Loop: Header=BB9_442 Depth=3
	movl	x.17, %eax
	movl	y.18, %ecx
	movl	%eax, %edx
	subl	$1, %edx
	imull	%edx, %eax
	andl	$1, %eax
	cmpl	$0, %eax
	sete	%al
	cmpl	$10, %ecx
	setl	%cl
	orb	%cl, %al
	testb	$1, %al
	jne	.LBB9_447
	jmp	.LBB9_864
.LBB9_447:                              # %originalBB638
                                        #   in Loop: Header=BB9_442 Depth=3
	movl	x.17, %eax
	movl	y.18, %ecx
	movl	%eax, %edx
	subl	$1, %edx
	imull	%edx, %eax
	andl	$1, %eax
	cmpl	$0, %eax
	sete	%al
	cmpl	$10, %ecx
	setl	%cl
	orb	%cl, %al
	testb	$1, %al
	jne	.LBB9_448
	jmp	.LBB9_864
.LBB9_448:                              # %originalBBpart2640
                                        #   in Loop: Header=BB9_442 Depth=3
	jmp	.LBB9_449
.LBB9_449:                              #   in Loop: Header=BB9_442 Depth=3
	movl	x.17, %eax
	movl	y.18, %ecx
	movl	%eax, %edx
	subl	$1, %edx
	imull	%edx, %eax
	andl	$1, %eax
	cmpl	$0, %eax
	sete	%al
	cmpl	$10, %ecx
	setl	%cl
	orb	%cl, %al
	testb	$1, %al
	jne	.LBB9_450
	jmp	.LBB9_865
.LBB9_450:                              # %originalBB642
                                        #   in Loop: Header=BB9_442 Depth=3
	movb	(%r11), %al
	movl	x.17, %ecx
	movl	y.18, %edx
	movl	%ecx, %esi
	subl	$1, %esi
	imull	%esi, %ecx
	andl	$1, %ecx
	cmpl	$0, %ecx
	sete	%cl
	cmpl	$10, %edx
	setl	%dl
	orb	%dl, %cl
	testb	$1, %cl
	jne	.LBB9_451
	jmp	.LBB9_865
.LBB9_451:                              # %originalBBpart2644
                                        #   in Loop: Header=BB9_442 Depth=3
	testb	$1, %al
	jne	.LBB9_452
	jmp	.LBB9_453
.LBB9_452:
	movq	%r15, %rdi
	movq	-72(%rbp), %r11         # 8-byte Reload
	movq	-80(%rbp), %r10         # 8-byte Reload
	movq	-64(%rbp), %rbx         # 8-byte Reload
	jmp	.LBB9_749
.LBB9_453:                              #   in Loop: Header=BB9_442 Depth=3
	movl	x.17, %eax
	movl	y.18, %ecx
	movl	%eax, %edx
	subl	$1, %edx
	imull	%edx, %eax
	andl	$1, %eax
	cmpl	$0, %eax
	sete	%al
	cmpl	$10, %ecx
	setl	%cl
	orb	%cl, %al
	testb	$1, %al
	movq	-184(%rbp), %r14        # 8-byte Reload
	jne	.LBB9_454
	jmp	.LBB9_866
.LBB9_454:                              # %originalBB646
                                        #   in Loop: Header=BB9_442 Depth=3
	movb	$1, (%r14)
	cmpl	$2, (%r9)
	sete	%al
	movl	x.17, %ecx
	movl	y.18, %edx
	movl	%ecx, %esi
	subl	$1, %esi
	imull	%esi, %ecx
	andl	$1, %ecx
	cmpl	$0, %ecx
	sete	%cl
	cmpl	$10, %edx
	setl	%dl
	orb	%dl, %cl
	testb	$1, %cl
	jne	.LBB9_455
	jmp	.LBB9_866
.LBB9_455:                              # %originalBBpart2648
                                        #   in Loop: Header=BB9_442 Depth=3
	testb	$1, %al
	movq	-144(%rbp), %r14        # 8-byte Reload
	movq	-120(%rbp), %r10        # 8-byte Reload
	jne	.LBB9_456
	jmp	.LBB9_482
.LBB9_456:                              #   in Loop: Header=BB9_442 Depth=3
	movq	-96(%rbp), %rax         # 8-byte Reload
	testb	$1, (%rax)
	jne	.LBB9_482
# %bb.457:                              #   in Loop: Header=BB9_442 Depth=3
	jmp	.LBB9_458
.LBB9_458:                              #   in Loop: Header=BB9_442 Depth=3
	movl	x.17, %eax
	movl	y.18, %ecx
	movl	%eax, %edx
	subl	$1, %edx
	imull	%edx, %eax
	andl	$1, %eax
	cmpl	$0, %eax
	sete	%al
	cmpl	$10, %ecx
	setl	%cl
	orb	%cl, %al
	testb	$1, %al
	jne	.LBB9_459
	jmp	.LBB9_867
.LBB9_459:                              # %originalBB650
                                        #   in Loop: Header=BB9_442 Depth=3
	movq	-48(%rbp), %rax         # 8-byte Reload
	movq	(%rax), %rax
	movq	-56(%rbp), %rcx         # 8-byte Reload
	cmpq	(%rcx), %rax
	setb	%al
	movl	x.17, %ecx
	movl	y.18, %edx
	movl	%ecx, %esi
	subl	$1, %esi
	imull	%esi, %ecx
	andl	$1, %ecx
	cmpl	$0, %ecx
	sete	%cl
	cmpl	$10, %edx
	setl	%dl
	orb	%dl, %cl
	testb	$1, %cl
	jne	.LBB9_460
	jmp	.LBB9_867
.LBB9_460:                              # %originalBBpart2652
                                        #   in Loop: Header=BB9_442 Depth=3
	testb	$1, %al
	jne	.LBB9_461
	jmp	.LBB9_464
.LBB9_461:                              #   in Loop: Header=BB9_442 Depth=3
	movl	x.17, %eax
	movl	y.18, %ecx
	movl	%eax, %edx
	subl	$1, %edx
	imull	%edx, %eax
	andl	$1, %eax
	cmpl	$0, %eax
	sete	%al
	cmpl	$10, %ecx
	setl	%cl
	orb	%cl, %al
	testb	$1, %al
	jne	.LBB9_462
	jmp	.LBB9_868
.LBB9_462:                              # %originalBB654
                                        #   in Loop: Header=BB9_442 Depth=3
	movq	(%r15), %rax
	movq	-48(%rbp), %rcx         # 8-byte Reload
	movq	(%rcx), %rcx
	movb	$39, (%rax,%rcx)
	movl	x.17, %eax
	movl	y.18, %ecx
	movl	%eax, %edx
	subl	$1, %edx
	imull	%edx, %eax
	andl	$1, %eax
	cmpl	$0, %eax
	sete	%al
	cmpl	$10, %ecx
	setl	%cl
	orb	%cl, %al
	testb	$1, %al
	jne	.LBB9_463
	jmp	.LBB9_868
.LBB9_463:                              # %originalBBpart2656
                                        #   in Loop: Header=BB9_442 Depth=3
	jmp	.LBB9_464
.LBB9_464:                              #   in Loop: Header=BB9_442 Depth=3
	movl	x.17, %eax
	movl	y.18, %ecx
	movl	%eax, %edx
	subl	$1, %edx
	imull	%edx, %eax
	andl	$1, %eax
	cmpl	$0, %eax
	sete	%al
	cmpl	$10, %ecx
	setl	%cl
	orb	%cl, %al
	testb	$1, %al
	jne	.LBB9_465
	jmp	.LBB9_869
.LBB9_465:                              # %originalBB658
                                        #   in Loop: Header=BB9_442 Depth=3
	movq	-48(%rbp), %rcx         # 8-byte Reload
	movq	(%rcx), %rax
	addq	$1, %rax
	movq	%rax, (%rcx)
	movl	x.17, %eax
	movl	y.18, %ecx
	movl	%eax, %edx
	subl	$1, %edx
	imull	%edx, %eax
	andl	$1, %eax
	cmpl	$0, %eax
	sete	%al
	cmpl	$10, %ecx
	setl	%cl
	orb	%cl, %al
	testb	$1, %al
	jne	.LBB9_466
	jmp	.LBB9_869
.LBB9_466:                              # %originalBBpart2672
                                        #   in Loop: Header=BB9_442 Depth=3
	jmp	.LBB9_467
.LBB9_467:                              #   in Loop: Header=BB9_442 Depth=3
	jmp	.LBB9_468
.LBB9_468:                              #   in Loop: Header=BB9_442 Depth=3
	movl	x.17, %eax
	movl	y.18, %ecx
	movl	%eax, %edx
	subl	$1, %edx
	imull	%edx, %eax
	andl	$1, %eax
	cmpl	$0, %eax
	sete	%al
	cmpl	$10, %ecx
	setl	%cl
	orb	%cl, %al
	testb	$1, %al
	jne	.LBB9_469
	jmp	.LBB9_870
.LBB9_469:                              # %originalBB674
                                        #   in Loop: Header=BB9_442 Depth=3
	movq	-48(%rbp), %rax         # 8-byte Reload
	movq	(%rax), %rax
	movq	-56(%rbp), %rcx         # 8-byte Reload
	cmpq	(%rcx), %rax
	setb	%al
	movl	x.17, %ecx
	movl	y.18, %edx
	movl	%ecx, %esi
	subl	$1, %esi
	imull	%esi, %ecx
	andl	$1, %ecx
	cmpl	$0, %ecx
	sete	%cl
	cmpl	$10, %edx
	setl	%dl
	orb	%dl, %cl
	testb	$1, %cl
	jne	.LBB9_470
	jmp	.LBB9_870
.LBB9_470:                              # %originalBBpart2676
                                        #   in Loop: Header=BB9_442 Depth=3
	testb	$1, %al
	jne	.LBB9_471
	jmp	.LBB9_472
.LBB9_471:                              #   in Loop: Header=BB9_442 Depth=3
	movq	(%r15), %rax
	movq	-48(%rbp), %rcx         # 8-byte Reload
	movq	(%rcx), %rcx
	movb	$36, (%rax,%rcx)
.LBB9_472:                              #   in Loop: Header=BB9_442 Depth=3
	movq	-48(%rbp), %rcx         # 8-byte Reload
	movq	(%rcx), %rax
	addq	$1, %rax
	movq	%rax, (%rcx)
# %bb.473:                              #   in Loop: Header=BB9_442 Depth=3
	jmp	.LBB9_474
.LBB9_474:                              #   in Loop: Header=BB9_442 Depth=3
	movq	-48(%rbp), %rax         # 8-byte Reload
	movq	(%rax), %rax
	movq	-56(%rbp), %rcx         # 8-byte Reload
	cmpq	(%rcx), %rax
	jae	.LBB9_478
# %bb.475:                              #   in Loop: Header=BB9_442 Depth=3
	movl	x.17, %eax
	movl	y.18, %ecx
	movl	%eax, %edx
	subl	$1, %edx
	imull	%edx, %eax
	andl	$1, %eax
	cmpl	$0, %eax
	sete	%al
	cmpl	$10, %ecx
	setl	%cl
	orb	%cl, %al
	testb	$1, %al
	jne	.LBB9_476
	jmp	.LBB9_871
.LBB9_476:                              # %originalBB678
                                        #   in Loop: Header=BB9_442 Depth=3
	movq	(%r15), %rax
	movq	-48(%rbp), %rcx         # 8-byte Reload
	movq	(%rcx), %rcx
	movb	$39, (%rax,%rcx)
	movl	x.17, %eax
	movl	y.18, %ecx
	movl	%eax, %edx
	subl	$1, %edx
	imull	%edx, %eax
	andl	$1, %eax
	cmpl	$0, %eax
	sete	%al
	cmpl	$10, %ecx
	setl	%cl
	orb	%cl, %al
	testb	$1, %al
	jne	.LBB9_477
	jmp	.LBB9_871
.LBB9_477:                              # %originalBBpart2680
                                        #   in Loop: Header=BB9_442 Depth=3
	jmp	.LBB9_478
.LBB9_478:                              #   in Loop: Header=BB9_442 Depth=3
	movq	-48(%rbp), %rcx         # 8-byte Reload
	movq	(%rcx), %rax
	addq	$1, %rax
	movq	%rax, (%rcx)
# %bb.479:                              #   in Loop: Header=BB9_442 Depth=3
	movl	x.17, %eax
	movl	y.18, %ecx
	movl	%eax, %edx
	subl	$1, %edx
	imull	%edx, %eax
	andl	$1, %eax
	cmpl	$0, %eax
	sete	%al
	cmpl	$10, %ecx
	setl	%cl
	orb	%cl, %al
	testb	$1, %al
	movq	-96(%rbp), %rax         # 8-byte Reload
	jne	.LBB9_480
	jmp	.LBB9_872
.LBB9_480:                              # %originalBB682
                                        #   in Loop: Header=BB9_442 Depth=3
	movb	$1, (%rax)
	movl	x.17, %eax
	movl	y.18, %ecx
	movl	%eax, %edx
	subl	$1, %edx
	imull	%edx, %eax
	andl	$1, %eax
	cmpl	$0, %eax
	sete	%al
	cmpl	$10, %ecx
	setl	%cl
	orb	%cl, %al
	testb	$1, %al
	movq	-96(%rbp), %rax         # 8-byte Reload
	jne	.LBB9_481
	jmp	.LBB9_872
.LBB9_481:                              # %originalBBpart2684
                                        #   in Loop: Header=BB9_442 Depth=3
	jmp	.LBB9_482
.LBB9_482:                              #   in Loop: Header=BB9_442 Depth=3
	movl	x.17, %eax
	movl	y.18, %ecx
	movl	%eax, %edx
	subl	$1, %edx
	imull	%edx, %eax
	andl	$1, %eax
	cmpl	$0, %eax
	sete	%al
	cmpl	$10, %ecx
	setl	%cl
	orb	%cl, %al
	testb	$1, %al
	jne	.LBB9_483
	jmp	.LBB9_873
.LBB9_483:                              # %originalBB686
                                        #   in Loop: Header=BB9_442 Depth=3
	movl	x.17, %eax
	movl	y.18, %ecx
	movl	%eax, %edx
	subl	$1, %edx
	imull	%edx, %eax
	andl	$1, %eax
	cmpl	$0, %eax
	sete	%al
	cmpl	$10, %ecx
	setl	%cl
	orb	%cl, %al
	testb	$1, %al
	jne	.LBB9_484
	jmp	.LBB9_873
.LBB9_484:                              # %originalBBpart2688
                                        #   in Loop: Header=BB9_442 Depth=3
	jmp	.LBB9_485
.LBB9_485:                              #   in Loop: Header=BB9_442 Depth=3
	movl	x.17, %eax
	movl	y.18, %ecx
	movl	%eax, %edx
	subl	$1, %edx
	imull	%edx, %eax
	andl	$1, %eax
	cmpl	$0, %eax
	sete	%al
	cmpl	$10, %ecx
	setl	%cl
	orb	%cl, %al
	testb	$1, %al
	jne	.LBB9_486
	jmp	.LBB9_874
.LBB9_486:                              # %originalBB690
                                        #   in Loop: Header=BB9_442 Depth=3
	movq	-48(%rbp), %rax         # 8-byte Reload
	movq	(%rax), %rax
	movq	-56(%rbp), %rcx         # 8-byte Reload
	cmpq	(%rcx), %rax
	setb	%al
	movl	x.17, %ecx
	movl	y.18, %edx
	movl	%ecx, %esi
	subl	$1, %esi
	imull	%esi, %ecx
	andl	$1, %ecx
	cmpl	$0, %ecx
	sete	%cl
	cmpl	$10, %edx
	setl	%dl
	orb	%dl, %cl
	testb	$1, %cl
	jne	.LBB9_487
	jmp	.LBB9_874
.LBB9_487:                              # %originalBBpart2692
                                        #   in Loop: Header=BB9_442 Depth=3
	testb	$1, %al
	jne	.LBB9_488
	jmp	.LBB9_489
.LBB9_488:                              #   in Loop: Header=BB9_442 Depth=3
	movq	(%r15), %rax
	movq	-48(%rbp), %rcx         # 8-byte Reload
	movq	(%rcx), %rcx
	movb	$92, (%rax,%rcx)
.LBB9_489:                              #   in Loop: Header=BB9_442 Depth=3
	movl	x.17, %eax
	movl	y.18, %ecx
	movl	%eax, %edx
	subl	$1, %edx
	imull	%edx, %eax
	andl	$1, %eax
	cmpl	$0, %eax
	sete	%al
	cmpl	$10, %ecx
	setl	%cl
	orb	%cl, %al
	testb	$1, %al
	jne	.LBB9_490
	jmp	.LBB9_875
.LBB9_490:                              # %originalBB694
                                        #   in Loop: Header=BB9_442 Depth=3
	movq	-48(%rbp), %rcx         # 8-byte Reload
	movq	(%rcx), %rax
	addq	$1, %rax
	movq	%rax, (%rcx)
	movl	x.17, %eax
	movl	y.18, %ecx
	movl	%eax, %edx
	subl	$1, %edx
	imull	%edx, %eax
	andl	$1, %eax
	cmpl	$0, %eax
	sete	%al
	cmpl	$10, %ecx
	setl	%cl
	orb	%cl, %al
	testb	$1, %al
	jne	.LBB9_491
	jmp	.LBB9_875
.LBB9_491:                              # %originalBBpart2704
                                        #   in Loop: Header=BB9_442 Depth=3
	jmp	.LBB9_492
.LBB9_492:                              #   in Loop: Header=BB9_442 Depth=3
	movl	x.17, %eax
	movl	y.18, %ecx
	movl	%eax, %edx
	subl	$1, %edx
	imull	%edx, %eax
	andl	$1, %eax
	cmpl	$0, %eax
	sete	%al
	cmpl	$10, %ecx
	setl	%cl
	orb	%cl, %al
	testb	$1, %al
	jne	.LBB9_493
	jmp	.LBB9_876
.LBB9_493:                              # %originalBB706
                                        #   in Loop: Header=BB9_442 Depth=3
	movl	x.17, %eax
	movl	y.18, %ecx
	movl	%eax, %edx
	subl	$1, %edx
	imull	%edx, %eax
	andl	$1, %eax
	cmpl	$0, %eax
	sete	%al
	cmpl	$10, %ecx
	setl	%cl
	orb	%cl, %al
	testb	$1, %al
	jne	.LBB9_494
	jmp	.LBB9_876
.LBB9_494:                              # %originalBBpart2708
                                        #   in Loop: Header=BB9_442 Depth=3
	jmp	.LBB9_495
.LBB9_495:                              #   in Loop: Header=BB9_442 Depth=3
	movl	x.17, %eax
	movl	y.18, %ecx
	movl	%eax, %edx
	subl	$1, %edx
	imull	%edx, %eax
	andl	$1, %eax
	cmpl	$0, %eax
	sete	%al
	cmpl	$10, %ecx
	setl	%cl
	orb	%cl, %al
	testb	$1, %al
	jne	.LBB9_496
	jmp	.LBB9_877
.LBB9_496:                              # %originalBB710
                                        #   in Loop: Header=BB9_442 Depth=3
	movl	x.17, %eax
	movl	y.18, %ecx
	movl	%eax, %edx
	subl	$1, %edx
	imull	%edx, %eax
	andl	$1, %eax
	cmpl	$0, %eax
	sete	%al
	cmpl	$10, %ecx
	setl	%cl
	orb	%cl, %al
	testb	$1, %al
	jne	.LBB9_497
	jmp	.LBB9_877
.LBB9_497:                              # %originalBBpart2712
                                        #   in Loop: Header=BB9_442 Depth=3
	jmp	.LBB9_498
.LBB9_498:                              #   in Loop: Header=BB9_442 Depth=3
	movl	x.17, %eax
	movl	y.18, %ecx
	movl	%eax, %edx
	subl	$1, %edx
	imull	%edx, %eax
	andl	$1, %eax
	cmpl	$0, %eax
	sete	%al
	cmpl	$10, %ecx
	setl	%cl
	orb	%cl, %al
	testb	$1, %al
	jne	.LBB9_499
	jmp	.LBB9_878
.LBB9_499:                              # %originalBB714
                                        #   in Loop: Header=BB9_442 Depth=3
	movq	-48(%rbp), %rax         # 8-byte Reload
	movq	(%rax), %rax
	movq	-56(%rbp), %rcx         # 8-byte Reload
	cmpq	(%rcx), %rax
	setb	%al
	movl	x.17, %ecx
	movl	y.18, %edx
	movl	%ecx, %esi
	subl	$1, %esi
	imull	%esi, %ecx
	andl	$1, %ecx
	cmpl	$0, %ecx
	sete	%cl
	cmpl	$10, %edx
	setl	%dl
	orb	%dl, %cl
	testb	$1, %cl
	jne	.LBB9_500
	jmp	.LBB9_878
.LBB9_500:                              # %originalBBpart2716
                                        #   in Loop: Header=BB9_442 Depth=3
	testb	$1, %al
	jne	.LBB9_501
	jmp	.LBB9_502
.LBB9_501:                              #   in Loop: Header=BB9_442 Depth=3
	movq	-104(%rbp), %rax        # 8-byte Reload
	movzbl	(%rax), %eax
	sarl	$6, %eax
	addl	$48, %eax
	movq	(%r15), %rcx
	movq	-48(%rbp), %rdx         # 8-byte Reload
	movq	(%rdx), %rdx
	movb	%al, (%rcx,%rdx)
.LBB9_502:                              #   in Loop: Header=BB9_442 Depth=3
	movq	-48(%rbp), %rcx         # 8-byte Reload
	movq	(%rcx), %rax
	addq	$1, %rax
	movq	%rax, (%rcx)
# %bb.503:                              #   in Loop: Header=BB9_442 Depth=3
	movl	x.17, %eax
	movl	y.18, %ecx
	movl	%eax, %edx
	subl	$1, %edx
	imull	%edx, %eax
	andl	$1, %eax
	cmpl	$0, %eax
	sete	%al
	cmpl	$10, %ecx
	setl	%cl
	orb	%cl, %al
	testb	$1, %al
	jne	.LBB9_504
	jmp	.LBB9_879
.LBB9_504:                              # %originalBB718
                                        #   in Loop: Header=BB9_442 Depth=3
	movl	x.17, %eax
	movl	y.18, %ecx
	movl	%eax, %edx
	subl	$1, %edx
	imull	%edx, %eax
	andl	$1, %eax
	cmpl	$0, %eax
	sete	%al
	cmpl	$10, %ecx
	setl	%cl
	orb	%cl, %al
	testb	$1, %al
	jne	.LBB9_505
	jmp	.LBB9_879
.LBB9_505:                              # %originalBBpart2720
                                        #   in Loop: Header=BB9_442 Depth=3
	jmp	.LBB9_506
.LBB9_506:                              #   in Loop: Header=BB9_442 Depth=3
	movl	x.17, %eax
	movl	y.18, %ecx
	movl	%eax, %edx
	subl	$1, %edx
	imull	%edx, %eax
	andl	$1, %eax
	cmpl	$0, %eax
	sete	%al
	cmpl	$10, %ecx
	setl	%cl
	orb	%cl, %al
	testb	$1, %al
	jne	.LBB9_507
	jmp	.LBB9_880
.LBB9_507:                              # %originalBB722
                                        #   in Loop: Header=BB9_442 Depth=3
	movq	-48(%rbp), %rax         # 8-byte Reload
	movq	(%rax), %rax
	movq	-56(%rbp), %rcx         # 8-byte Reload
	cmpq	(%rcx), %rax
	setb	%al
	movl	x.17, %ecx
	movl	y.18, %edx
	movl	%ecx, %esi
	subl	$1, %esi
	imull	%esi, %ecx
	andl	$1, %ecx
	cmpl	$0, %ecx
	sete	%cl
	cmpl	$10, %edx
	setl	%dl
	orb	%dl, %cl
	testb	$1, %cl
	jne	.LBB9_508
	jmp	.LBB9_880
.LBB9_508:                              # %originalBBpart2724
                                        #   in Loop: Header=BB9_442 Depth=3
	testb	$1, %al
	jne	.LBB9_509
	jmp	.LBB9_512
.LBB9_509:                              #   in Loop: Header=BB9_442 Depth=3
	movl	x.17, %eax
	movl	y.18, %ecx
	movl	%eax, %edx
	subl	$1, %edx
	imull	%edx, %eax
	andl	$1, %eax
	cmpl	$0, %eax
	sete	%al
	cmpl	$10, %ecx
	setl	%cl
	orb	%cl, %al
	testb	$1, %al
	movq	-104(%rbp), %rsi        # 8-byte Reload
	jne	.LBB9_510
	jmp	.LBB9_881
.LBB9_510:                              # %originalBB726
                                        #   in Loop: Header=BB9_442 Depth=3
	movzbl	(%rsi), %eax
	sarl	$3, %eax
	andl	$7, %eax
	addl	$48, %eax
	movq	(%r15), %rcx
	movq	-48(%rbp), %rdx         # 8-byte Reload
	movq	(%rdx), %rdx
	movb	%al, (%rcx,%rdx)
	movl	x.17, %eax
	movl	y.18, %ecx
	movl	%eax, %edx
	subl	$1, %edx
	imull	%edx, %eax
	andl	$1, %eax
	cmpl	$0, %eax
	sete	%al
	cmpl	$10, %ecx
	setl	%cl
	orb	%cl, %al
	testb	$1, %al
	jne	.LBB9_511
	jmp	.LBB9_881
.LBB9_511:                              # %originalBBpart2750
                                        #   in Loop: Header=BB9_442 Depth=3
	jmp	.LBB9_512
.LBB9_512:                              #   in Loop: Header=BB9_442 Depth=3
	movq	-48(%rbp), %rcx         # 8-byte Reload
	movq	(%rcx), %rax
	addq	$1, %rax
	movq	%rax, (%rcx)
# %bb.513:                              #   in Loop: Header=BB9_442 Depth=3
	movl	x.17, %eax
	movl	y.18, %ecx
	movl	%eax, %edx
	subl	$1, %edx
	imull	%edx, %eax
	andl	$1, %eax
	cmpl	$0, %eax
	sete	%al
	cmpl	$10, %ecx
	setl	%cl
	orb	%cl, %al
	testb	$1, %al
	movq	-104(%rbp), %rsi        # 8-byte Reload
	jne	.LBB9_514
	jmp	.LBB9_882
.LBB9_514:                              # %originalBB752
                                        #   in Loop: Header=BB9_442 Depth=3
	movzbl	(%rsi), %eax
	andl	$7, %eax
	addl	$48, %eax
	movb	%al, (%rsi)
	movl	x.17, %eax
	movl	y.18, %ecx
	movl	%eax, %edx
	subl	$1, %edx
	imull	%edx, %eax
	andl	$1, %eax
	cmpl	$0, %eax
	sete	%al
	cmpl	$10, %ecx
	setl	%cl
	orb	%cl, %al
	testb	$1, %al
	jne	.LBB9_515
	jmp	.LBB9_882
.LBB9_515:                              # %originalBBpart2768
                                        #   in Loop: Header=BB9_442 Depth=3
	jmp	.LBB9_527
.LBB9_516:                              #   in Loop: Header=BB9_442 Depth=3
